
Sistema de riego.elf:     file format elf32-littlearm

Sections:
Idx Name          Size      VMA       LMA       File off  Algn
  0 .isr_vector   00000198  08000000  08000000  00010000  2**0
                  CONTENTS, ALLOC, LOAD, READONLY, DATA
  1 .text         00006588  080001a0  080001a0  000101a0  2**4
                  CONTENTS, ALLOC, LOAD, READONLY, CODE
  2 .rodata       000001f8  08006728  08006728  00016728  2**2
                  CONTENTS, ALLOC, LOAD, READONLY, DATA
  3 .ARM.extab    00000000  08006920  08006920  0002009c  2**0
                  CONTENTS
  4 .ARM          00000008  08006920  08006920  00016920  2**2
                  CONTENTS, ALLOC, LOAD, READONLY, DATA
  5 .preinit_array 00000000  08006928  08006928  0002009c  2**0
                  CONTENTS, ALLOC, LOAD, DATA
  6 .init_array   00000004  08006928  08006928  00016928  2**2
                  CONTENTS, ALLOC, LOAD, DATA
  7 .fini_array   00000004  0800692c  0800692c  0001692c  2**2
                  CONTENTS, ALLOC, LOAD, DATA
  8 .data         0000009c  20000000  08006930  00020000  2**2
                  CONTENTS, ALLOC, LOAD, DATA
  9 .bss          00000244  2000009c  080069cc  0002009c  2**2
                  ALLOC
 10 ._user_heap_stack 00000600  200002e0  080069cc  000202e0  2**0
                  ALLOC
 11 .ARM.attributes 00000030  00000000  00000000  0002009c  2**0
                  CONTENTS, READONLY
 12 .debug_info   0000f5af  00000000  00000000  000200cc  2**0
                  CONTENTS, READONLY, DEBUGGING, OCTETS
 13 .debug_abbrev 000020d3  00000000  00000000  0002f67b  2**0
                  CONTENTS, READONLY, DEBUGGING, OCTETS
 14 .debug_aranges 00000ee8  00000000  00000000  00031750  2**3
                  CONTENTS, READONLY, DEBUGGING, OCTETS
 15 .debug_ranges 00000e08  00000000  00000000  00032638  2**3
                  CONTENTS, READONLY, DEBUGGING, OCTETS
 16 .debug_macro  00017dad  00000000  00000000  00033440  2**0
                  CONTENTS, READONLY, DEBUGGING, OCTETS
 17 .debug_line   000116a4  00000000  00000000  0004b1ed  2**0
                  CONTENTS, READONLY, DEBUGGING, OCTETS
 18 .debug_str    0009a62f  00000000  00000000  0005c891  2**0
                  CONTENTS, READONLY, DEBUGGING, OCTETS
 19 .comment      00000050  00000000  00000000  000f6ec0  2**0
                  CONTENTS, READONLY
 20 .debug_frame  000044a4  00000000  00000000  000f6f10  2**2
                  CONTENTS, READONLY, DEBUGGING, OCTETS

Disassembly of section .text:

080001a0 <__do_global_dtors_aux>:
 80001a0:	b510      	push	{r4, lr}
 80001a2:	4c05      	ldr	r4, [pc, #20]	; (80001b8 <__do_global_dtors_aux+0x18>)
 80001a4:	7823      	ldrb	r3, [r4, #0]
 80001a6:	b933      	cbnz	r3, 80001b6 <__do_global_dtors_aux+0x16>
 80001a8:	4b04      	ldr	r3, [pc, #16]	; (80001bc <__do_global_dtors_aux+0x1c>)
 80001aa:	b113      	cbz	r3, 80001b2 <__do_global_dtors_aux+0x12>
 80001ac:	4804      	ldr	r0, [pc, #16]	; (80001c0 <__do_global_dtors_aux+0x20>)
 80001ae:	f3af 8000 	nop.w
 80001b2:	2301      	movs	r3, #1
 80001b4:	7023      	strb	r3, [r4, #0]
 80001b6:	bd10      	pop	{r4, pc}
 80001b8:	2000009c 	.word	0x2000009c
 80001bc:	00000000 	.word	0x00000000
 80001c0:	08006710 	.word	0x08006710

080001c4 <frame_dummy>:
 80001c4:	b508      	push	{r3, lr}
 80001c6:	4b03      	ldr	r3, [pc, #12]	; (80001d4 <frame_dummy+0x10>)
 80001c8:	b11b      	cbz	r3, 80001d2 <frame_dummy+0xe>
 80001ca:	4903      	ldr	r1, [pc, #12]	; (80001d8 <frame_dummy+0x14>)
 80001cc:	4803      	ldr	r0, [pc, #12]	; (80001dc <frame_dummy+0x18>)
 80001ce:	f3af 8000 	nop.w
 80001d2:	bd08      	pop	{r3, pc}
 80001d4:	00000000 	.word	0x00000000
 80001d8:	200000a0 	.word	0x200000a0
 80001dc:	08006710 	.word	0x08006710

080001e0 <strlen>:
 80001e0:	4603      	mov	r3, r0
 80001e2:	f813 2b01 	ldrb.w	r2, [r3], #1
 80001e6:	2a00      	cmp	r2, #0
 80001e8:	d1fb      	bne.n	80001e2 <strlen+0x2>
 80001ea:	1a18      	subs	r0, r3, r0
 80001ec:	3801      	subs	r0, #1
 80001ee:	4770      	bx	lr

080001f0 <memchr>:
 80001f0:	f001 01ff 	and.w	r1, r1, #255	; 0xff
 80001f4:	2a10      	cmp	r2, #16
 80001f6:	db2b      	blt.n	8000250 <memchr+0x60>
 80001f8:	f010 0f07 	tst.w	r0, #7
 80001fc:	d008      	beq.n	8000210 <memchr+0x20>
 80001fe:	f810 3b01 	ldrb.w	r3, [r0], #1
 8000202:	3a01      	subs	r2, #1
 8000204:	428b      	cmp	r3, r1
 8000206:	d02d      	beq.n	8000264 <memchr+0x74>
 8000208:	f010 0f07 	tst.w	r0, #7
 800020c:	b342      	cbz	r2, 8000260 <memchr+0x70>
 800020e:	d1f6      	bne.n	80001fe <memchr+0xe>
 8000210:	b4f0      	push	{r4, r5, r6, r7}
 8000212:	ea41 2101 	orr.w	r1, r1, r1, lsl #8
 8000216:	ea41 4101 	orr.w	r1, r1, r1, lsl #16
 800021a:	f022 0407 	bic.w	r4, r2, #7
 800021e:	f07f 0700 	mvns.w	r7, #0
 8000222:	2300      	movs	r3, #0
 8000224:	e8f0 5602 	ldrd	r5, r6, [r0], #8
 8000228:	3c08      	subs	r4, #8
 800022a:	ea85 0501 	eor.w	r5, r5, r1
 800022e:	ea86 0601 	eor.w	r6, r6, r1
 8000232:	fa85 f547 	uadd8	r5, r5, r7
 8000236:	faa3 f587 	sel	r5, r3, r7
 800023a:	fa86 f647 	uadd8	r6, r6, r7
 800023e:	faa5 f687 	sel	r6, r5, r7
 8000242:	b98e      	cbnz	r6, 8000268 <memchr+0x78>
 8000244:	d1ee      	bne.n	8000224 <memchr+0x34>
 8000246:	bcf0      	pop	{r4, r5, r6, r7}
 8000248:	f001 01ff 	and.w	r1, r1, #255	; 0xff
 800024c:	f002 0207 	and.w	r2, r2, #7
 8000250:	b132      	cbz	r2, 8000260 <memchr+0x70>
 8000252:	f810 3b01 	ldrb.w	r3, [r0], #1
 8000256:	3a01      	subs	r2, #1
 8000258:	ea83 0301 	eor.w	r3, r3, r1
 800025c:	b113      	cbz	r3, 8000264 <memchr+0x74>
 800025e:	d1f8      	bne.n	8000252 <memchr+0x62>
 8000260:	2000      	movs	r0, #0
 8000262:	4770      	bx	lr
 8000264:	3801      	subs	r0, #1
 8000266:	4770      	bx	lr
 8000268:	2d00      	cmp	r5, #0
 800026a:	bf06      	itte	eq
 800026c:	4635      	moveq	r5, r6
 800026e:	3803      	subeq	r0, #3
 8000270:	3807      	subne	r0, #7
 8000272:	f015 0f01 	tst.w	r5, #1
 8000276:	d107      	bne.n	8000288 <memchr+0x98>
 8000278:	3001      	adds	r0, #1
 800027a:	f415 7f80 	tst.w	r5, #256	; 0x100
 800027e:	bf02      	ittt	eq
 8000280:	3001      	addeq	r0, #1
 8000282:	f415 3fc0 	tsteq.w	r5, #98304	; 0x18000
 8000286:	3001      	addeq	r0, #1
 8000288:	bcf0      	pop	{r4, r5, r6, r7}
 800028a:	3801      	subs	r0, #1
 800028c:	4770      	bx	lr
 800028e:	bf00      	nop

08000290 <__aeabi_dmul>:
 8000290:	b570      	push	{r4, r5, r6, lr}
 8000292:	f04f 0cff 	mov.w	ip, #255	; 0xff
 8000296:	f44c 6ce0 	orr.w	ip, ip, #1792	; 0x700
 800029a:	ea1c 5411 	ands.w	r4, ip, r1, lsr #20
 800029e:	bf1d      	ittte	ne
 80002a0:	ea1c 5513 	andsne.w	r5, ip, r3, lsr #20
 80002a4:	ea94 0f0c 	teqne	r4, ip
 80002a8:	ea95 0f0c 	teqne	r5, ip
 80002ac:	f000 f8de 	bleq	800046c <__aeabi_dmul+0x1dc>
 80002b0:	442c      	add	r4, r5
 80002b2:	ea81 0603 	eor.w	r6, r1, r3
 80002b6:	ea21 514c 	bic.w	r1, r1, ip, lsl #21
 80002ba:	ea23 534c 	bic.w	r3, r3, ip, lsl #21
 80002be:	ea50 3501 	orrs.w	r5, r0, r1, lsl #12
 80002c2:	bf18      	it	ne
 80002c4:	ea52 3503 	orrsne.w	r5, r2, r3, lsl #12
 80002c8:	f441 1180 	orr.w	r1, r1, #1048576	; 0x100000
 80002cc:	f443 1380 	orr.w	r3, r3, #1048576	; 0x100000
 80002d0:	d038      	beq.n	8000344 <__aeabi_dmul+0xb4>
 80002d2:	fba0 ce02 	umull	ip, lr, r0, r2
 80002d6:	f04f 0500 	mov.w	r5, #0
 80002da:	fbe1 e502 	umlal	lr, r5, r1, r2
 80002de:	f006 4200 	and.w	r2, r6, #2147483648	; 0x80000000
 80002e2:	fbe0 e503 	umlal	lr, r5, r0, r3
 80002e6:	f04f 0600 	mov.w	r6, #0
 80002ea:	fbe1 5603 	umlal	r5, r6, r1, r3
 80002ee:	f09c 0f00 	teq	ip, #0
 80002f2:	bf18      	it	ne
 80002f4:	f04e 0e01 	orrne.w	lr, lr, #1
 80002f8:	f1a4 04ff 	sub.w	r4, r4, #255	; 0xff
 80002fc:	f5b6 7f00 	cmp.w	r6, #512	; 0x200
 8000300:	f564 7440 	sbc.w	r4, r4, #768	; 0x300
 8000304:	d204      	bcs.n	8000310 <__aeabi_dmul+0x80>
 8000306:	ea5f 0e4e 	movs.w	lr, lr, lsl #1
 800030a:	416d      	adcs	r5, r5
 800030c:	eb46 0606 	adc.w	r6, r6, r6
 8000310:	ea42 21c6 	orr.w	r1, r2, r6, lsl #11
 8000314:	ea41 5155 	orr.w	r1, r1, r5, lsr #21
 8000318:	ea4f 20c5 	mov.w	r0, r5, lsl #11
 800031c:	ea40 505e 	orr.w	r0, r0, lr, lsr #21
 8000320:	ea4f 2ece 	mov.w	lr, lr, lsl #11
 8000324:	f1b4 0cfd 	subs.w	ip, r4, #253	; 0xfd
 8000328:	bf88      	it	hi
 800032a:	f5bc 6fe0 	cmphi.w	ip, #1792	; 0x700
 800032e:	d81e      	bhi.n	800036e <__aeabi_dmul+0xde>
 8000330:	f1be 4f00 	cmp.w	lr, #2147483648	; 0x80000000
 8000334:	bf08      	it	eq
 8000336:	ea5f 0e50 	movseq.w	lr, r0, lsr #1
 800033a:	f150 0000 	adcs.w	r0, r0, #0
 800033e:	eb41 5104 	adc.w	r1, r1, r4, lsl #20
 8000342:	bd70      	pop	{r4, r5, r6, pc}
 8000344:	f006 4600 	and.w	r6, r6, #2147483648	; 0x80000000
 8000348:	ea46 0101 	orr.w	r1, r6, r1
 800034c:	ea40 0002 	orr.w	r0, r0, r2
 8000350:	ea81 0103 	eor.w	r1, r1, r3
 8000354:	ebb4 045c 	subs.w	r4, r4, ip, lsr #1
 8000358:	bfc2      	ittt	gt
 800035a:	ebd4 050c 	rsbsgt	r5, r4, ip
 800035e:	ea41 5104 	orrgt.w	r1, r1, r4, lsl #20
 8000362:	bd70      	popgt	{r4, r5, r6, pc}
 8000364:	f441 1180 	orr.w	r1, r1, #1048576	; 0x100000
 8000368:	f04f 0e00 	mov.w	lr, #0
 800036c:	3c01      	subs	r4, #1
 800036e:	f300 80ab 	bgt.w	80004c8 <__aeabi_dmul+0x238>
 8000372:	f114 0f36 	cmn.w	r4, #54	; 0x36
 8000376:	bfde      	ittt	le
 8000378:	2000      	movle	r0, #0
 800037a:	f001 4100 	andle.w	r1, r1, #2147483648	; 0x80000000
 800037e:	bd70      	pople	{r4, r5, r6, pc}
 8000380:	f1c4 0400 	rsb	r4, r4, #0
 8000384:	3c20      	subs	r4, #32
 8000386:	da35      	bge.n	80003f4 <__aeabi_dmul+0x164>
 8000388:	340c      	adds	r4, #12
 800038a:	dc1b      	bgt.n	80003c4 <__aeabi_dmul+0x134>
 800038c:	f104 0414 	add.w	r4, r4, #20
 8000390:	f1c4 0520 	rsb	r5, r4, #32
 8000394:	fa00 f305 	lsl.w	r3, r0, r5
 8000398:	fa20 f004 	lsr.w	r0, r0, r4
 800039c:	fa01 f205 	lsl.w	r2, r1, r5
 80003a0:	ea40 0002 	orr.w	r0, r0, r2
 80003a4:	f001 4200 	and.w	r2, r1, #2147483648	; 0x80000000
 80003a8:	f021 4100 	bic.w	r1, r1, #2147483648	; 0x80000000
 80003ac:	eb10 70d3 	adds.w	r0, r0, r3, lsr #31
 80003b0:	fa21 f604 	lsr.w	r6, r1, r4
 80003b4:	eb42 0106 	adc.w	r1, r2, r6
 80003b8:	ea5e 0e43 	orrs.w	lr, lr, r3, lsl #1
 80003bc:	bf08      	it	eq
 80003be:	ea20 70d3 	biceq.w	r0, r0, r3, lsr #31
 80003c2:	bd70      	pop	{r4, r5, r6, pc}
 80003c4:	f1c4 040c 	rsb	r4, r4, #12
 80003c8:	f1c4 0520 	rsb	r5, r4, #32
 80003cc:	fa00 f304 	lsl.w	r3, r0, r4
 80003d0:	fa20 f005 	lsr.w	r0, r0, r5
 80003d4:	fa01 f204 	lsl.w	r2, r1, r4
 80003d8:	ea40 0002 	orr.w	r0, r0, r2
 80003dc:	f001 4100 	and.w	r1, r1, #2147483648	; 0x80000000
 80003e0:	eb10 70d3 	adds.w	r0, r0, r3, lsr #31
 80003e4:	f141 0100 	adc.w	r1, r1, #0
 80003e8:	ea5e 0e43 	orrs.w	lr, lr, r3, lsl #1
 80003ec:	bf08      	it	eq
 80003ee:	ea20 70d3 	biceq.w	r0, r0, r3, lsr #31
 80003f2:	bd70      	pop	{r4, r5, r6, pc}
 80003f4:	f1c4 0520 	rsb	r5, r4, #32
 80003f8:	fa00 f205 	lsl.w	r2, r0, r5
 80003fc:	ea4e 0e02 	orr.w	lr, lr, r2
 8000400:	fa20 f304 	lsr.w	r3, r0, r4
 8000404:	fa01 f205 	lsl.w	r2, r1, r5
 8000408:	ea43 0302 	orr.w	r3, r3, r2
 800040c:	fa21 f004 	lsr.w	r0, r1, r4
 8000410:	f001 4100 	and.w	r1, r1, #2147483648	; 0x80000000
 8000414:	fa21 f204 	lsr.w	r2, r1, r4
 8000418:	ea20 0002 	bic.w	r0, r0, r2
 800041c:	eb00 70d3 	add.w	r0, r0, r3, lsr #31
 8000420:	ea5e 0e43 	orrs.w	lr, lr, r3, lsl #1
 8000424:	bf08      	it	eq
 8000426:	ea20 70d3 	biceq.w	r0, r0, r3, lsr #31
 800042a:	bd70      	pop	{r4, r5, r6, pc}
 800042c:	f094 0f00 	teq	r4, #0
 8000430:	d10f      	bne.n	8000452 <__aeabi_dmul+0x1c2>
 8000432:	f001 4600 	and.w	r6, r1, #2147483648	; 0x80000000
 8000436:	0040      	lsls	r0, r0, #1
 8000438:	eb41 0101 	adc.w	r1, r1, r1
 800043c:	f411 1f80 	tst.w	r1, #1048576	; 0x100000
 8000440:	bf08      	it	eq
 8000442:	3c01      	subeq	r4, #1
 8000444:	d0f7      	beq.n	8000436 <__aeabi_dmul+0x1a6>
 8000446:	ea41 0106 	orr.w	r1, r1, r6
 800044a:	f095 0f00 	teq	r5, #0
 800044e:	bf18      	it	ne
 8000450:	4770      	bxne	lr
 8000452:	f003 4600 	and.w	r6, r3, #2147483648	; 0x80000000
 8000456:	0052      	lsls	r2, r2, #1
 8000458:	eb43 0303 	adc.w	r3, r3, r3
 800045c:	f413 1f80 	tst.w	r3, #1048576	; 0x100000
 8000460:	bf08      	it	eq
 8000462:	3d01      	subeq	r5, #1
 8000464:	d0f7      	beq.n	8000456 <__aeabi_dmul+0x1c6>
 8000466:	ea43 0306 	orr.w	r3, r3, r6
 800046a:	4770      	bx	lr
 800046c:	ea94 0f0c 	teq	r4, ip
 8000470:	ea0c 5513 	and.w	r5, ip, r3, lsr #20
 8000474:	bf18      	it	ne
 8000476:	ea95 0f0c 	teqne	r5, ip
 800047a:	d00c      	beq.n	8000496 <__aeabi_dmul+0x206>
 800047c:	ea50 0641 	orrs.w	r6, r0, r1, lsl #1
 8000480:	bf18      	it	ne
 8000482:	ea52 0643 	orrsne.w	r6, r2, r3, lsl #1
 8000486:	d1d1      	bne.n	800042c <__aeabi_dmul+0x19c>
 8000488:	ea81 0103 	eor.w	r1, r1, r3
 800048c:	f001 4100 	and.w	r1, r1, #2147483648	; 0x80000000
 8000490:	f04f 0000 	mov.w	r0, #0
 8000494:	bd70      	pop	{r4, r5, r6, pc}
 8000496:	ea50 0641 	orrs.w	r6, r0, r1, lsl #1
 800049a:	bf06      	itte	eq
 800049c:	4610      	moveq	r0, r2
 800049e:	4619      	moveq	r1, r3
 80004a0:	ea52 0643 	orrsne.w	r6, r2, r3, lsl #1
 80004a4:	d019      	beq.n	80004da <__aeabi_dmul+0x24a>
 80004a6:	ea94 0f0c 	teq	r4, ip
 80004aa:	d102      	bne.n	80004b2 <__aeabi_dmul+0x222>
 80004ac:	ea50 3601 	orrs.w	r6, r0, r1, lsl #12
 80004b0:	d113      	bne.n	80004da <__aeabi_dmul+0x24a>
 80004b2:	ea95 0f0c 	teq	r5, ip
 80004b6:	d105      	bne.n	80004c4 <__aeabi_dmul+0x234>
 80004b8:	ea52 3603 	orrs.w	r6, r2, r3, lsl #12
 80004bc:	bf1c      	itt	ne
 80004be:	4610      	movne	r0, r2
 80004c0:	4619      	movne	r1, r3
 80004c2:	d10a      	bne.n	80004da <__aeabi_dmul+0x24a>
 80004c4:	ea81 0103 	eor.w	r1, r1, r3
 80004c8:	f001 4100 	and.w	r1, r1, #2147483648	; 0x80000000
 80004cc:	f041 41fe 	orr.w	r1, r1, #2130706432	; 0x7f000000
 80004d0:	f441 0170 	orr.w	r1, r1, #15728640	; 0xf00000
 80004d4:	f04f 0000 	mov.w	r0, #0
 80004d8:	bd70      	pop	{r4, r5, r6, pc}
 80004da:	f041 41fe 	orr.w	r1, r1, #2130706432	; 0x7f000000
 80004de:	f441 0178 	orr.w	r1, r1, #16252928	; 0xf80000
 80004e2:	bd70      	pop	{r4, r5, r6, pc}

080004e4 <__aeabi_drsub>:
 80004e4:	f081 4100 	eor.w	r1, r1, #2147483648	; 0x80000000
 80004e8:	e002      	b.n	80004f0 <__adddf3>
 80004ea:	bf00      	nop

080004ec <__aeabi_dsub>:
 80004ec:	f083 4300 	eor.w	r3, r3, #2147483648	; 0x80000000

080004f0 <__adddf3>:
 80004f0:	b530      	push	{r4, r5, lr}
 80004f2:	ea4f 0441 	mov.w	r4, r1, lsl #1
 80004f6:	ea4f 0543 	mov.w	r5, r3, lsl #1
 80004fa:	ea94 0f05 	teq	r4, r5
 80004fe:	bf08      	it	eq
 8000500:	ea90 0f02 	teqeq	r0, r2
 8000504:	bf1f      	itttt	ne
 8000506:	ea54 0c00 	orrsne.w	ip, r4, r0
 800050a:	ea55 0c02 	orrsne.w	ip, r5, r2
 800050e:	ea7f 5c64 	mvnsne.w	ip, r4, asr #21
 8000512:	ea7f 5c65 	mvnsne.w	ip, r5, asr #21
 8000516:	f000 80e2 	beq.w	80006de <__adddf3+0x1ee>
 800051a:	ea4f 5454 	mov.w	r4, r4, lsr #21
 800051e:	ebd4 5555 	rsbs	r5, r4, r5, lsr #21
 8000522:	bfb8      	it	lt
 8000524:	426d      	neglt	r5, r5
 8000526:	dd0c      	ble.n	8000542 <__adddf3+0x52>
 8000528:	442c      	add	r4, r5
 800052a:	ea80 0202 	eor.w	r2, r0, r2
 800052e:	ea81 0303 	eor.w	r3, r1, r3
 8000532:	ea82 0000 	eor.w	r0, r2, r0
 8000536:	ea83 0101 	eor.w	r1, r3, r1
 800053a:	ea80 0202 	eor.w	r2, r0, r2
 800053e:	ea81 0303 	eor.w	r3, r1, r3
 8000542:	2d36      	cmp	r5, #54	; 0x36
 8000544:	bf88      	it	hi
 8000546:	bd30      	pophi	{r4, r5, pc}
 8000548:	f011 4f00 	tst.w	r1, #2147483648	; 0x80000000
 800054c:	ea4f 3101 	mov.w	r1, r1, lsl #12
 8000550:	f44f 1c80 	mov.w	ip, #1048576	; 0x100000
 8000554:	ea4c 3111 	orr.w	r1, ip, r1, lsr #12
 8000558:	d002      	beq.n	8000560 <__adddf3+0x70>
 800055a:	4240      	negs	r0, r0
 800055c:	eb61 0141 	sbc.w	r1, r1, r1, lsl #1
 8000560:	f013 4f00 	tst.w	r3, #2147483648	; 0x80000000
 8000564:	ea4f 3303 	mov.w	r3, r3, lsl #12
 8000568:	ea4c 3313 	orr.w	r3, ip, r3, lsr #12
 800056c:	d002      	beq.n	8000574 <__adddf3+0x84>
 800056e:	4252      	negs	r2, r2
 8000570:	eb63 0343 	sbc.w	r3, r3, r3, lsl #1
 8000574:	ea94 0f05 	teq	r4, r5
 8000578:	f000 80a7 	beq.w	80006ca <__adddf3+0x1da>
 800057c:	f1a4 0401 	sub.w	r4, r4, #1
 8000580:	f1d5 0e20 	rsbs	lr, r5, #32
 8000584:	db0d      	blt.n	80005a2 <__adddf3+0xb2>
 8000586:	fa02 fc0e 	lsl.w	ip, r2, lr
 800058a:	fa22 f205 	lsr.w	r2, r2, r5
 800058e:	1880      	adds	r0, r0, r2
 8000590:	f141 0100 	adc.w	r1, r1, #0
 8000594:	fa03 f20e 	lsl.w	r2, r3, lr
 8000598:	1880      	adds	r0, r0, r2
 800059a:	fa43 f305 	asr.w	r3, r3, r5
 800059e:	4159      	adcs	r1, r3
 80005a0:	e00e      	b.n	80005c0 <__adddf3+0xd0>
 80005a2:	f1a5 0520 	sub.w	r5, r5, #32
 80005a6:	f10e 0e20 	add.w	lr, lr, #32
 80005aa:	2a01      	cmp	r2, #1
 80005ac:	fa03 fc0e 	lsl.w	ip, r3, lr
 80005b0:	bf28      	it	cs
 80005b2:	f04c 0c02 	orrcs.w	ip, ip, #2
 80005b6:	fa43 f305 	asr.w	r3, r3, r5
 80005ba:	18c0      	adds	r0, r0, r3
 80005bc:	eb51 71e3 	adcs.w	r1, r1, r3, asr #31
 80005c0:	f001 4500 	and.w	r5, r1, #2147483648	; 0x80000000
 80005c4:	d507      	bpl.n	80005d6 <__adddf3+0xe6>
 80005c6:	f04f 0e00 	mov.w	lr, #0
 80005ca:	f1dc 0c00 	rsbs	ip, ip, #0
 80005ce:	eb7e 0000 	sbcs.w	r0, lr, r0
 80005d2:	eb6e 0101 	sbc.w	r1, lr, r1
 80005d6:	f5b1 1f80 	cmp.w	r1, #1048576	; 0x100000
 80005da:	d31b      	bcc.n	8000614 <__adddf3+0x124>
 80005dc:	f5b1 1f00 	cmp.w	r1, #2097152	; 0x200000
 80005e0:	d30c      	bcc.n	80005fc <__adddf3+0x10c>
 80005e2:	0849      	lsrs	r1, r1, #1
 80005e4:	ea5f 0030 	movs.w	r0, r0, rrx
 80005e8:	ea4f 0c3c 	mov.w	ip, ip, rrx
 80005ec:	f104 0401 	add.w	r4, r4, #1
 80005f0:	ea4f 5244 	mov.w	r2, r4, lsl #21
 80005f4:	f512 0f80 	cmn.w	r2, #4194304	; 0x400000
 80005f8:	f080 809a 	bcs.w	8000730 <__adddf3+0x240>
 80005fc:	f1bc 4f00 	cmp.w	ip, #2147483648	; 0x80000000
 8000600:	bf08      	it	eq
 8000602:	ea5f 0c50 	movseq.w	ip, r0, lsr #1
 8000606:	f150 0000 	adcs.w	r0, r0, #0
 800060a:	eb41 5104 	adc.w	r1, r1, r4, lsl #20
 800060e:	ea41 0105 	orr.w	r1, r1, r5
 8000612:	bd30      	pop	{r4, r5, pc}
 8000614:	ea5f 0c4c 	movs.w	ip, ip, lsl #1
 8000618:	4140      	adcs	r0, r0
 800061a:	eb41 0101 	adc.w	r1, r1, r1
 800061e:	3c01      	subs	r4, #1
 8000620:	bf28      	it	cs
 8000622:	f5b1 1f80 	cmpcs.w	r1, #1048576	; 0x100000
 8000626:	d2e9      	bcs.n	80005fc <__adddf3+0x10c>
 8000628:	f091 0f00 	teq	r1, #0
 800062c:	bf04      	itt	eq
 800062e:	4601      	moveq	r1, r0
 8000630:	2000      	moveq	r0, #0
 8000632:	fab1 f381 	clz	r3, r1
 8000636:	bf08      	it	eq
 8000638:	3320      	addeq	r3, #32
 800063a:	f1a3 030b 	sub.w	r3, r3, #11
 800063e:	f1b3 0220 	subs.w	r2, r3, #32
 8000642:	da0c      	bge.n	800065e <__adddf3+0x16e>
 8000644:	320c      	adds	r2, #12
 8000646:	dd08      	ble.n	800065a <__adddf3+0x16a>
 8000648:	f102 0c14 	add.w	ip, r2, #20
 800064c:	f1c2 020c 	rsb	r2, r2, #12
 8000650:	fa01 f00c 	lsl.w	r0, r1, ip
 8000654:	fa21 f102 	lsr.w	r1, r1, r2
 8000658:	e00c      	b.n	8000674 <__adddf3+0x184>
 800065a:	f102 0214 	add.w	r2, r2, #20
 800065e:	bfd8      	it	le
 8000660:	f1c2 0c20 	rsble	ip, r2, #32
 8000664:	fa01 f102 	lsl.w	r1, r1, r2
 8000668:	fa20 fc0c 	lsr.w	ip, r0, ip
 800066c:	bfdc      	itt	le
 800066e:	ea41 010c 	orrle.w	r1, r1, ip
 8000672:	4090      	lslle	r0, r2
 8000674:	1ae4      	subs	r4, r4, r3
 8000676:	bfa2      	ittt	ge
 8000678:	eb01 5104 	addge.w	r1, r1, r4, lsl #20
 800067c:	4329      	orrge	r1, r5
 800067e:	bd30      	popge	{r4, r5, pc}
 8000680:	ea6f 0404 	mvn.w	r4, r4
 8000684:	3c1f      	subs	r4, #31
 8000686:	da1c      	bge.n	80006c2 <__adddf3+0x1d2>
 8000688:	340c      	adds	r4, #12
 800068a:	dc0e      	bgt.n	80006aa <__adddf3+0x1ba>
 800068c:	f104 0414 	add.w	r4, r4, #20
 8000690:	f1c4 0220 	rsb	r2, r4, #32
 8000694:	fa20 f004 	lsr.w	r0, r0, r4
 8000698:	fa01 f302 	lsl.w	r3, r1, r2
 800069c:	ea40 0003 	orr.w	r0, r0, r3
 80006a0:	fa21 f304 	lsr.w	r3, r1, r4
 80006a4:	ea45 0103 	orr.w	r1, r5, r3
 80006a8:	bd30      	pop	{r4, r5, pc}
 80006aa:	f1c4 040c 	rsb	r4, r4, #12
 80006ae:	f1c4 0220 	rsb	r2, r4, #32
 80006b2:	fa20 f002 	lsr.w	r0, r0, r2
 80006b6:	fa01 f304 	lsl.w	r3, r1, r4
 80006ba:	ea40 0003 	orr.w	r0, r0, r3
 80006be:	4629      	mov	r1, r5
 80006c0:	bd30      	pop	{r4, r5, pc}
 80006c2:	fa21 f004 	lsr.w	r0, r1, r4
 80006c6:	4629      	mov	r1, r5
 80006c8:	bd30      	pop	{r4, r5, pc}
 80006ca:	f094 0f00 	teq	r4, #0
 80006ce:	f483 1380 	eor.w	r3, r3, #1048576	; 0x100000
 80006d2:	bf06      	itte	eq
 80006d4:	f481 1180 	eoreq.w	r1, r1, #1048576	; 0x100000
 80006d8:	3401      	addeq	r4, #1
 80006da:	3d01      	subne	r5, #1
 80006dc:	e74e      	b.n	800057c <__adddf3+0x8c>
 80006de:	ea7f 5c64 	mvns.w	ip, r4, asr #21
 80006e2:	bf18      	it	ne
 80006e4:	ea7f 5c65 	mvnsne.w	ip, r5, asr #21
 80006e8:	d029      	beq.n	800073e <__adddf3+0x24e>
 80006ea:	ea94 0f05 	teq	r4, r5
 80006ee:	bf08      	it	eq
 80006f0:	ea90 0f02 	teqeq	r0, r2
 80006f4:	d005      	beq.n	8000702 <__adddf3+0x212>
 80006f6:	ea54 0c00 	orrs.w	ip, r4, r0
 80006fa:	bf04      	itt	eq
 80006fc:	4619      	moveq	r1, r3
 80006fe:	4610      	moveq	r0, r2
 8000700:	bd30      	pop	{r4, r5, pc}
 8000702:	ea91 0f03 	teq	r1, r3
 8000706:	bf1e      	ittt	ne
 8000708:	2100      	movne	r1, #0
 800070a:	2000      	movne	r0, #0
 800070c:	bd30      	popne	{r4, r5, pc}
 800070e:	ea5f 5c54 	movs.w	ip, r4, lsr #21
 8000712:	d105      	bne.n	8000720 <__adddf3+0x230>
 8000714:	0040      	lsls	r0, r0, #1
 8000716:	4149      	adcs	r1, r1
 8000718:	bf28      	it	cs
 800071a:	f041 4100 	orrcs.w	r1, r1, #2147483648	; 0x80000000
 800071e:	bd30      	pop	{r4, r5, pc}
 8000720:	f514 0480 	adds.w	r4, r4, #4194304	; 0x400000
 8000724:	bf3c      	itt	cc
 8000726:	f501 1180 	addcc.w	r1, r1, #1048576	; 0x100000
 800072a:	bd30      	popcc	{r4, r5, pc}
 800072c:	f001 4500 	and.w	r5, r1, #2147483648	; 0x80000000
 8000730:	f045 41fe 	orr.w	r1, r5, #2130706432	; 0x7f000000
 8000734:	f441 0170 	orr.w	r1, r1, #15728640	; 0xf00000
 8000738:	f04f 0000 	mov.w	r0, #0
 800073c:	bd30      	pop	{r4, r5, pc}
 800073e:	ea7f 5c64 	mvns.w	ip, r4, asr #21
 8000742:	bf1a      	itte	ne
 8000744:	4619      	movne	r1, r3
 8000746:	4610      	movne	r0, r2
 8000748:	ea7f 5c65 	mvnseq.w	ip, r5, asr #21
 800074c:	bf1c      	itt	ne
 800074e:	460b      	movne	r3, r1
 8000750:	4602      	movne	r2, r0
 8000752:	ea50 3401 	orrs.w	r4, r0, r1, lsl #12
 8000756:	bf06      	itte	eq
 8000758:	ea52 3503 	orrseq.w	r5, r2, r3, lsl #12
 800075c:	ea91 0f03 	teqeq	r1, r3
 8000760:	f441 2100 	orrne.w	r1, r1, #524288	; 0x80000
 8000764:	bd30      	pop	{r4, r5, pc}
 8000766:	bf00      	nop

08000768 <__aeabi_ui2d>:
 8000768:	f090 0f00 	teq	r0, #0
 800076c:	bf04      	itt	eq
 800076e:	2100      	moveq	r1, #0
 8000770:	4770      	bxeq	lr
 8000772:	b530      	push	{r4, r5, lr}
 8000774:	f44f 6480 	mov.w	r4, #1024	; 0x400
 8000778:	f104 0432 	add.w	r4, r4, #50	; 0x32
 800077c:	f04f 0500 	mov.w	r5, #0
 8000780:	f04f 0100 	mov.w	r1, #0
 8000784:	e750      	b.n	8000628 <__adddf3+0x138>
 8000786:	bf00      	nop

08000788 <__aeabi_i2d>:
 8000788:	f090 0f00 	teq	r0, #0
 800078c:	bf04      	itt	eq
 800078e:	2100      	moveq	r1, #0
 8000790:	4770      	bxeq	lr
 8000792:	b530      	push	{r4, r5, lr}
 8000794:	f44f 6480 	mov.w	r4, #1024	; 0x400
 8000798:	f104 0432 	add.w	r4, r4, #50	; 0x32
 800079c:	f010 4500 	ands.w	r5, r0, #2147483648	; 0x80000000
 80007a0:	bf48      	it	mi
 80007a2:	4240      	negmi	r0, r0
 80007a4:	f04f 0100 	mov.w	r1, #0
 80007a8:	e73e      	b.n	8000628 <__adddf3+0x138>
 80007aa:	bf00      	nop

080007ac <__aeabi_f2d>:
 80007ac:	0042      	lsls	r2, r0, #1
 80007ae:	ea4f 01e2 	mov.w	r1, r2, asr #3
 80007b2:	ea4f 0131 	mov.w	r1, r1, rrx
 80007b6:	ea4f 7002 	mov.w	r0, r2, lsl #28
 80007ba:	bf1f      	itttt	ne
 80007bc:	f012 437f 	andsne.w	r3, r2, #4278190080	; 0xff000000
 80007c0:	f093 4f7f 	teqne	r3, #4278190080	; 0xff000000
 80007c4:	f081 5160 	eorne.w	r1, r1, #939524096	; 0x38000000
 80007c8:	4770      	bxne	lr
 80007ca:	f032 427f 	bics.w	r2, r2, #4278190080	; 0xff000000
 80007ce:	bf08      	it	eq
 80007d0:	4770      	bxeq	lr
 80007d2:	f093 4f7f 	teq	r3, #4278190080	; 0xff000000
 80007d6:	bf04      	itt	eq
 80007d8:	f441 2100 	orreq.w	r1, r1, #524288	; 0x80000
 80007dc:	4770      	bxeq	lr
 80007de:	b530      	push	{r4, r5, lr}
 80007e0:	f44f 7460 	mov.w	r4, #896	; 0x380
 80007e4:	f001 4500 	and.w	r5, r1, #2147483648	; 0x80000000
 80007e8:	f021 4100 	bic.w	r1, r1, #2147483648	; 0x80000000
 80007ec:	e71c      	b.n	8000628 <__adddf3+0x138>
 80007ee:	bf00      	nop

080007f0 <__aeabi_ul2d>:
 80007f0:	ea50 0201 	orrs.w	r2, r0, r1
 80007f4:	bf08      	it	eq
 80007f6:	4770      	bxeq	lr
 80007f8:	b530      	push	{r4, r5, lr}
 80007fa:	f04f 0500 	mov.w	r5, #0
 80007fe:	e00a      	b.n	8000816 <__aeabi_l2d+0x16>

08000800 <__aeabi_l2d>:
 8000800:	ea50 0201 	orrs.w	r2, r0, r1
 8000804:	bf08      	it	eq
 8000806:	4770      	bxeq	lr
 8000808:	b530      	push	{r4, r5, lr}
 800080a:	f011 4500 	ands.w	r5, r1, #2147483648	; 0x80000000
 800080e:	d502      	bpl.n	8000816 <__aeabi_l2d+0x16>
 8000810:	4240      	negs	r0, r0
 8000812:	eb61 0141 	sbc.w	r1, r1, r1, lsl #1
 8000816:	f44f 6480 	mov.w	r4, #1024	; 0x400
 800081a:	f104 0432 	add.w	r4, r4, #50	; 0x32
 800081e:	ea5f 5c91 	movs.w	ip, r1, lsr #22
 8000822:	f43f aed8 	beq.w	80005d6 <__adddf3+0xe6>
 8000826:	f04f 0203 	mov.w	r2, #3
 800082a:	ea5f 0cdc 	movs.w	ip, ip, lsr #3
 800082e:	bf18      	it	ne
 8000830:	3203      	addne	r2, #3
 8000832:	ea5f 0cdc 	movs.w	ip, ip, lsr #3
 8000836:	bf18      	it	ne
 8000838:	3203      	addne	r2, #3
 800083a:	eb02 02dc 	add.w	r2, r2, ip, lsr #3
 800083e:	f1c2 0320 	rsb	r3, r2, #32
 8000842:	fa00 fc03 	lsl.w	ip, r0, r3
 8000846:	fa20 f002 	lsr.w	r0, r0, r2
 800084a:	fa01 fe03 	lsl.w	lr, r1, r3
 800084e:	ea40 000e 	orr.w	r0, r0, lr
 8000852:	fa21 f102 	lsr.w	r1, r1, r2
 8000856:	4414      	add	r4, r2
 8000858:	e6bd      	b.n	80005d6 <__adddf3+0xe6>
 800085a:	bf00      	nop

0800085c <__aeabi_d2uiz>:
 800085c:	004a      	lsls	r2, r1, #1
 800085e:	d211      	bcs.n	8000884 <__aeabi_d2uiz+0x28>
 8000860:	f512 1200 	adds.w	r2, r2, #2097152	; 0x200000
 8000864:	d211      	bcs.n	800088a <__aeabi_d2uiz+0x2e>
 8000866:	d50d      	bpl.n	8000884 <__aeabi_d2uiz+0x28>
 8000868:	f46f 7378 	mvn.w	r3, #992	; 0x3e0
 800086c:	ebb3 5262 	subs.w	r2, r3, r2, asr #21
 8000870:	d40e      	bmi.n	8000890 <__aeabi_d2uiz+0x34>
 8000872:	ea4f 23c1 	mov.w	r3, r1, lsl #11
 8000876:	f043 4300 	orr.w	r3, r3, #2147483648	; 0x80000000
 800087a:	ea43 5350 	orr.w	r3, r3, r0, lsr #21
 800087e:	fa23 f002 	lsr.w	r0, r3, r2
 8000882:	4770      	bx	lr
 8000884:	f04f 0000 	mov.w	r0, #0
 8000888:	4770      	bx	lr
 800088a:	ea50 3001 	orrs.w	r0, r0, r1, lsl #12
 800088e:	d102      	bne.n	8000896 <__aeabi_d2uiz+0x3a>
 8000890:	f04f 30ff 	mov.w	r0, #4294967295
 8000894:	4770      	bx	lr
 8000896:	f04f 0000 	mov.w	r0, #0
 800089a:	4770      	bx	lr

0800089c <__aeabi_uldivmod>:
 800089c:	b953      	cbnz	r3, 80008b4 <__aeabi_uldivmod+0x18>
 800089e:	b94a      	cbnz	r2, 80008b4 <__aeabi_uldivmod+0x18>
 80008a0:	2900      	cmp	r1, #0
 80008a2:	bf08      	it	eq
 80008a4:	2800      	cmpeq	r0, #0
 80008a6:	bf1c      	itt	ne
 80008a8:	f04f 31ff 	movne.w	r1, #4294967295
 80008ac:	f04f 30ff 	movne.w	r0, #4294967295
 80008b0:	f000 b974 	b.w	8000b9c <__aeabi_idiv0>
 80008b4:	f1ad 0c08 	sub.w	ip, sp, #8
 80008b8:	e96d ce04 	strd	ip, lr, [sp, #-16]!
 80008bc:	f000 f806 	bl	80008cc <__udivmoddi4>
 80008c0:	f8dd e004 	ldr.w	lr, [sp, #4]
 80008c4:	e9dd 2302 	ldrd	r2, r3, [sp, #8]
 80008c8:	b004      	add	sp, #16
 80008ca:	4770      	bx	lr

080008cc <__udivmoddi4>:
 80008cc:	e92d 47f0 	stmdb	sp!, {r4, r5, r6, r7, r8, r9, sl, lr}
 80008d0:	9d08      	ldr	r5, [sp, #32]
 80008d2:	4604      	mov	r4, r0
 80008d4:	468e      	mov	lr, r1
 80008d6:	2b00      	cmp	r3, #0
 80008d8:	d14d      	bne.n	8000976 <__udivmoddi4+0xaa>
 80008da:	428a      	cmp	r2, r1
 80008dc:	4694      	mov	ip, r2
 80008de:	d969      	bls.n	80009b4 <__udivmoddi4+0xe8>
 80008e0:	fab2 f282 	clz	r2, r2
 80008e4:	b152      	cbz	r2, 80008fc <__udivmoddi4+0x30>
 80008e6:	fa01 f302 	lsl.w	r3, r1, r2
 80008ea:	f1c2 0120 	rsb	r1, r2, #32
 80008ee:	fa20 f101 	lsr.w	r1, r0, r1
 80008f2:	fa0c fc02 	lsl.w	ip, ip, r2
 80008f6:	ea41 0e03 	orr.w	lr, r1, r3
 80008fa:	4094      	lsls	r4, r2
 80008fc:	ea4f 481c 	mov.w	r8, ip, lsr #16
 8000900:	0c21      	lsrs	r1, r4, #16
 8000902:	fbbe f6f8 	udiv	r6, lr, r8
 8000906:	fa1f f78c 	uxth.w	r7, ip
 800090a:	fb08 e316 	mls	r3, r8, r6, lr
 800090e:	ea41 4303 	orr.w	r3, r1, r3, lsl #16
 8000912:	fb06 f107 	mul.w	r1, r6, r7
 8000916:	4299      	cmp	r1, r3
 8000918:	d90a      	bls.n	8000930 <__udivmoddi4+0x64>
 800091a:	eb1c 0303 	adds.w	r3, ip, r3
 800091e:	f106 30ff 	add.w	r0, r6, #4294967295
 8000922:	f080 811f 	bcs.w	8000b64 <__udivmoddi4+0x298>
 8000926:	4299      	cmp	r1, r3
 8000928:	f240 811c 	bls.w	8000b64 <__udivmoddi4+0x298>
 800092c:	3e02      	subs	r6, #2
 800092e:	4463      	add	r3, ip
 8000930:	1a5b      	subs	r3, r3, r1
 8000932:	b2a4      	uxth	r4, r4
 8000934:	fbb3 f0f8 	udiv	r0, r3, r8
 8000938:	fb08 3310 	mls	r3, r8, r0, r3
 800093c:	ea44 4403 	orr.w	r4, r4, r3, lsl #16
 8000940:	fb00 f707 	mul.w	r7, r0, r7
 8000944:	42a7      	cmp	r7, r4
 8000946:	d90a      	bls.n	800095e <__udivmoddi4+0x92>
 8000948:	eb1c 0404 	adds.w	r4, ip, r4
 800094c:	f100 33ff 	add.w	r3, r0, #4294967295
 8000950:	f080 810a 	bcs.w	8000b68 <__udivmoddi4+0x29c>
 8000954:	42a7      	cmp	r7, r4
 8000956:	f240 8107 	bls.w	8000b68 <__udivmoddi4+0x29c>
 800095a:	4464      	add	r4, ip
 800095c:	3802      	subs	r0, #2
 800095e:	ea40 4006 	orr.w	r0, r0, r6, lsl #16
 8000962:	1be4      	subs	r4, r4, r7
 8000964:	2600      	movs	r6, #0
 8000966:	b11d      	cbz	r5, 8000970 <__udivmoddi4+0xa4>
 8000968:	40d4      	lsrs	r4, r2
 800096a:	2300      	movs	r3, #0
 800096c:	e9c5 4300 	strd	r4, r3, [r5]
 8000970:	4631      	mov	r1, r6
 8000972:	e8bd 87f0 	ldmia.w	sp!, {r4, r5, r6, r7, r8, r9, sl, pc}
 8000976:	428b      	cmp	r3, r1
 8000978:	d909      	bls.n	800098e <__udivmoddi4+0xc2>
 800097a:	2d00      	cmp	r5, #0
 800097c:	f000 80ef 	beq.w	8000b5e <__udivmoddi4+0x292>
 8000980:	2600      	movs	r6, #0
 8000982:	e9c5 0100 	strd	r0, r1, [r5]
 8000986:	4630      	mov	r0, r6
 8000988:	4631      	mov	r1, r6
 800098a:	e8bd 87f0 	ldmia.w	sp!, {r4, r5, r6, r7, r8, r9, sl, pc}
 800098e:	fab3 f683 	clz	r6, r3
 8000992:	2e00      	cmp	r6, #0
 8000994:	d14a      	bne.n	8000a2c <__udivmoddi4+0x160>
 8000996:	428b      	cmp	r3, r1
 8000998:	d302      	bcc.n	80009a0 <__udivmoddi4+0xd4>
 800099a:	4282      	cmp	r2, r0
 800099c:	f200 80f9 	bhi.w	8000b92 <__udivmoddi4+0x2c6>
 80009a0:	1a84      	subs	r4, r0, r2
 80009a2:	eb61 0303 	sbc.w	r3, r1, r3
 80009a6:	2001      	movs	r0, #1
 80009a8:	469e      	mov	lr, r3
 80009aa:	2d00      	cmp	r5, #0
 80009ac:	d0e0      	beq.n	8000970 <__udivmoddi4+0xa4>
 80009ae:	e9c5 4e00 	strd	r4, lr, [r5]
 80009b2:	e7dd      	b.n	8000970 <__udivmoddi4+0xa4>
 80009b4:	b902      	cbnz	r2, 80009b8 <__udivmoddi4+0xec>
 80009b6:	deff      	udf	#255	; 0xff
 80009b8:	fab2 f282 	clz	r2, r2
 80009bc:	2a00      	cmp	r2, #0
 80009be:	f040 8092 	bne.w	8000ae6 <__udivmoddi4+0x21a>
 80009c2:	eba1 010c 	sub.w	r1, r1, ip
 80009c6:	ea4f 471c 	mov.w	r7, ip, lsr #16
 80009ca:	fa1f fe8c 	uxth.w	lr, ip
 80009ce:	2601      	movs	r6, #1
 80009d0:	0c20      	lsrs	r0, r4, #16
 80009d2:	fbb1 f3f7 	udiv	r3, r1, r7
 80009d6:	fb07 1113 	mls	r1, r7, r3, r1
 80009da:	ea40 4101 	orr.w	r1, r0, r1, lsl #16
 80009de:	fb0e f003 	mul.w	r0, lr, r3
 80009e2:	4288      	cmp	r0, r1
 80009e4:	d908      	bls.n	80009f8 <__udivmoddi4+0x12c>
 80009e6:	eb1c 0101 	adds.w	r1, ip, r1
 80009ea:	f103 38ff 	add.w	r8, r3, #4294967295
 80009ee:	d202      	bcs.n	80009f6 <__udivmoddi4+0x12a>
 80009f0:	4288      	cmp	r0, r1
 80009f2:	f200 80cb 	bhi.w	8000b8c <__udivmoddi4+0x2c0>
 80009f6:	4643      	mov	r3, r8
 80009f8:	1a09      	subs	r1, r1, r0
 80009fa:	b2a4      	uxth	r4, r4
 80009fc:	fbb1 f0f7 	udiv	r0, r1, r7
 8000a00:	fb07 1110 	mls	r1, r7, r0, r1
 8000a04:	ea44 4401 	orr.w	r4, r4, r1, lsl #16
 8000a08:	fb0e fe00 	mul.w	lr, lr, r0
 8000a0c:	45a6      	cmp	lr, r4
 8000a0e:	d908      	bls.n	8000a22 <__udivmoddi4+0x156>
 8000a10:	eb1c 0404 	adds.w	r4, ip, r4
 8000a14:	f100 31ff 	add.w	r1, r0, #4294967295
 8000a18:	d202      	bcs.n	8000a20 <__udivmoddi4+0x154>
 8000a1a:	45a6      	cmp	lr, r4
 8000a1c:	f200 80bb 	bhi.w	8000b96 <__udivmoddi4+0x2ca>
 8000a20:	4608      	mov	r0, r1
 8000a22:	eba4 040e 	sub.w	r4, r4, lr
 8000a26:	ea40 4003 	orr.w	r0, r0, r3, lsl #16
 8000a2a:	e79c      	b.n	8000966 <__udivmoddi4+0x9a>
 8000a2c:	f1c6 0720 	rsb	r7, r6, #32
 8000a30:	40b3      	lsls	r3, r6
 8000a32:	fa22 fc07 	lsr.w	ip, r2, r7
 8000a36:	ea4c 0c03 	orr.w	ip, ip, r3
 8000a3a:	fa20 f407 	lsr.w	r4, r0, r7
 8000a3e:	fa01 f306 	lsl.w	r3, r1, r6
 8000a42:	431c      	orrs	r4, r3
 8000a44:	40f9      	lsrs	r1, r7
 8000a46:	ea4f 491c 	mov.w	r9, ip, lsr #16
 8000a4a:	fa00 f306 	lsl.w	r3, r0, r6
 8000a4e:	fbb1 f8f9 	udiv	r8, r1, r9
 8000a52:	0c20      	lsrs	r0, r4, #16
 8000a54:	fa1f fe8c 	uxth.w	lr, ip
 8000a58:	fb09 1118 	mls	r1, r9, r8, r1
 8000a5c:	ea40 4101 	orr.w	r1, r0, r1, lsl #16
 8000a60:	fb08 f00e 	mul.w	r0, r8, lr
 8000a64:	4288      	cmp	r0, r1
 8000a66:	fa02 f206 	lsl.w	r2, r2, r6
 8000a6a:	d90b      	bls.n	8000a84 <__udivmoddi4+0x1b8>
 8000a6c:	eb1c 0101 	adds.w	r1, ip, r1
 8000a70:	f108 3aff 	add.w	sl, r8, #4294967295
 8000a74:	f080 8088 	bcs.w	8000b88 <__udivmoddi4+0x2bc>
 8000a78:	4288      	cmp	r0, r1
 8000a7a:	f240 8085 	bls.w	8000b88 <__udivmoddi4+0x2bc>
 8000a7e:	f1a8 0802 	sub.w	r8, r8, #2
 8000a82:	4461      	add	r1, ip
 8000a84:	1a09      	subs	r1, r1, r0
 8000a86:	b2a4      	uxth	r4, r4
 8000a88:	fbb1 f0f9 	udiv	r0, r1, r9
 8000a8c:	fb09 1110 	mls	r1, r9, r0, r1
 8000a90:	ea44 4101 	orr.w	r1, r4, r1, lsl #16
 8000a94:	fb00 fe0e 	mul.w	lr, r0, lr
 8000a98:	458e      	cmp	lr, r1
 8000a9a:	d908      	bls.n	8000aae <__udivmoddi4+0x1e2>
 8000a9c:	eb1c 0101 	adds.w	r1, ip, r1
 8000aa0:	f100 34ff 	add.w	r4, r0, #4294967295
 8000aa4:	d26c      	bcs.n	8000b80 <__udivmoddi4+0x2b4>
 8000aa6:	458e      	cmp	lr, r1
 8000aa8:	d96a      	bls.n	8000b80 <__udivmoddi4+0x2b4>
 8000aaa:	3802      	subs	r0, #2
 8000aac:	4461      	add	r1, ip
 8000aae:	ea40 4008 	orr.w	r0, r0, r8, lsl #16
 8000ab2:	fba0 9402 	umull	r9, r4, r0, r2
 8000ab6:	eba1 010e 	sub.w	r1, r1, lr
 8000aba:	42a1      	cmp	r1, r4
 8000abc:	46c8      	mov	r8, r9
 8000abe:	46a6      	mov	lr, r4
 8000ac0:	d356      	bcc.n	8000b70 <__udivmoddi4+0x2a4>
 8000ac2:	d053      	beq.n	8000b6c <__udivmoddi4+0x2a0>
 8000ac4:	b15d      	cbz	r5, 8000ade <__udivmoddi4+0x212>
 8000ac6:	ebb3 0208 	subs.w	r2, r3, r8
 8000aca:	eb61 010e 	sbc.w	r1, r1, lr
 8000ace:	fa01 f707 	lsl.w	r7, r1, r7
 8000ad2:	fa22 f306 	lsr.w	r3, r2, r6
 8000ad6:	40f1      	lsrs	r1, r6
 8000ad8:	431f      	orrs	r7, r3
 8000ada:	e9c5 7100 	strd	r7, r1, [r5]
 8000ade:	2600      	movs	r6, #0
 8000ae0:	4631      	mov	r1, r6
 8000ae2:	e8bd 87f0 	ldmia.w	sp!, {r4, r5, r6, r7, r8, r9, sl, pc}
 8000ae6:	f1c2 0320 	rsb	r3, r2, #32
 8000aea:	40d8      	lsrs	r0, r3
 8000aec:	fa0c fc02 	lsl.w	ip, ip, r2
 8000af0:	fa21 f303 	lsr.w	r3, r1, r3
 8000af4:	4091      	lsls	r1, r2
 8000af6:	4301      	orrs	r1, r0
 8000af8:	ea4f 471c 	mov.w	r7, ip, lsr #16
 8000afc:	fa1f fe8c 	uxth.w	lr, ip
 8000b00:	fbb3 f0f7 	udiv	r0, r3, r7
 8000b04:	fb07 3610 	mls	r6, r7, r0, r3
 8000b08:	0c0b      	lsrs	r3, r1, #16
 8000b0a:	ea43 4306 	orr.w	r3, r3, r6, lsl #16
 8000b0e:	fb00 f60e 	mul.w	r6, r0, lr
 8000b12:	429e      	cmp	r6, r3
 8000b14:	fa04 f402 	lsl.w	r4, r4, r2
 8000b18:	d908      	bls.n	8000b2c <__udivmoddi4+0x260>
 8000b1a:	eb1c 0303 	adds.w	r3, ip, r3
 8000b1e:	f100 38ff 	add.w	r8, r0, #4294967295
 8000b22:	d22f      	bcs.n	8000b84 <__udivmoddi4+0x2b8>
 8000b24:	429e      	cmp	r6, r3
 8000b26:	d92d      	bls.n	8000b84 <__udivmoddi4+0x2b8>
 8000b28:	3802      	subs	r0, #2
 8000b2a:	4463      	add	r3, ip
 8000b2c:	1b9b      	subs	r3, r3, r6
 8000b2e:	b289      	uxth	r1, r1
 8000b30:	fbb3 f6f7 	udiv	r6, r3, r7
 8000b34:	fb07 3316 	mls	r3, r7, r6, r3
 8000b38:	ea41 4103 	orr.w	r1, r1, r3, lsl #16
 8000b3c:	fb06 f30e 	mul.w	r3, r6, lr
 8000b40:	428b      	cmp	r3, r1
 8000b42:	d908      	bls.n	8000b56 <__udivmoddi4+0x28a>
 8000b44:	eb1c 0101 	adds.w	r1, ip, r1
 8000b48:	f106 38ff 	add.w	r8, r6, #4294967295
 8000b4c:	d216      	bcs.n	8000b7c <__udivmoddi4+0x2b0>
 8000b4e:	428b      	cmp	r3, r1
 8000b50:	d914      	bls.n	8000b7c <__udivmoddi4+0x2b0>
 8000b52:	3e02      	subs	r6, #2
 8000b54:	4461      	add	r1, ip
 8000b56:	1ac9      	subs	r1, r1, r3
 8000b58:	ea46 4600 	orr.w	r6, r6, r0, lsl #16
 8000b5c:	e738      	b.n	80009d0 <__udivmoddi4+0x104>
 8000b5e:	462e      	mov	r6, r5
 8000b60:	4628      	mov	r0, r5
 8000b62:	e705      	b.n	8000970 <__udivmoddi4+0xa4>
 8000b64:	4606      	mov	r6, r0
 8000b66:	e6e3      	b.n	8000930 <__udivmoddi4+0x64>
 8000b68:	4618      	mov	r0, r3
 8000b6a:	e6f8      	b.n	800095e <__udivmoddi4+0x92>
 8000b6c:	454b      	cmp	r3, r9
 8000b6e:	d2a9      	bcs.n	8000ac4 <__udivmoddi4+0x1f8>
 8000b70:	ebb9 0802 	subs.w	r8, r9, r2
 8000b74:	eb64 0e0c 	sbc.w	lr, r4, ip
 8000b78:	3801      	subs	r0, #1
 8000b7a:	e7a3      	b.n	8000ac4 <__udivmoddi4+0x1f8>
 8000b7c:	4646      	mov	r6, r8
 8000b7e:	e7ea      	b.n	8000b56 <__udivmoddi4+0x28a>
 8000b80:	4620      	mov	r0, r4
 8000b82:	e794      	b.n	8000aae <__udivmoddi4+0x1e2>
 8000b84:	4640      	mov	r0, r8
 8000b86:	e7d1      	b.n	8000b2c <__udivmoddi4+0x260>
 8000b88:	46d0      	mov	r8, sl
 8000b8a:	e77b      	b.n	8000a84 <__udivmoddi4+0x1b8>
 8000b8c:	3b02      	subs	r3, #2
 8000b8e:	4461      	add	r1, ip
 8000b90:	e732      	b.n	80009f8 <__udivmoddi4+0x12c>
 8000b92:	4630      	mov	r0, r6
 8000b94:	e709      	b.n	80009aa <__udivmoddi4+0xde>
 8000b96:	4464      	add	r4, ip
 8000b98:	3802      	subs	r0, #2
 8000b9a:	e742      	b.n	8000a22 <__udivmoddi4+0x156>

08000b9c <__aeabi_idiv0>:
 8000b9c:	4770      	bx	lr
 8000b9e:	bf00      	nop

08000ba0 <HAL_ADC_ConvCpltCallback>:
int counter;
int settings = 0;
char time_h [2]; //Mostrar hora en display
char time_m [2]; //Mostrar minutos en display

void HAL_ADC_ConvCpltCallback (ADC_HandleTypeDef * hadc){
 8000ba0:	b480      	push	{r7}
 8000ba2:	b083      	sub	sp, #12
 8000ba4:	af00      	add	r7, sp, #0
 8000ba6:	6078      	str	r0, [r7, #4]
	if (hadc->Instance == ADC1){
 8000ba8:	687b      	ldr	r3, [r7, #4]
 8000baa:	681b      	ldr	r3, [r3, #0]
 8000bac:	4a08      	ldr	r2, [pc, #32]	; (8000bd0 <HAL_ADC_ConvCpltCallback+0x30>)
 8000bae:	4293      	cmp	r3, r2
 8000bb0:	d107      	bne.n	8000bc2 <HAL_ADC_ConvCpltCallback+0x22>
		ADC_value[0]=ADC_buffer[0]; // Nivel
 8000bb2:	4b08      	ldr	r3, [pc, #32]	; (8000bd4 <HAL_ADC_ConvCpltCallback+0x34>)
 8000bb4:	881a      	ldrh	r2, [r3, #0]
 8000bb6:	4b08      	ldr	r3, [pc, #32]	; (8000bd8 <HAL_ADC_ConvCpltCallback+0x38>)
 8000bb8:	801a      	strh	r2, [r3, #0]
		ADC_value[1]=ADC_buffer[1]; // Tierra
 8000bba:	4b06      	ldr	r3, [pc, #24]	; (8000bd4 <HAL_ADC_ConvCpltCallback+0x34>)
 8000bbc:	885a      	ldrh	r2, [r3, #2]
 8000bbe:	4b06      	ldr	r3, [pc, #24]	; (8000bd8 <HAL_ADC_ConvCpltCallback+0x38>)
 8000bc0:	805a      	strh	r2, [r3, #2]
	}
}
 8000bc2:	bf00      	nop
 8000bc4:	370c      	adds	r7, #12
 8000bc6:	46bd      	mov	sp, r7
 8000bc8:	f85d 7b04 	ldr.w	r7, [sp], #4
 8000bcc:	4770      	bx	lr
 8000bce:	bf00      	nop
 8000bd0:	40012000 	.word	0x40012000
 8000bd4:	20000248 	.word	0x20000248
 8000bd8:	20000244 	.word	0x20000244

08000bdc <detec_lvl>:

int detec_lvl(uint16_t valor){ // nivel del deposito
 8000bdc:	b480      	push	{r7}
 8000bde:	b083      	sub	sp, #12
 8000be0:	af00      	add	r7, sp, #0
 8000be2:	4603      	mov	r3, r0
 8000be4:	80fb      	strh	r3, [r7, #6]
	if ( valor >=4000)
 8000be6:	88fb      	ldrh	r3, [r7, #6]
 8000be8:	f5b3 6f7a 	cmp.w	r3, #4000	; 0xfa0
 8000bec:	d301      	bcc.n	8000bf2 <detec_lvl+0x16>
		return 3;//50<x<100%
 8000bee:	2303      	movs	r3, #3
 8000bf0:	e015      	b.n	8000c1e <detec_lvl+0x42>
	else if (valor<4000 && valor>=3500)
 8000bf2:	88fb      	ldrh	r3, [r7, #6]
 8000bf4:	f5b3 6f7a 	cmp.w	r3, #4000	; 0xfa0
 8000bf8:	d206      	bcs.n	8000c08 <detec_lvl+0x2c>
 8000bfa:	88fb      	ldrh	r3, [r7, #6]
 8000bfc:	f640 52ab 	movw	r2, #3499	; 0xdab
 8000c00:	4293      	cmp	r3, r2
 8000c02:	d901      	bls.n	8000c08 <detec_lvl+0x2c>
		return 2;//<=25<x<50%
 8000c04:	2302      	movs	r3, #2
 8000c06:	e00a      	b.n	8000c1e <detec_lvl+0x42>
	else if(valor<3500 && valor>200)
 8000c08:	88fb      	ldrh	r3, [r7, #6]
 8000c0a:	f640 52ab 	movw	r2, #3499	; 0xdab
 8000c0e:	4293      	cmp	r3, r2
 8000c10:	d804      	bhi.n	8000c1c <detec_lvl+0x40>
 8000c12:	88fb      	ldrh	r3, [r7, #6]
 8000c14:	2bc8      	cmp	r3, #200	; 0xc8
 8000c16:	d901      	bls.n	8000c1c <detec_lvl+0x40>
		return 1;//<=25%
 8000c18:	2301      	movs	r3, #1
 8000c1a:	e000      	b.n	8000c1e <detec_lvl+0x42>
	else
		return 0;//0%
 8000c1c:	2300      	movs	r3, #0
}
 8000c1e:	4618      	mov	r0, r3
 8000c20:	370c      	adds	r7, #12
 8000c22:	46bd      	mov	sp, r7
 8000c24:	f85d 7b04 	ldr.w	r7, [sp], #4
 8000c28:	4770      	bx	lr
	...

08000c2c <humedad>:

int humedad(int medida){ //porcentaje de humedad
 8000c2c:	b480      	push	{r7}
 8000c2e:	b085      	sub	sp, #20
 8000c30:	af00      	add	r7, sp, #0
 8000c32:	6078      	str	r0, [r7, #4]
float porce=0;
 8000c34:	f04f 0300 	mov.w	r3, #0
 8000c38:	60fb      	str	r3, [r7, #12]
float num=0;
 8000c3a:	f04f 0300 	mov.w	r3, #0
 8000c3e:	60bb      	str	r3, [r7, #8]
	if(medida<1000)
 8000c40:	687b      	ldr	r3, [r7, #4]
 8000c42:	f5b3 7f7a 	cmp.w	r3, #1000	; 0x3e8
 8000c46:	da01      	bge.n	8000c4c <humedad+0x20>
	{
		return 0;// 0% de humedad
 8000c48:	2300      	movs	r3, #0
 8000c4a:	e01a      	b.n	8000c82 <humedad+0x56>
	} else {
		num=(medida-1000);
 8000c4c:	687b      	ldr	r3, [r7, #4]
 8000c4e:	f5a3 737a 	sub.w	r3, r3, #1000	; 0x3e8
 8000c52:	ee07 3a90 	vmov	s15, r3
 8000c56:	eef8 7ae7 	vcvt.f32.s32	s15, s15
 8000c5a:	edc7 7a02 	vstr	s15, [r7, #8]
		porce=((num/(4095-1000))*100);
 8000c5e:	ed97 7a02 	vldr	s14, [r7, #8]
 8000c62:	eddf 6a0b 	vldr	s13, [pc, #44]	; 8000c90 <humedad+0x64>
 8000c66:	eec7 7a26 	vdiv.f32	s15, s14, s13
 8000c6a:	ed9f 7a0a 	vldr	s14, [pc, #40]	; 8000c94 <humedad+0x68>
 8000c6e:	ee67 7a87 	vmul.f32	s15, s15, s14
 8000c72:	edc7 7a03 	vstr	s15, [r7, #12]
		return (int)porce;
 8000c76:	edd7 7a03 	vldr	s15, [r7, #12]
 8000c7a:	eefd 7ae7 	vcvt.s32.f32	s15, s15
 8000c7e:	ee17 3a90 	vmov	r3, s15
	}
}
 8000c82:	4618      	mov	r0, r3
 8000c84:	3714      	adds	r7, #20
 8000c86:	46bd      	mov	sp, r7
 8000c88:	f85d 7b04 	ldr.w	r7, [sp], #4
 8000c8c:	4770      	bx	lr
 8000c8e:	bf00      	nop
 8000c90:	45417000 	.word	0x45417000
 8000c94:	42c80000 	.word	0x42c80000

08000c98 <HAL_GPIO_EXTI_Callback>:

void HAL_GPIO_EXTI_Callback(uint16_t GPIO_Pin){
 8000c98:	b580      	push	{r7, lr}
 8000c9a:	b082      	sub	sp, #8
 8000c9c:	af00      	add	r7, sp, #0
 8000c9e:	4603      	mov	r3, r0
 8000ca0:	80fb      	strh	r3, [r7, #6]
    if (GPIO_Pin==GPIO_PIN_0 && (HAL_GetTick()-ultima_pulsacion)>T_DEBOUNCER){
 8000ca2:	88fb      	ldrh	r3, [r7, #6]
 8000ca4:	2b01      	cmp	r3, #1
 8000ca6:	d123      	bne.n	8000cf0 <HAL_GPIO_EXTI_Callback+0x58>
 8000ca8:	f001 fb58 	bl	800235c <HAL_GetTick>
 8000cac:	4603      	mov	r3, r0
 8000cae:	4a12      	ldr	r2, [pc, #72]	; (8000cf8 <HAL_GPIO_EXTI_Callback+0x60>)
 8000cb0:	6812      	ldr	r2, [r2, #0]
 8000cb2:	1a9b      	subs	r3, r3, r2
 8000cb4:	f5b3 7ffa 	cmp.w	r3, #500	; 0x1f4
 8000cb8:	d91a      	bls.n	8000cf0 <HAL_GPIO_EXTI_Callback+0x58>
    	if (flag_riego == 0){
 8000cba:	4b10      	ldr	r3, [pc, #64]	; (8000cfc <HAL_GPIO_EXTI_Callback+0x64>)
 8000cbc:	681b      	ldr	r3, [r3, #0]
 8000cbe:	2b00      	cmp	r3, #0
 8000cc0:	d103      	bne.n	8000cca <HAL_GPIO_EXTI_Callback+0x32>
    		flag_boton = 1; //Si se pulsa el boton cuando no se esta regando
 8000cc2:	4b0f      	ldr	r3, [pc, #60]	; (8000d00 <HAL_GPIO_EXTI_Callback+0x68>)
 8000cc4:	2201      	movs	r2, #1
 8000cc6:	601a      	str	r2, [r3, #0]
 8000cc8:	e00c      	b.n	8000ce4 <HAL_GPIO_EXTI_Callback+0x4c>
    	} else {
    		flag_riego = 0; //Si se pulsa el boton mientras se esta regando se para de regar
 8000cca:	4b0c      	ldr	r3, [pc, #48]	; (8000cfc <HAL_GPIO_EXTI_Callback+0x64>)
 8000ccc:	2200      	movs	r2, #0
 8000cce:	601a      	str	r2, [r3, #0]
    		HAL_TIM_OC_Stop_IT(&htim1, TIM_CHANNEL_2);
 8000cd0:	2104      	movs	r1, #4
 8000cd2:	480c      	ldr	r0, [pc, #48]	; (8000d04 <HAL_GPIO_EXTI_Callback+0x6c>)
 8000cd4:	f004 f9d2 	bl	800507c <HAL_TIM_OC_Stop_IT>
    		ultima_vez = HAL_GetTick();
 8000cd8:	f001 fb40 	bl	800235c <HAL_GetTick>
 8000cdc:	4603      	mov	r3, r0
 8000cde:	461a      	mov	r2, r3
 8000ce0:	4b09      	ldr	r3, [pc, #36]	; (8000d08 <HAL_GPIO_EXTI_Callback+0x70>)
 8000ce2:	601a      	str	r2, [r3, #0]
    	}
    	ultima_pulsacion = HAL_GetTick();
 8000ce4:	f001 fb3a 	bl	800235c <HAL_GetTick>
 8000ce8:	4603      	mov	r3, r0
 8000cea:	461a      	mov	r2, r3
 8000cec:	4b02      	ldr	r3, [pc, #8]	; (8000cf8 <HAL_GPIO_EXTI_Callback+0x60>)
 8000cee:	601a      	str	r2, [r3, #0]
    }
}
 8000cf0:	bf00      	nop
 8000cf2:	3708      	adds	r7, #8
 8000cf4:	46bd      	mov	sp, r7
 8000cf6:	bd80      	pop	{r7, pc}
 8000cf8:	2000027c 	.word	0x2000027c
 8000cfc:	2000024c 	.word	0x2000024c
 8000d00:	20000250 	.word	0x20000250
 8000d04:	200001b4 	.word	0x200001b4
 8000d08:	20000280 	.word	0x20000280

08000d0c <HAL_TIM_OC_DelayElapsedCallback>:

void HAL_TIM_OC_DelayElapsedCallback (TIM_HandleTypeDef* htim){
 8000d0c:	b580      	push	{r7, lr}
 8000d0e:	b082      	sub	sp, #8
 8000d10:	af00      	add	r7, sp, #0
 8000d12:	6078      	str	r0, [r7, #4]
	if (htim->Instance == TIM1){
 8000d14:	687b      	ldr	r3, [r7, #4]
 8000d16:	681b      	ldr	r3, [r3, #0]
 8000d18:	4a11      	ldr	r2, [pc, #68]	; (8000d60 <HAL_TIM_OC_DelayElapsedCallback+0x54>)
 8000d1a:	4293      	cmp	r3, r2
 8000d1c:	d11b      	bne.n	8000d56 <HAL_TIM_OC_DelayElapsedCallback+0x4a>
		if(nint==0)
 8000d1e:	4b11      	ldr	r3, [pc, #68]	; (8000d64 <HAL_TIM_OC_DelayElapsedCallback+0x58>)
 8000d20:	681b      	ldr	r3, [r3, #0]
 8000d22:	2b00      	cmp	r3, #0
 8000d24:	d103      	bne.n	8000d2e <HAL_TIM_OC_DelayElapsedCallback+0x22>
			nint=1;
 8000d26:	4b0f      	ldr	r3, [pc, #60]	; (8000d64 <HAL_TIM_OC_DelayElapsedCallback+0x58>)
 8000d28:	2201      	movs	r2, #1
 8000d2a:	601a      	str	r2, [r3, #0]
					HAL_TIM_OC_Stop_IT(&htim1, TIM_CHANNEL_2);
					__HAL_TIM_SET_COUNTER(&htim1, 0);
					ultima_vez = HAL_GetTick();
		}
	}
}
 8000d2c:	e013      	b.n	8000d56 <HAL_TIM_OC_DelayElapsedCallback+0x4a>
		{	nint=0;
 8000d2e:	4b0d      	ldr	r3, [pc, #52]	; (8000d64 <HAL_TIM_OC_DelayElapsedCallback+0x58>)
 8000d30:	2200      	movs	r2, #0
 8000d32:	601a      	str	r2, [r3, #0]
			flag_riego = 0;
 8000d34:	4b0c      	ldr	r3, [pc, #48]	; (8000d68 <HAL_TIM_OC_DelayElapsedCallback+0x5c>)
 8000d36:	2200      	movs	r2, #0
 8000d38:	601a      	str	r2, [r3, #0]
					HAL_TIM_OC_Stop_IT(&htim1, TIM_CHANNEL_2);
 8000d3a:	2104      	movs	r1, #4
 8000d3c:	480b      	ldr	r0, [pc, #44]	; (8000d6c <HAL_TIM_OC_DelayElapsedCallback+0x60>)
 8000d3e:	f004 f99d 	bl	800507c <HAL_TIM_OC_Stop_IT>
					__HAL_TIM_SET_COUNTER(&htim1, 0);
 8000d42:	4b0a      	ldr	r3, [pc, #40]	; (8000d6c <HAL_TIM_OC_DelayElapsedCallback+0x60>)
 8000d44:	681b      	ldr	r3, [r3, #0]
 8000d46:	2200      	movs	r2, #0
 8000d48:	625a      	str	r2, [r3, #36]	; 0x24
					ultima_vez = HAL_GetTick();
 8000d4a:	f001 fb07 	bl	800235c <HAL_GetTick>
 8000d4e:	4603      	mov	r3, r0
 8000d50:	461a      	mov	r2, r3
 8000d52:	4b07      	ldr	r3, [pc, #28]	; (8000d70 <HAL_TIM_OC_DelayElapsedCallback+0x64>)
 8000d54:	601a      	str	r2, [r3, #0]
}
 8000d56:	bf00      	nop
 8000d58:	3708      	adds	r7, #8
 8000d5a:	46bd      	mov	sp, r7
 8000d5c:	bd80      	pop	{r7, pc}
 8000d5e:	bf00      	nop
 8000d60:	40010000 	.word	0x40010000
 8000d64:	20000284 	.word	0x20000284
 8000d68:	2000024c 	.word	0x2000024c
 8000d6c:	200001b4 	.word	0x200001b4
 8000d70:	20000280 	.word	0x20000280

08000d74 <HAL_TIM_PeriodElapsedCallback>:

void HAL_TIM_PeriodElapsedCallback(TIM_HandleTypeDef *htim){
 8000d74:	b580      	push	{r7, lr}
 8000d76:	b086      	sub	sp, #24
 8000d78:	af00      	add	r7, sp, #0
 8000d7a:	6078      	str	r0, [r7, #4]
	if (htim->Instance == TIM2){
 8000d7c:	687b      	ldr	r3, [r7, #4]
 8000d7e:	681b      	ldr	r3, [r3, #0]
 8000d80:	f1b3 4f80 	cmp.w	r3, #1073741824	; 0x40000000
 8000d84:	d13a      	bne.n	8000dfc <HAL_TIM_PeriodElapsedCallback+0x88>
				lcd_update(texto_pantalla);
 8000d86:	481f      	ldr	r0, [pc, #124]	; (8000e04 <HAL_TIM_PeriodElapsedCallback+0x90>)
 8000d88:	f001 f810 	bl	8001dac <lcd_update>
		__HAL_TIM_SET_COUNTER(&htim2, 0);
 8000d8c:	4b1e      	ldr	r3, [pc, #120]	; (8000e08 <HAL_TIM_PeriodElapsedCallback+0x94>)
 8000d8e:	681b      	ldr	r3, [r3, #0]
 8000d90:	2200      	movs	r2, #0
 8000d92:	625a      	str	r2, [r3, #36]	; 0x24

		//Guardar las medidas de humedad
		for (int i = 0; i < NUM_MEDIDAS-1; i++)
 8000d94:	2300      	movs	r3, #0
 8000d96:	617b      	str	r3, [r7, #20]
 8000d98:	e00b      	b.n	8000db2 <HAL_TIM_PeriodElapsedCallback+0x3e>
			ultimas_medidas[i] = ultimas_medidas[i+1];
 8000d9a:	697b      	ldr	r3, [r7, #20]
 8000d9c:	3301      	adds	r3, #1
 8000d9e:	4a1b      	ldr	r2, [pc, #108]	; (8000e0c <HAL_TIM_PeriodElapsedCallback+0x98>)
 8000da0:	f852 2023 	ldr.w	r2, [r2, r3, lsl #2]
 8000da4:	4919      	ldr	r1, [pc, #100]	; (8000e0c <HAL_TIM_PeriodElapsedCallback+0x98>)
 8000da6:	697b      	ldr	r3, [r7, #20]
 8000da8:	f841 2023 	str.w	r2, [r1, r3, lsl #2]
		for (int i = 0; i < NUM_MEDIDAS-1; i++)
 8000dac:	697b      	ldr	r3, [r7, #20]
 8000dae:	3301      	adds	r3, #1
 8000db0:	617b      	str	r3, [r7, #20]
 8000db2:	697b      	ldr	r3, [r7, #20]
 8000db4:	2b08      	cmp	r3, #8
 8000db6:	ddf0      	ble.n	8000d9a <HAL_TIM_PeriodElapsedCallback+0x26>
		ultimas_medidas[NUM_MEDIDAS-1] = humedad(ADC_value[1]);
 8000db8:	4b15      	ldr	r3, [pc, #84]	; (8000e10 <HAL_TIM_PeriodElapsedCallback+0x9c>)
 8000dba:	885b      	ldrh	r3, [r3, #2]
 8000dbc:	4618      	mov	r0, r3
 8000dbe:	f7ff ff35 	bl	8000c2c <humedad>
 8000dc2:	4603      	mov	r3, r0
 8000dc4:	461a      	mov	r2, r3
 8000dc6:	4b11      	ldr	r3, [pc, #68]	; (8000e0c <HAL_TIM_PeriodElapsedCallback+0x98>)
 8000dc8:	625a      	str	r2, [r3, #36]	; 0x24

		//Cacular la media
		uint32_t sumatorio = 0;
 8000dca:	2300      	movs	r3, #0
 8000dcc:	613b      	str	r3, [r7, #16]
		for (int i = 0; i < NUM_MEDIDAS ; i++)
 8000dce:	2300      	movs	r3, #0
 8000dd0:	60fb      	str	r3, [r7, #12]
 8000dd2:	e009      	b.n	8000de8 <HAL_TIM_PeriodElapsedCallback+0x74>
			sumatorio += ultimas_medidas[i];
 8000dd4:	4a0d      	ldr	r2, [pc, #52]	; (8000e0c <HAL_TIM_PeriodElapsedCallback+0x98>)
 8000dd6:	68fb      	ldr	r3, [r7, #12]
 8000dd8:	f852 3023 	ldr.w	r3, [r2, r3, lsl #2]
 8000ddc:	693a      	ldr	r2, [r7, #16]
 8000dde:	4413      	add	r3, r2
 8000de0:	613b      	str	r3, [r7, #16]
		for (int i = 0; i < NUM_MEDIDAS ; i++)
 8000de2:	68fb      	ldr	r3, [r7, #12]
 8000de4:	3301      	adds	r3, #1
 8000de6:	60fb      	str	r3, [r7, #12]
 8000de8:	68fb      	ldr	r3, [r7, #12]
 8000dea:	2b09      	cmp	r3, #9
 8000dec:	ddf2      	ble.n	8000dd4 <HAL_TIM_PeriodElapsedCallback+0x60>
		media = sumatorio / NUM_MEDIDAS;
 8000dee:	693b      	ldr	r3, [r7, #16]
 8000df0:	4a08      	ldr	r2, [pc, #32]	; (8000e14 <HAL_TIM_PeriodElapsedCallback+0xa0>)
 8000df2:	fba2 2303 	umull	r2, r3, r2, r3
 8000df6:	08db      	lsrs	r3, r3, #3
 8000df8:	4a07      	ldr	r2, [pc, #28]	; (8000e18 <HAL_TIM_PeriodElapsedCallback+0xa4>)
 8000dfa:	6013      	str	r3, [r2, #0]
	}
}
 8000dfc:	bf00      	nop
 8000dfe:	3718      	adds	r7, #24
 8000e00:	46bd      	mov	sp, r7
 8000e02:	bd80      	pop	{r7, pc}
 8000e04:	2000025c 	.word	0x2000025c
 8000e08:	200001fc 	.word	0x200001fc
 8000e0c:	20000000 	.word	0x20000000
 8000e10:	20000244 	.word	0x20000244
 8000e14:	cccccccd 	.word	0xcccccccd
 8000e18:	20000258 	.word	0x20000258
 8000e1c:	00000000 	.word	0x00000000

08000e20 <main>:
/**
  * @brief  The application entry point.
  * @retval int
  */
int main(void)
{
 8000e20:	b5b0      	push	{r4, r5, r7, lr}
 8000e22:	b082      	sub	sp, #8
 8000e24:	af00      	add	r7, sp, #0
  /* USER CODE END 1 */

  /* MCU Configuration--------------------------------------------------------*/

  /* Reset of all peripherals, Initializes the Flash interface and the Systick. */
  HAL_Init();
 8000e26:	f001 fa33 	bl	8002290 <HAL_Init>

  /* USER CODE BEGIN Init */
  /* USER CODE END Init */

  /* Configure the system clock */
  SystemClock_Config();
 8000e2a:	f000 fc6d 	bl	8001708 <SystemClock_Config>
  /* USER CODE BEGIN SysInit */

  /* USER CODE END SysInit */

  /* Initialize all configured peripherals */
  MX_GPIO_Init();
 8000e2e:	f000 fe71 	bl	8001b14 <MX_GPIO_Init>
  MX_DMA_Init();
 8000e32:	f000 fe4f 	bl	8001ad4 <MX_DMA_Init>
  MX_ADC1_Init();
 8000e36:	f000 fccf 	bl	80017d8 <MX_ADC1_Init>
  MX_TIM1_Init();
 8000e3a:	f000 fd5b 	bl	80018f4 <MX_TIM1_Init>
  MX_I2C1_Init();
 8000e3e:	f000 fd2b 	bl	8001898 <MX_I2C1_Init>
  MX_TIM2_Init();
 8000e42:	f000 fdf9 	bl	8001a38 <MX_TIM2_Init>
  /* USER CODE BEGIN 2 */
  lcd_init();
 8000e46:	f000 ff3d 	bl	8001cc4 <lcd_init>

  HAL_ADC_Start_DMA(&hadc1, (uint32_t*)ADC_buffer, 2);
 8000e4a:	2202      	movs	r2, #2
 8000e4c:	49a0      	ldr	r1, [pc, #640]	; (80010d0 <main+0x2b0>)
 8000e4e:	48a1      	ldr	r0, [pc, #644]	; (80010d4 <main+0x2b4>)
 8000e50:	f001 fc08 	bl	8002664 <HAL_ADC_Start_DMA>
  strcpy(texto_pantalla, "Bienvenido al   sistema de riego");
 8000e54:	4aa0      	ldr	r2, [pc, #640]	; (80010d8 <main+0x2b8>)
 8000e56:	4ba1      	ldr	r3, [pc, #644]	; (80010dc <main+0x2bc>)
 8000e58:	4614      	mov	r4, r2
 8000e5a:	461d      	mov	r5, r3
 8000e5c:	cd0f      	ldmia	r5!, {r0, r1, r2, r3}
 8000e5e:	c40f      	stmia	r4!, {r0, r1, r2, r3}
 8000e60:	cd0f      	ldmia	r5!, {r0, r1, r2, r3}
 8000e62:	c40f      	stmia	r4!, {r0, r1, r2, r3}
 8000e64:	682b      	ldr	r3, [r5, #0]
 8000e66:	7023      	strb	r3, [r4, #0]
  lcd_update(texto_pantalla);
 8000e68:	489b      	ldr	r0, [pc, #620]	; (80010d8 <main+0x2b8>)
 8000e6a:	f000 ff9f 	bl	8001dac <lcd_update>
  uint32_t tiempo= HAL_GetTick();
 8000e6e:	f001 fa75 	bl	800235c <HAL_GetTick>
 8000e72:	6078      	str	r0, [r7, #4]
 while( (HAL_GetTick()-tiempo)<1000)
 8000e74:	e009      	b.n	8000e8a <main+0x6a>
{
	 strcpy(texto_pantalla, "Bienvenido al   sistema de riego");
 8000e76:	4a98      	ldr	r2, [pc, #608]	; (80010d8 <main+0x2b8>)
 8000e78:	4b98      	ldr	r3, [pc, #608]	; (80010dc <main+0x2bc>)
 8000e7a:	4614      	mov	r4, r2
 8000e7c:	461d      	mov	r5, r3
 8000e7e:	cd0f      	ldmia	r5!, {r0, r1, r2, r3}
 8000e80:	c40f      	stmia	r4!, {r0, r1, r2, r3}
 8000e82:	cd0f      	ldmia	r5!, {r0, r1, r2, r3}
 8000e84:	c40f      	stmia	r4!, {r0, r1, r2, r3}
 8000e86:	682b      	ldr	r3, [r5, #0]
 8000e88:	7023      	strb	r3, [r4, #0]
 while( (HAL_GetTick()-tiempo)<1000)
 8000e8a:	f001 fa67 	bl	800235c <HAL_GetTick>
 8000e8e:	4602      	mov	r2, r0
 8000e90:	687b      	ldr	r3, [r7, #4]
 8000e92:	1ad3      	subs	r3, r2, r3
 8000e94:	f5b3 7f7a 	cmp.w	r3, #1000	; 0x3e8
 8000e98:	d3ed      	bcc.n	8000e76 <main+0x56>
  //Para que el mensaje se mantenga en la patanlla 1 segundo
 }
  lcd_clear();
 8000e9a:	f000 ff94 	bl	8001dc6 <lcd_clear>
  HAL_TIM_Base_Start_IT(&htim2);
 8000e9e:	4890      	ldr	r0, [pc, #576]	; (80010e0 <main+0x2c0>)
 8000ea0:	f003 ff32 	bl	8004d08 <HAL_TIM_Base_Start_IT>

//Para instertar la hora actual
  counter = HAL_GetTick();
 8000ea4:	f001 fa5a 	bl	800235c <HAL_GetTick>
 8000ea8:	4603      	mov	r3, r0
 8000eaa:	461a      	mov	r2, r3
 8000eac:	4b8d      	ldr	r3, [pc, #564]	; (80010e4 <main+0x2c4>)
 8000eae:	601a      	str	r2, [r3, #0]
    while (!OK_hour){// Set hora
 8000eb0:	e057      	b.n	8000f62 <main+0x142>
  	  if (flag_boton){//Se incrementa 1 hora cada vez que se pulsa el boton
 8000eb2:	4b8d      	ldr	r3, [pc, #564]	; (80010e8 <main+0x2c8>)
 8000eb4:	681b      	ldr	r3, [r3, #0]
 8000eb6:	2b00      	cmp	r3, #0
 8000eb8:	d015      	beq.n	8000ee6 <main+0xc6>
    		if (intro_hour < 23){
 8000eba:	4b8c      	ldr	r3, [pc, #560]	; (80010ec <main+0x2cc>)
 8000ebc:	681b      	ldr	r3, [r3, #0]
 8000ebe:	2b16      	cmp	r3, #22
 8000ec0:	dc05      	bgt.n	8000ece <main+0xae>
    			intro_hour++;
 8000ec2:	4b8a      	ldr	r3, [pc, #552]	; (80010ec <main+0x2cc>)
 8000ec4:	681b      	ldr	r3, [r3, #0]
 8000ec6:	3301      	adds	r3, #1
 8000ec8:	4a88      	ldr	r2, [pc, #544]	; (80010ec <main+0x2cc>)
 8000eca:	6013      	str	r3, [r2, #0]
 8000ecc:	e002      	b.n	8000ed4 <main+0xb4>
    		} else {
    			intro_hour = 0; //Vuelta a 0
 8000ece:	4b87      	ldr	r3, [pc, #540]	; (80010ec <main+0x2cc>)
 8000ed0:	2200      	movs	r2, #0
 8000ed2:	601a      	str	r2, [r3, #0]
    		}
    		flag_boton = 0;
 8000ed4:	4b84      	ldr	r3, [pc, #528]	; (80010e8 <main+0x2c8>)
 8000ed6:	2200      	movs	r2, #0
 8000ed8:	601a      	str	r2, [r3, #0]
    		counter = HAL_GetTick();
 8000eda:	f001 fa3f 	bl	800235c <HAL_GetTick>
 8000ede:	4603      	mov	r3, r0
 8000ee0:	461a      	mov	r2, r3
 8000ee2:	4b80      	ldr	r3, [pc, #512]	; (80010e4 <main+0x2c4>)
 8000ee4:	601a      	str	r2, [r3, #0]
    	}
    	if (HAL_GetTick() - counter > 5000){
 8000ee6:	f001 fa39 	bl	800235c <HAL_GetTick>
 8000eea:	4603      	mov	r3, r0
 8000eec:	4a7d      	ldr	r2, [pc, #500]	; (80010e4 <main+0x2c4>)
 8000eee:	6812      	ldr	r2, [r2, #0]
 8000ef0:	1a9b      	subs	r3, r3, r2
 8000ef2:	f241 3288 	movw	r2, #5000	; 0x1388
 8000ef6:	4293      	cmp	r3, r2
 8000ef8:	d902      	bls.n	8000f00 <main+0xe0>
    		OK_hour = 1; //Si no se pulsa en 5segundos, se da por terminado el cambio de la hora
 8000efa:	4b7d      	ldr	r3, [pc, #500]	; (80010f0 <main+0x2d0>)
 8000efc:	2201      	movs	r2, #1
 8000efe:	601a      	str	r2, [r3, #0]
    	}
      //Mensaje en la pantalla
  	  if (intro_hour >= 10)
 8000f00:	4b7a      	ldr	r3, [pc, #488]	; (80010ec <main+0x2cc>)
 8000f02:	681b      	ldr	r3, [r3, #0]
 8000f04:	2b09      	cmp	r3, #9
 8000f06:	dd07      	ble.n	8000f18 <main+0xf8>
  	  	  sprintf(time_h, "%i", intro_hour);
 8000f08:	4b78      	ldr	r3, [pc, #480]	; (80010ec <main+0x2cc>)
 8000f0a:	681b      	ldr	r3, [r3, #0]
 8000f0c:	461a      	mov	r2, r3
 8000f0e:	4979      	ldr	r1, [pc, #484]	; (80010f4 <main+0x2d4>)
 8000f10:	4879      	ldr	r0, [pc, #484]	; (80010f8 <main+0x2d8>)
 8000f12:	f004 ff81 	bl	8005e18 <siprintf>
 8000f16:	e006      	b.n	8000f26 <main+0x106>
  	  else
  		  sprintf(time_h, "0%i", intro_hour);
 8000f18:	4b74      	ldr	r3, [pc, #464]	; (80010ec <main+0x2cc>)
 8000f1a:	681b      	ldr	r3, [r3, #0]
 8000f1c:	461a      	mov	r2, r3
 8000f1e:	4977      	ldr	r1, [pc, #476]	; (80010fc <main+0x2dc>)
 8000f20:	4875      	ldr	r0, [pc, #468]	; (80010f8 <main+0x2d8>)
 8000f22:	f004 ff79 	bl	8005e18 <siprintf>

    	strcpy (texto_pantalla, "Actual (hora):  ");
 8000f26:	4a6c      	ldr	r2, [pc, #432]	; (80010d8 <main+0x2b8>)
 8000f28:	4b75      	ldr	r3, [pc, #468]	; (8001100 <main+0x2e0>)
 8000f2a:	4614      	mov	r4, r2
 8000f2c:	461d      	mov	r5, r3
 8000f2e:	cd0f      	ldmia	r5!, {r0, r1, r2, r3}
 8000f30:	c40f      	stmia	r4!, {r0, r1, r2, r3}
 8000f32:	682b      	ldr	r3, [r5, #0]
 8000f34:	7023      	strb	r3, [r4, #0]
    	strcat(texto_pantalla, time_h);
 8000f36:	4970      	ldr	r1, [pc, #448]	; (80010f8 <main+0x2d8>)
 8000f38:	4867      	ldr	r0, [pc, #412]	; (80010d8 <main+0x2b8>)
 8000f3a:	f004 ff8d 	bl	8005e58 <strcat>
    	strcat(texto_pantalla, ":00           ");
 8000f3e:	4866      	ldr	r0, [pc, #408]	; (80010d8 <main+0x2b8>)
 8000f40:	f7ff f94e 	bl	80001e0 <strlen>
 8000f44:	4603      	mov	r3, r0
 8000f46:	461a      	mov	r2, r3
 8000f48:	4b63      	ldr	r3, [pc, #396]	; (80010d8 <main+0x2b8>)
 8000f4a:	4413      	add	r3, r2
 8000f4c:	4a6d      	ldr	r2, [pc, #436]	; (8001104 <main+0x2e4>)
 8000f4e:	461c      	mov	r4, r3
 8000f50:	4613      	mov	r3, r2
 8000f52:	cb07      	ldmia	r3!, {r0, r1, r2}
 8000f54:	6020      	str	r0, [r4, #0]
 8000f56:	6061      	str	r1, [r4, #4]
 8000f58:	60a2      	str	r2, [r4, #8]
 8000f5a:	881a      	ldrh	r2, [r3, #0]
 8000f5c:	789b      	ldrb	r3, [r3, #2]
 8000f5e:	81a2      	strh	r2, [r4, #12]
 8000f60:	73a3      	strb	r3, [r4, #14]
    while (!OK_hour){// Set hora
 8000f62:	4b63      	ldr	r3, [pc, #396]	; (80010f0 <main+0x2d0>)
 8000f64:	681b      	ldr	r3, [r3, #0]
 8000f66:	2b00      	cmp	r3, #0
 8000f68:	d0a3      	beq.n	8000eb2 <main+0x92>
    }
    counter = HAL_GetTick();
 8000f6a:	f001 f9f7 	bl	800235c <HAL_GetTick>
 8000f6e:	4603      	mov	r3, r0
 8000f70:	461a      	mov	r2, r3
 8000f72:	4b5c      	ldr	r3, [pc, #368]	; (80010e4 <main+0x2c4>)
 8000f74:	601a      	str	r2, [r3, #0]
    while (!OK_minute){ // Set minutos
 8000f76:	e063      	b.n	8001040 <main+0x220>
    	if (flag_boton){ //Se incrementa 1 minuto cada vez que se pulsa el boton
 8000f78:	4b5b      	ldr	r3, [pc, #364]	; (80010e8 <main+0x2c8>)
 8000f7a:	681b      	ldr	r3, [r3, #0]
 8000f7c:	2b00      	cmp	r3, #0
 8000f7e:	d015      	beq.n	8000fac <main+0x18c>
    		if (intro_minute < 59){
 8000f80:	4b61      	ldr	r3, [pc, #388]	; (8001108 <main+0x2e8>)
 8000f82:	681b      	ldr	r3, [r3, #0]
 8000f84:	2b3a      	cmp	r3, #58	; 0x3a
 8000f86:	dc05      	bgt.n	8000f94 <main+0x174>
    			intro_minute++;
 8000f88:	4b5f      	ldr	r3, [pc, #380]	; (8001108 <main+0x2e8>)
 8000f8a:	681b      	ldr	r3, [r3, #0]
 8000f8c:	3301      	adds	r3, #1
 8000f8e:	4a5e      	ldr	r2, [pc, #376]	; (8001108 <main+0x2e8>)
 8000f90:	6013      	str	r3, [r2, #0]
 8000f92:	e002      	b.n	8000f9a <main+0x17a>
    		} else {
    			intro_minute = 0;
 8000f94:	4b5c      	ldr	r3, [pc, #368]	; (8001108 <main+0x2e8>)
 8000f96:	2200      	movs	r2, #0
 8000f98:	601a      	str	r2, [r3, #0]
    		}
    		flag_boton = 0;
 8000f9a:	4b53      	ldr	r3, [pc, #332]	; (80010e8 <main+0x2c8>)
 8000f9c:	2200      	movs	r2, #0
 8000f9e:	601a      	str	r2, [r3, #0]
    		counter = HAL_GetTick();
 8000fa0:	f001 f9dc 	bl	800235c <HAL_GetTick>
 8000fa4:	4603      	mov	r3, r0
 8000fa6:	461a      	mov	r2, r3
 8000fa8:	4b4e      	ldr	r3, [pc, #312]	; (80010e4 <main+0x2c4>)
 8000faa:	601a      	str	r2, [r3, #0]
    	}
    	if (HAL_GetTick() - counter > 5000){
 8000fac:	f001 f9d6 	bl	800235c <HAL_GetTick>
 8000fb0:	4603      	mov	r3, r0
 8000fb2:	4a4c      	ldr	r2, [pc, #304]	; (80010e4 <main+0x2c4>)
 8000fb4:	6812      	ldr	r2, [r2, #0]
 8000fb6:	1a9b      	subs	r3, r3, r2
 8000fb8:	f241 3288 	movw	r2, #5000	; 0x1388
 8000fbc:	4293      	cmp	r3, r2
 8000fbe:	d902      	bls.n	8000fc6 <main+0x1a6>
    		OK_minute = 1; //Si no se pulsa en 5segundos, se da por terminado el cambio de los minutos
 8000fc0:	4b52      	ldr	r3, [pc, #328]	; (800110c <main+0x2ec>)
 8000fc2:	2201      	movs	r2, #1
 8000fc4:	601a      	str	r2, [r3, #0]
    	}
    	//Mensaje en la pantalla
  	  if (intro_minute >= 10)
 8000fc6:	4b50      	ldr	r3, [pc, #320]	; (8001108 <main+0x2e8>)
 8000fc8:	681b      	ldr	r3, [r3, #0]
 8000fca:	2b09      	cmp	r3, #9
 8000fcc:	dd07      	ble.n	8000fde <main+0x1be>
  	  	  sprintf(time_m, "%i", intro_minute);
 8000fce:	4b4e      	ldr	r3, [pc, #312]	; (8001108 <main+0x2e8>)
 8000fd0:	681b      	ldr	r3, [r3, #0]
 8000fd2:	461a      	mov	r2, r3
 8000fd4:	4947      	ldr	r1, [pc, #284]	; (80010f4 <main+0x2d4>)
 8000fd6:	484e      	ldr	r0, [pc, #312]	; (8001110 <main+0x2f0>)
 8000fd8:	f004 ff1e 	bl	8005e18 <siprintf>
 8000fdc:	e006      	b.n	8000fec <main+0x1cc>
  	  else
  		  sprintf(time_m, "0%i", intro_minute);
 8000fde:	4b4a      	ldr	r3, [pc, #296]	; (8001108 <main+0x2e8>)
 8000fe0:	681b      	ldr	r3, [r3, #0]
 8000fe2:	461a      	mov	r2, r3
 8000fe4:	4945      	ldr	r1, [pc, #276]	; (80010fc <main+0x2dc>)
 8000fe6:	484a      	ldr	r0, [pc, #296]	; (8001110 <main+0x2f0>)
 8000fe8:	f004 ff16 	bl	8005e18 <siprintf>

  	strcpy (texto_pantalla, "Actual (mins):  ");
 8000fec:	4a3a      	ldr	r2, [pc, #232]	; (80010d8 <main+0x2b8>)
 8000fee:	4b49      	ldr	r3, [pc, #292]	; (8001114 <main+0x2f4>)
 8000ff0:	4614      	mov	r4, r2
 8000ff2:	461d      	mov	r5, r3
 8000ff4:	cd0f      	ldmia	r5!, {r0, r1, r2, r3}
 8000ff6:	c40f      	stmia	r4!, {r0, r1, r2, r3}
 8000ff8:	682b      	ldr	r3, [r5, #0]
 8000ffa:	7023      	strb	r3, [r4, #0]
  	strcat(texto_pantalla, time_h);
 8000ffc:	493e      	ldr	r1, [pc, #248]	; (80010f8 <main+0x2d8>)
 8000ffe:	4836      	ldr	r0, [pc, #216]	; (80010d8 <main+0x2b8>)
 8001000:	f004 ff2a 	bl	8005e58 <strcat>
  	strcat(texto_pantalla, ":");
 8001004:	4834      	ldr	r0, [pc, #208]	; (80010d8 <main+0x2b8>)
 8001006:	f7ff f8eb 	bl	80001e0 <strlen>
 800100a:	4603      	mov	r3, r0
 800100c:	461a      	mov	r2, r3
 800100e:	4b32      	ldr	r3, [pc, #200]	; (80010d8 <main+0x2b8>)
 8001010:	4413      	add	r3, r2
 8001012:	4941      	ldr	r1, [pc, #260]	; (8001118 <main+0x2f8>)
 8001014:	461a      	mov	r2, r3
 8001016:	460b      	mov	r3, r1
 8001018:	881b      	ldrh	r3, [r3, #0]
 800101a:	8013      	strh	r3, [r2, #0]
  	strcat(texto_pantalla, time_m);
 800101c:	493c      	ldr	r1, [pc, #240]	; (8001110 <main+0x2f0>)
 800101e:	482e      	ldr	r0, [pc, #184]	; (80010d8 <main+0x2b8>)
 8001020:	f004 ff1a 	bl	8005e58 <strcat>
  	strcat(texto_pantalla, "           ");
 8001024:	482c      	ldr	r0, [pc, #176]	; (80010d8 <main+0x2b8>)
 8001026:	f7ff f8db 	bl	80001e0 <strlen>
 800102a:	4603      	mov	r3, r0
 800102c:	461a      	mov	r2, r3
 800102e:	4b2a      	ldr	r3, [pc, #168]	; (80010d8 <main+0x2b8>)
 8001030:	4413      	add	r3, r2
 8001032:	4a3a      	ldr	r2, [pc, #232]	; (800111c <main+0x2fc>)
 8001034:	461c      	mov	r4, r3
 8001036:	4613      	mov	r3, r2
 8001038:	cb07      	ldmia	r3!, {r0, r1, r2}
 800103a:	6020      	str	r0, [r4, #0]
 800103c:	6061      	str	r1, [r4, #4]
 800103e:	60a2      	str	r2, [r4, #8]
    while (!OK_minute){ // Set minutos
 8001040:	4b32      	ldr	r3, [pc, #200]	; (800110c <main+0x2ec>)
 8001042:	681b      	ldr	r3, [r3, #0]
 8001044:	2b00      	cmp	r3, #0
 8001046:	d097      	beq.n	8000f78 <main+0x158>
    }

 //Para insetar la hora a la que se quiere regar o no activar la opcion
    OK_hour = 0;
 8001048:	4b29      	ldr	r3, [pc, #164]	; (80010f0 <main+0x2d0>)
 800104a:	2200      	movs	r2, #0
 800104c:	601a      	str	r2, [r3, #0]
    OK_minute = 0;
 800104e:	4b2f      	ldr	r3, [pc, #188]	; (800110c <main+0x2ec>)
 8001050:	2200      	movs	r2, #0
 8001052:	601a      	str	r2, [r3, #0]
    counter = HAL_GetTick();
 8001054:	f001 f982 	bl	800235c <HAL_GetTick>
 8001058:	4603      	mov	r3, r0
 800105a:	461a      	mov	r2, r3
 800105c:	4b21      	ldr	r3, [pc, #132]	; (80010e4 <main+0x2c4>)
 800105e:	601a      	str	r2, [r3, #0]
    while (!OK_hour){// Set hora de riego
 8001060:	e093      	b.n	800118a <main+0x36a>
    	if (flag_boton){
 8001062:	4b21      	ldr	r3, [pc, #132]	; (80010e8 <main+0x2c8>)
 8001064:	681b      	ldr	r3, [r3, #0]
 8001066:	2b00      	cmp	r3, #0
 8001068:	d015      	beq.n	8001096 <main+0x276>
    		if (water_hour < 23){
 800106a:	4b2d      	ldr	r3, [pc, #180]	; (8001120 <main+0x300>)
 800106c:	681b      	ldr	r3, [r3, #0]
 800106e:	2b16      	cmp	r3, #22
 8001070:	d805      	bhi.n	800107e <main+0x25e>
    			water_hour++;
 8001072:	4b2b      	ldr	r3, [pc, #172]	; (8001120 <main+0x300>)
 8001074:	681b      	ldr	r3, [r3, #0]
 8001076:	3301      	adds	r3, #1
 8001078:	4a29      	ldr	r2, [pc, #164]	; (8001120 <main+0x300>)
 800107a:	6013      	str	r3, [r2, #0]
 800107c:	e002      	b.n	8001084 <main+0x264>
    		} else {
    			water_hour = 0;
 800107e:	4b28      	ldr	r3, [pc, #160]	; (8001120 <main+0x300>)
 8001080:	2200      	movs	r2, #0
 8001082:	601a      	str	r2, [r3, #0]
    		}
    		flag_boton = 0;
 8001084:	4b18      	ldr	r3, [pc, #96]	; (80010e8 <main+0x2c8>)
 8001086:	2200      	movs	r2, #0
 8001088:	601a      	str	r2, [r3, #0]
    		counter = HAL_GetTick();
 800108a:	f001 f967 	bl	800235c <HAL_GetTick>
 800108e:	4603      	mov	r3, r0
 8001090:	461a      	mov	r2, r3
 8001092:	4b14      	ldr	r3, [pc, #80]	; (80010e4 <main+0x2c4>)
 8001094:	601a      	str	r2, [r3, #0]
    	}
    	if (HAL_GetTick() - counter > 5000){
 8001096:	f001 f961 	bl	800235c <HAL_GetTick>
 800109a:	4603      	mov	r3, r0
 800109c:	4a11      	ldr	r2, [pc, #68]	; (80010e4 <main+0x2c4>)
 800109e:	6812      	ldr	r2, [r2, #0]
 80010a0:	1a9b      	subs	r3, r3, r2
 80010a2:	f241 3288 	movw	r2, #5000	; 0x1388
 80010a6:	4293      	cmp	r3, r2
 80010a8:	d902      	bls.n	80010b0 <main+0x290>
    		OK_hour = 1;
 80010aa:	4b11      	ldr	r3, [pc, #68]	; (80010f0 <main+0x2d0>)
 80010ac:	2201      	movs	r2, #1
 80010ae:	601a      	str	r2, [r3, #0]
    	}
    	//Mensaje en la pantalla
    	if (water_hour == 100)
 80010b0:	4b1b      	ldr	r3, [pc, #108]	; (8001120 <main+0x300>)
 80010b2:	681b      	ldr	r3, [r3, #0]
 80010b4:	2b64      	cmp	r3, #100	; 0x64
 80010b6:	d137      	bne.n	8001128 <main+0x308>
    		strcpy (texto_pantalla, "Programar riego?SI=pulsa NO=wait");
 80010b8:	4a07      	ldr	r2, [pc, #28]	; (80010d8 <main+0x2b8>)
 80010ba:	4b1a      	ldr	r3, [pc, #104]	; (8001124 <main+0x304>)
 80010bc:	4614      	mov	r4, r2
 80010be:	461d      	mov	r5, r3
 80010c0:	cd0f      	ldmia	r5!, {r0, r1, r2, r3}
 80010c2:	c40f      	stmia	r4!, {r0, r1, r2, r3}
 80010c4:	cd0f      	ldmia	r5!, {r0, r1, r2, r3}
 80010c6:	c40f      	stmia	r4!, {r0, r1, r2, r3}
 80010c8:	682b      	ldr	r3, [r5, #0]
 80010ca:	7023      	strb	r3, [r4, #0]
 80010cc:	e05d      	b.n	800118a <main+0x36a>
 80010ce:	bf00      	nop
 80010d0:	20000248 	.word	0x20000248
 80010d4:	200000b8 	.word	0x200000b8
 80010d8:	2000025c 	.word	0x2000025c
 80010dc:	08006728 	.word	0x08006728
 80010e0:	200001fc 	.word	0x200001fc
 80010e4:	200002b4 	.word	0x200002b4
 80010e8:	20000250 	.word	0x20000250
 80010ec:	200002a4 	.word	0x200002a4
 80010f0:	200002ac 	.word	0x200002ac
 80010f4:	0800674c 	.word	0x0800674c
 80010f8:	200002bc 	.word	0x200002bc
 80010fc:	08006750 	.word	0x08006750
 8001100:	08006754 	.word	0x08006754
 8001104:	08006768 	.word	0x08006768
 8001108:	200002a0 	.word	0x200002a0
 800110c:	200002b0 	.word	0x200002b0
 8001110:	200002c0 	.word	0x200002c0
 8001114:	08006778 	.word	0x08006778
 8001118:	0800678c 	.word	0x0800678c
 800111c:	08006790 	.word	0x08006790
 8001120:	20000028 	.word	0x20000028
 8001124:	0800679c 	.word	0x0800679c
    	else {
    		if (water_hour >= 10)
 8001128:	4b9f      	ldr	r3, [pc, #636]	; (80013a8 <main+0x588>)
 800112a:	681b      	ldr	r3, [r3, #0]
 800112c:	2b09      	cmp	r3, #9
 800112e:	d907      	bls.n	8001140 <main+0x320>
    			sprintf(time_h, "%i", water_hour);
 8001130:	4b9d      	ldr	r3, [pc, #628]	; (80013a8 <main+0x588>)
 8001132:	681b      	ldr	r3, [r3, #0]
 8001134:	461a      	mov	r2, r3
 8001136:	499d      	ldr	r1, [pc, #628]	; (80013ac <main+0x58c>)
 8001138:	489d      	ldr	r0, [pc, #628]	; (80013b0 <main+0x590>)
 800113a:	f004 fe6d 	bl	8005e18 <siprintf>
 800113e:	e006      	b.n	800114e <main+0x32e>
    		else
    			sprintf(time_h, "0%i", water_hour);
 8001140:	4b99      	ldr	r3, [pc, #612]	; (80013a8 <main+0x588>)
 8001142:	681b      	ldr	r3, [r3, #0]
 8001144:	461a      	mov	r2, r3
 8001146:	499b      	ldr	r1, [pc, #620]	; (80013b4 <main+0x594>)
 8001148:	4899      	ldr	r0, [pc, #612]	; (80013b0 <main+0x590>)
 800114a:	f004 fe65 	bl	8005e18 <siprintf>

    		strcpy (texto_pantalla, "Riego (hora):   ");
 800114e:	4a9a      	ldr	r2, [pc, #616]	; (80013b8 <main+0x598>)
 8001150:	4b9a      	ldr	r3, [pc, #616]	; (80013bc <main+0x59c>)
 8001152:	4614      	mov	r4, r2
 8001154:	461d      	mov	r5, r3
 8001156:	cd0f      	ldmia	r5!, {r0, r1, r2, r3}
 8001158:	c40f      	stmia	r4!, {r0, r1, r2, r3}
 800115a:	682b      	ldr	r3, [r5, #0]
 800115c:	7023      	strb	r3, [r4, #0]
    		strcat(texto_pantalla, time_h);
 800115e:	4994      	ldr	r1, [pc, #592]	; (80013b0 <main+0x590>)
 8001160:	4895      	ldr	r0, [pc, #596]	; (80013b8 <main+0x598>)
 8001162:	f004 fe79 	bl	8005e58 <strcat>
    		strcat(texto_pantalla, ":00           ");
 8001166:	4894      	ldr	r0, [pc, #592]	; (80013b8 <main+0x598>)
 8001168:	f7ff f83a 	bl	80001e0 <strlen>
 800116c:	4603      	mov	r3, r0
 800116e:	461a      	mov	r2, r3
 8001170:	4b91      	ldr	r3, [pc, #580]	; (80013b8 <main+0x598>)
 8001172:	4413      	add	r3, r2
 8001174:	4a92      	ldr	r2, [pc, #584]	; (80013c0 <main+0x5a0>)
 8001176:	461c      	mov	r4, r3
 8001178:	4613      	mov	r3, r2
 800117a:	cb07      	ldmia	r3!, {r0, r1, r2}
 800117c:	6020      	str	r0, [r4, #0]
 800117e:	6061      	str	r1, [r4, #4]
 8001180:	60a2      	str	r2, [r4, #8]
 8001182:	881a      	ldrh	r2, [r3, #0]
 8001184:	789b      	ldrb	r3, [r3, #2]
 8001186:	81a2      	strh	r2, [r4, #12]
 8001188:	73a3      	strb	r3, [r4, #14]
    while (!OK_hour){// Set hora de riego
 800118a:	4b8e      	ldr	r3, [pc, #568]	; (80013c4 <main+0x5a4>)
 800118c:	681b      	ldr	r3, [r3, #0]
 800118e:	2b00      	cmp	r3, #0
 8001190:	f43f af67 	beq.w	8001062 <main+0x242>
    	}
    }
    counter = HAL_GetTick();
 8001194:	f001 f8e2 	bl	800235c <HAL_GetTick>
 8001198:	4603      	mov	r3, r0
 800119a:	461a      	mov	r2, r3
 800119c:	4b8a      	ldr	r3, [pc, #552]	; (80013c8 <main+0x5a8>)
 800119e:	601a      	str	r2, [r3, #0]
    while (!OK_minute){ // Set minuto de riego
 80011a0:	e072      	b.n	8001288 <main+0x468>
    	if (flag_boton){
 80011a2:	4b8a      	ldr	r3, [pc, #552]	; (80013cc <main+0x5ac>)
 80011a4:	681b      	ldr	r3, [r3, #0]
 80011a6:	2b00      	cmp	r3, #0
 80011a8:	d015      	beq.n	80011d6 <main+0x3b6>
    		if (water_minute < 59){
 80011aa:	4b89      	ldr	r3, [pc, #548]	; (80013d0 <main+0x5b0>)
 80011ac:	681b      	ldr	r3, [r3, #0]
 80011ae:	2b3a      	cmp	r3, #58	; 0x3a
 80011b0:	d805      	bhi.n	80011be <main+0x39e>
    			water_minute++;
 80011b2:	4b87      	ldr	r3, [pc, #540]	; (80013d0 <main+0x5b0>)
 80011b4:	681b      	ldr	r3, [r3, #0]
 80011b6:	3301      	adds	r3, #1
 80011b8:	4a85      	ldr	r2, [pc, #532]	; (80013d0 <main+0x5b0>)
 80011ba:	6013      	str	r3, [r2, #0]
 80011bc:	e002      	b.n	80011c4 <main+0x3a4>
    		} else {
    			water_minute = 0;
 80011be:	4b84      	ldr	r3, [pc, #528]	; (80013d0 <main+0x5b0>)
 80011c0:	2200      	movs	r2, #0
 80011c2:	601a      	str	r2, [r3, #0]
    		}
    		flag_boton = 0;
 80011c4:	4b81      	ldr	r3, [pc, #516]	; (80013cc <main+0x5ac>)
 80011c6:	2200      	movs	r2, #0
 80011c8:	601a      	str	r2, [r3, #0]
    		counter = HAL_GetTick();
 80011ca:	f001 f8c7 	bl	800235c <HAL_GetTick>
 80011ce:	4603      	mov	r3, r0
 80011d0:	461a      	mov	r2, r3
 80011d2:	4b7d      	ldr	r3, [pc, #500]	; (80013c8 <main+0x5a8>)
 80011d4:	601a      	str	r2, [r3, #0]
    	}
    	if (HAL_GetTick() - counter > 5000){
 80011d6:	f001 f8c1 	bl	800235c <HAL_GetTick>
 80011da:	4603      	mov	r3, r0
 80011dc:	4a7a      	ldr	r2, [pc, #488]	; (80013c8 <main+0x5a8>)
 80011de:	6812      	ldr	r2, [r2, #0]
 80011e0:	1a9b      	subs	r3, r3, r2
 80011e2:	f241 3288 	movw	r2, #5000	; 0x1388
 80011e6:	4293      	cmp	r3, r2
 80011e8:	d902      	bls.n	80011f0 <main+0x3d0>
    		OK_minute = 1;
 80011ea:	4b7a      	ldr	r3, [pc, #488]	; (80013d4 <main+0x5b4>)
 80011ec:	2201      	movs	r2, #1
 80011ee:	601a      	str	r2, [r3, #0]
    	}
    	//Mensaje en la pantalla
    	if (water_hour == 100)
 80011f0:	4b6d      	ldr	r3, [pc, #436]	; (80013a8 <main+0x588>)
 80011f2:	681b      	ldr	r3, [r3, #0]
 80011f4:	2b64      	cmp	r3, #100	; 0x64
 80011f6:	d10a      	bne.n	800120e <main+0x3ee>
    	  		strcpy (texto_pantalla, "      wait                      ");
 80011f8:	4a6f      	ldr	r2, [pc, #444]	; (80013b8 <main+0x598>)
 80011fa:	4b77      	ldr	r3, [pc, #476]	; (80013d8 <main+0x5b8>)
 80011fc:	4614      	mov	r4, r2
 80011fe:	461d      	mov	r5, r3
 8001200:	cd0f      	ldmia	r5!, {r0, r1, r2, r3}
 8001202:	c40f      	stmia	r4!, {r0, r1, r2, r3}
 8001204:	cd0f      	ldmia	r5!, {r0, r1, r2, r3}
 8001206:	c40f      	stmia	r4!, {r0, r1, r2, r3}
 8001208:	682b      	ldr	r3, [r5, #0]
 800120a:	7023      	strb	r3, [r4, #0]
 800120c:	e03c      	b.n	8001288 <main+0x468>
    	else {
    	  	if (water_minute >= 10)
 800120e:	4b70      	ldr	r3, [pc, #448]	; (80013d0 <main+0x5b0>)
 8001210:	681b      	ldr	r3, [r3, #0]
 8001212:	2b09      	cmp	r3, #9
 8001214:	d907      	bls.n	8001226 <main+0x406>
    	  		  	  sprintf(time_m, "%i", water_minute);
 8001216:	4b6e      	ldr	r3, [pc, #440]	; (80013d0 <main+0x5b0>)
 8001218:	681b      	ldr	r3, [r3, #0]
 800121a:	461a      	mov	r2, r3
 800121c:	4963      	ldr	r1, [pc, #396]	; (80013ac <main+0x58c>)
 800121e:	486f      	ldr	r0, [pc, #444]	; (80013dc <main+0x5bc>)
 8001220:	f004 fdfa 	bl	8005e18 <siprintf>
 8001224:	e006      	b.n	8001234 <main+0x414>
    	  		  else
    	  			  sprintf(time_m, "0%i", water_minute);
 8001226:	4b6a      	ldr	r3, [pc, #424]	; (80013d0 <main+0x5b0>)
 8001228:	681b      	ldr	r3, [r3, #0]
 800122a:	461a      	mov	r2, r3
 800122c:	4961      	ldr	r1, [pc, #388]	; (80013b4 <main+0x594>)
 800122e:	486b      	ldr	r0, [pc, #428]	; (80013dc <main+0x5bc>)
 8001230:	f004 fdf2 	bl	8005e18 <siprintf>

    	  		strcpy (texto_pantalla, "Riego (mins):   ");
 8001234:	4a60      	ldr	r2, [pc, #384]	; (80013b8 <main+0x598>)
 8001236:	4b6a      	ldr	r3, [pc, #424]	; (80013e0 <main+0x5c0>)
 8001238:	4614      	mov	r4, r2
 800123a:	461d      	mov	r5, r3
 800123c:	cd0f      	ldmia	r5!, {r0, r1, r2, r3}
 800123e:	c40f      	stmia	r4!, {r0, r1, r2, r3}
 8001240:	682b      	ldr	r3, [r5, #0]
 8001242:	7023      	strb	r3, [r4, #0]
    	  		strcat(texto_pantalla, time_h);
 8001244:	495a      	ldr	r1, [pc, #360]	; (80013b0 <main+0x590>)
 8001246:	485c      	ldr	r0, [pc, #368]	; (80013b8 <main+0x598>)
 8001248:	f004 fe06 	bl	8005e58 <strcat>
    	  		strcat(texto_pantalla, ":");
 800124c:	485a      	ldr	r0, [pc, #360]	; (80013b8 <main+0x598>)
 800124e:	f7fe ffc7 	bl	80001e0 <strlen>
 8001252:	4603      	mov	r3, r0
 8001254:	461a      	mov	r2, r3
 8001256:	4b58      	ldr	r3, [pc, #352]	; (80013b8 <main+0x598>)
 8001258:	4413      	add	r3, r2
 800125a:	4962      	ldr	r1, [pc, #392]	; (80013e4 <main+0x5c4>)
 800125c:	461a      	mov	r2, r3
 800125e:	460b      	mov	r3, r1
 8001260:	881b      	ldrh	r3, [r3, #0]
 8001262:	8013      	strh	r3, [r2, #0]
    	  		strcat(texto_pantalla, time_m);
 8001264:	495d      	ldr	r1, [pc, #372]	; (80013dc <main+0x5bc>)
 8001266:	4854      	ldr	r0, [pc, #336]	; (80013b8 <main+0x598>)
 8001268:	f004 fdf6 	bl	8005e58 <strcat>
    	  		strcat(texto_pantalla, "           ");
 800126c:	4852      	ldr	r0, [pc, #328]	; (80013b8 <main+0x598>)
 800126e:	f7fe ffb7 	bl	80001e0 <strlen>
 8001272:	4603      	mov	r3, r0
 8001274:	461a      	mov	r2, r3
 8001276:	4b50      	ldr	r3, [pc, #320]	; (80013b8 <main+0x598>)
 8001278:	4413      	add	r3, r2
 800127a:	4a5b      	ldr	r2, [pc, #364]	; (80013e8 <main+0x5c8>)
 800127c:	461c      	mov	r4, r3
 800127e:	4613      	mov	r3, r2
 8001280:	cb07      	ldmia	r3!, {r0, r1, r2}
 8001282:	6020      	str	r0, [r4, #0]
 8001284:	6061      	str	r1, [r4, #4]
 8001286:	60a2      	str	r2, [r4, #8]
    while (!OK_minute){ // Set minuto de riego
 8001288:	4b52      	ldr	r3, [pc, #328]	; (80013d4 <main+0x5b4>)
 800128a:	681b      	ldr	r3, [r3, #0]
 800128c:	2b00      	cmp	r3, #0
 800128e:	d088      	beq.n	80011a2 <main+0x382>
    	}
    }

    counter = HAL_GetTick();
 8001290:	f001 f864 	bl	800235c <HAL_GetTick>
 8001294:	4603      	mov	r3, r0
 8001296:	461a      	mov	r2, r3
 8001298:	4b4b      	ldr	r3, [pc, #300]	; (80013c8 <main+0x5a8>)
 800129a:	601a      	str	r2, [r3, #0]
    settings = 1; //Terminado el setting
 800129c:	4b53      	ldr	r3, [pc, #332]	; (80013ec <main+0x5cc>)
 800129e:	2201      	movs	r2, #1
 80012a0:	601a      	str	r2, [r3, #0]
  {
    /* USER CODE END WHILE */

    /* USER CODE BEGIN 3 */
//Conteo de tiempo
	  count_second = ((HAL_GetTick()-counter) * 0.001);
 80012a2:	f001 f85b 	bl	800235c <HAL_GetTick>
 80012a6:	4603      	mov	r3, r0
 80012a8:	4a47      	ldr	r2, [pc, #284]	; (80013c8 <main+0x5a8>)
 80012aa:	6812      	ldr	r2, [r2, #0]
 80012ac:	1a9b      	subs	r3, r3, r2
 80012ae:	4618      	mov	r0, r3
 80012b0:	f7ff fa5a 	bl	8000768 <__aeabi_ui2d>
 80012b4:	a33a      	add	r3, pc, #232	; (adr r3, 80013a0 <main+0x580>)
 80012b6:	e9d3 2300 	ldrd	r2, r3, [r3]
 80012ba:	f7fe ffe9 	bl	8000290 <__aeabi_dmul>
 80012be:	4602      	mov	r2, r0
 80012c0:	460b      	mov	r3, r1
 80012c2:	4610      	mov	r0, r2
 80012c4:	4619      	mov	r1, r3
 80012c6:	f7ff fac9 	bl	800085c <__aeabi_d2uiz>
 80012ca:	4603      	mov	r3, r0
 80012cc:	4a48      	ldr	r2, [pc, #288]	; (80013f0 <main+0x5d0>)
 80012ce:	6013      	str	r3, [r2, #0]
	  count_minute = ((HAL_GetTick()-counter) / 60000);
 80012d0:	f001 f844 	bl	800235c <HAL_GetTick>
 80012d4:	4603      	mov	r3, r0
 80012d6:	4a3c      	ldr	r2, [pc, #240]	; (80013c8 <main+0x5a8>)
 80012d8:	6812      	ldr	r2, [r2, #0]
 80012da:	1a9b      	subs	r3, r3, r2
 80012dc:	4a45      	ldr	r2, [pc, #276]	; (80013f4 <main+0x5d4>)
 80012de:	fba2 2303 	umull	r2, r3, r2, r3
 80012e2:	0b9b      	lsrs	r3, r3, #14
 80012e4:	4a44      	ldr	r2, [pc, #272]	; (80013f8 <main+0x5d8>)
 80012e6:	6013      	str	r3, [r2, #0]
	  count_hour = ((HAL_GetTick()-counter) / 3600000);
 80012e8:	f001 f838 	bl	800235c <HAL_GetTick>
 80012ec:	4603      	mov	r3, r0
 80012ee:	4a36      	ldr	r2, [pc, #216]	; (80013c8 <main+0x5a8>)
 80012f0:	6812      	ldr	r2, [r2, #0]
 80012f2:	1a9b      	subs	r3, r3, r2
 80012f4:	4a41      	ldr	r2, [pc, #260]	; (80013fc <main+0x5dc>)
 80012f6:	fba2 2303 	umull	r2, r3, r2, r3
 80012fa:	0d5b      	lsrs	r3, r3, #21
 80012fc:	4a40      	ldr	r2, [pc, #256]	; (8001400 <main+0x5e0>)
 80012fe:	6013      	str	r3, [r2, #0]
//Hora real
	  second = count_second % 60;
 8001300:	4b3b      	ldr	r3, [pc, #236]	; (80013f0 <main+0x5d0>)
 8001302:	6819      	ldr	r1, [r3, #0]
 8001304:	4b3f      	ldr	r3, [pc, #252]	; (8001404 <main+0x5e4>)
 8001306:	fba3 2301 	umull	r2, r3, r3, r1
 800130a:	095a      	lsrs	r2, r3, #5
 800130c:	4613      	mov	r3, r2
 800130e:	011b      	lsls	r3, r3, #4
 8001310:	1a9b      	subs	r3, r3, r2
 8001312:	009b      	lsls	r3, r3, #2
 8001314:	1aca      	subs	r2, r1, r3
 8001316:	4b3c      	ldr	r3, [pc, #240]	; (8001408 <main+0x5e8>)
 8001318:	601a      	str	r2, [r3, #0]
	  minute = (intro_minute + count_minute) % 60;
 800131a:	4b3c      	ldr	r3, [pc, #240]	; (800140c <main+0x5ec>)
 800131c:	681b      	ldr	r3, [r3, #0]
 800131e:	461a      	mov	r2, r3
 8001320:	4b35      	ldr	r3, [pc, #212]	; (80013f8 <main+0x5d8>)
 8001322:	681b      	ldr	r3, [r3, #0]
 8001324:	18d1      	adds	r1, r2, r3
 8001326:	4b37      	ldr	r3, [pc, #220]	; (8001404 <main+0x5e4>)
 8001328:	fba3 2301 	umull	r2, r3, r3, r1
 800132c:	095a      	lsrs	r2, r3, #5
 800132e:	4613      	mov	r3, r2
 8001330:	011b      	lsls	r3, r3, #4
 8001332:	1a9b      	subs	r3, r3, r2
 8001334:	009b      	lsls	r3, r3, #2
 8001336:	1aca      	subs	r2, r1, r3
 8001338:	4b35      	ldr	r3, [pc, #212]	; (8001410 <main+0x5f0>)
 800133a:	601a      	str	r2, [r3, #0]
	  hour = (intro_hour + count_hour + ((intro_minute + count_minute) / 60)) % 24;
 800133c:	4b35      	ldr	r3, [pc, #212]	; (8001414 <main+0x5f4>)
 800133e:	681b      	ldr	r3, [r3, #0]
 8001340:	461a      	mov	r2, r3
 8001342:	4b2f      	ldr	r3, [pc, #188]	; (8001400 <main+0x5e0>)
 8001344:	681b      	ldr	r3, [r3, #0]
 8001346:	441a      	add	r2, r3
 8001348:	4b30      	ldr	r3, [pc, #192]	; (800140c <main+0x5ec>)
 800134a:	681b      	ldr	r3, [r3, #0]
 800134c:	4619      	mov	r1, r3
 800134e:	4b2a      	ldr	r3, [pc, #168]	; (80013f8 <main+0x5d8>)
 8001350:	681b      	ldr	r3, [r3, #0]
 8001352:	440b      	add	r3, r1
 8001354:	492b      	ldr	r1, [pc, #172]	; (8001404 <main+0x5e4>)
 8001356:	fba1 1303 	umull	r1, r3, r1, r3
 800135a:	095b      	lsrs	r3, r3, #5
 800135c:	18d1      	adds	r1, r2, r3
 800135e:	4b2e      	ldr	r3, [pc, #184]	; (8001418 <main+0x5f8>)
 8001360:	fba3 2301 	umull	r2, r3, r3, r1
 8001364:	091a      	lsrs	r2, r3, #4
 8001366:	4613      	mov	r3, r2
 8001368:	005b      	lsls	r3, r3, #1
 800136a:	4413      	add	r3, r2
 800136c:	00db      	lsls	r3, r3, #3
 800136e:	1aca      	subs	r2, r1, r3
 8001370:	4b2a      	ldr	r3, [pc, #168]	; (800141c <main+0x5fc>)
 8001372:	601a      	str	r2, [r3, #0]

	  flag_agua = detec_lvl(ADC_value[0]);
 8001374:	4b2a      	ldr	r3, [pc, #168]	; (8001420 <main+0x600>)
 8001376:	881b      	ldrh	r3, [r3, #0]
 8001378:	4618      	mov	r0, r3
 800137a:	f7ff fc2f 	bl	8000bdc <detec_lvl>
 800137e:	4603      	mov	r3, r0
 8001380:	4a28      	ldr	r2, [pc, #160]	; (8001424 <main+0x604>)
 8001382:	6013      	str	r3, [r2, #0]

	  char buffer [2];
	  if (media >= 10)
 8001384:	4b28      	ldr	r3, [pc, #160]	; (8001428 <main+0x608>)
 8001386:	681b      	ldr	r3, [r3, #0]
 8001388:	2b09      	cmp	r3, #9
 800138a:	d94f      	bls.n	800142c <main+0x60c>
	  	  sprintf(buffer, "%i", media);
 800138c:	4b26      	ldr	r3, [pc, #152]	; (8001428 <main+0x608>)
 800138e:	681a      	ldr	r2, [r3, #0]
 8001390:	463b      	mov	r3, r7
 8001392:	4906      	ldr	r1, [pc, #24]	; (80013ac <main+0x58c>)
 8001394:	4618      	mov	r0, r3
 8001396:	f004 fd3f 	bl	8005e18 <siprintf>
 800139a:	e04e      	b.n	800143a <main+0x61a>
 800139c:	f3af 8000 	nop.w
 80013a0:	d2f1a9fc 	.word	0xd2f1a9fc
 80013a4:	3f50624d 	.word	0x3f50624d
 80013a8:	20000028 	.word	0x20000028
 80013ac:	0800674c 	.word	0x0800674c
 80013b0:	200002bc 	.word	0x200002bc
 80013b4:	08006750 	.word	0x08006750
 80013b8:	2000025c 	.word	0x2000025c
 80013bc:	080067c0 	.word	0x080067c0
 80013c0:	08006768 	.word	0x08006768
 80013c4:	200002ac 	.word	0x200002ac
 80013c8:	200002b4 	.word	0x200002b4
 80013cc:	20000250 	.word	0x20000250
 80013d0:	200002a8 	.word	0x200002a8
 80013d4:	200002b0 	.word	0x200002b0
 80013d8:	080067d4 	.word	0x080067d4
 80013dc:	200002c0 	.word	0x200002c0
 80013e0:	080067f8 	.word	0x080067f8
 80013e4:	0800678c 	.word	0x0800678c
 80013e8:	08006790 	.word	0x08006790
 80013ec:	200002b8 	.word	0x200002b8
 80013f0:	20000294 	.word	0x20000294
 80013f4:	45e7b273 	.word	0x45e7b273
 80013f8:	20000298 	.word	0x20000298
 80013fc:	95217cb1 	.word	0x95217cb1
 8001400:	2000029c 	.word	0x2000029c
 8001404:	88888889 	.word	0x88888889
 8001408:	20000288 	.word	0x20000288
 800140c:	200002a0 	.word	0x200002a0
 8001410:	2000028c 	.word	0x2000028c
 8001414:	200002a4 	.word	0x200002a4
 8001418:	aaaaaaab 	.word	0xaaaaaaab
 800141c:	20000290 	.word	0x20000290
 8001420:	20000244 	.word	0x20000244
 8001424:	20000254 	.word	0x20000254
 8001428:	20000258 	.word	0x20000258

	  else
		  sprintf(buffer, "0%i", media);
 800142c:	4b9c      	ldr	r3, [pc, #624]	; (80016a0 <main+0x880>)
 800142e:	681a      	ldr	r2, [r3, #0]
 8001430:	463b      	mov	r3, r7
 8001432:	499c      	ldr	r1, [pc, #624]	; (80016a4 <main+0x884>)
 8001434:	4618      	mov	r0, r3
 8001436:	f004 fcef 	bl	8005e18 <siprintf>

	  if (!flag_riego && flag_agua != 0){ // si no esta regando y hay agua en el deposito = midiendo
 800143a:	4b9b      	ldr	r3, [pc, #620]	; (80016a8 <main+0x888>)
 800143c:	681b      	ldr	r3, [r3, #0]
 800143e:	2b00      	cmp	r3, #0
 8001440:	d12f      	bne.n	80014a2 <main+0x682>
 8001442:	4b9a      	ldr	r3, [pc, #616]	; (80016ac <main+0x88c>)
 8001444:	681b      	ldr	r3, [r3, #0]
 8001446:	2b00      	cmp	r3, #0
 8001448:	d02b      	beq.n	80014a2 <main+0x682>
		  strcpy(texto_pantalla, "Midiendo...|SistHumedad:");
 800144a:	4a99      	ldr	r2, [pc, #612]	; (80016b0 <main+0x890>)
 800144c:	4b99      	ldr	r3, [pc, #612]	; (80016b4 <main+0x894>)
 800144e:	4614      	mov	r4, r2
 8001450:	461d      	mov	r5, r3
 8001452:	cd0f      	ldmia	r5!, {r0, r1, r2, r3}
 8001454:	c40f      	stmia	r4!, {r0, r1, r2, r3}
 8001456:	e895 0007 	ldmia.w	r5, {r0, r1, r2}
 800145a:	c403      	stmia	r4!, {r0, r1}
 800145c:	7022      	strb	r2, [r4, #0]
	      strcat(texto_pantalla, buffer);
 800145e:	463b      	mov	r3, r7
 8001460:	4619      	mov	r1, r3
 8001462:	4893      	ldr	r0, [pc, #588]	; (80016b0 <main+0x890>)
 8001464:	f004 fcf8 	bl	8005e58 <strcat>
	      if(media!=100)
 8001468:	4b8d      	ldr	r3, [pc, #564]	; (80016a0 <main+0x880>)
 800146a:	681b      	ldr	r3, [r3, #0]
 800146c:	2b64      	cmp	r3, #100	; 0x64
 800146e:	d00b      	beq.n	8001488 <main+0x668>
	      strcat(texto_pantalla, "%");
 8001470:	488f      	ldr	r0, [pc, #572]	; (80016b0 <main+0x890>)
 8001472:	f7fe feb5 	bl	80001e0 <strlen>
 8001476:	4603      	mov	r3, r0
 8001478:	461a      	mov	r2, r3
 800147a:	4b8d      	ldr	r3, [pc, #564]	; (80016b0 <main+0x890>)
 800147c:	4413      	add	r3, r2
 800147e:	498e      	ldr	r1, [pc, #568]	; (80016b8 <main+0x898>)
 8001480:	461a      	mov	r2, r3
 8001482:	460b      	mov	r3, r1
 8001484:	881b      	ldrh	r3, [r3, #0]
 8001486:	8013      	strh	r3, [r2, #0]
	      strcat(texto_pantalla, "|STBY");
 8001488:	4889      	ldr	r0, [pc, #548]	; (80016b0 <main+0x890>)
 800148a:	f7fe fea9 	bl	80001e0 <strlen>
 800148e:	4603      	mov	r3, r0
 8001490:	461a      	mov	r2, r3
 8001492:	4b87      	ldr	r3, [pc, #540]	; (80016b0 <main+0x890>)
 8001494:	4413      	add	r3, r2
 8001496:	4a89      	ldr	r2, [pc, #548]	; (80016bc <main+0x89c>)
 8001498:	6810      	ldr	r0, [r2, #0]
 800149a:	6018      	str	r0, [r3, #0]
 800149c:	8892      	ldrh	r2, [r2, #4]
 800149e:	809a      	strh	r2, [r3, #4]
 80014a0:	e0a1      	b.n	80015e6 <main+0x7c6>
	     }
	  else if (flag_riego && flag_agua != 0){ //Regando (hay suficiente agua para ello)
 80014a2:	4b81      	ldr	r3, [pc, #516]	; (80016a8 <main+0x888>)
 80014a4:	681b      	ldr	r3, [r3, #0]
 80014a6:	2b00      	cmp	r3, #0
 80014a8:	d046      	beq.n	8001538 <main+0x718>
 80014aa:	4b80      	ldr	r3, [pc, #512]	; (80016ac <main+0x88c>)
 80014ac:	681b      	ldr	r3, [r3, #0]
 80014ae:	2b00      	cmp	r3, #0
 80014b0:	d042      	beq.n	8001538 <main+0x718>
	      if ((water_hour == hour) && (water_minute == minute) && (second < 4)) //Ademas regando en hora programada
 80014b2:	4b83      	ldr	r3, [pc, #524]	; (80016c0 <main+0x8a0>)
 80014b4:	681a      	ldr	r2, [r3, #0]
 80014b6:	4b83      	ldr	r3, [pc, #524]	; (80016c4 <main+0x8a4>)
 80014b8:	681b      	ldr	r3, [r3, #0]
 80014ba:	429a      	cmp	r2, r3
 80014bc:	d114      	bne.n	80014e8 <main+0x6c8>
 80014be:	4b82      	ldr	r3, [pc, #520]	; (80016c8 <main+0x8a8>)
 80014c0:	681a      	ldr	r2, [r3, #0]
 80014c2:	4b82      	ldr	r3, [pc, #520]	; (80016cc <main+0x8ac>)
 80014c4:	681b      	ldr	r3, [r3, #0]
 80014c6:	429a      	cmp	r2, r3
 80014c8:	d10e      	bne.n	80014e8 <main+0x6c8>
 80014ca:	4b81      	ldr	r3, [pc, #516]	; (80016d0 <main+0x8b0>)
 80014cc:	681b      	ldr	r3, [r3, #0]
 80014ce:	2b03      	cmp	r3, #3
 80014d0:	d80a      	bhi.n	80014e8 <main+0x6c8>
	    	  strcpy(texto_pantalla, "Hora regar.|SistHumedad:");
 80014d2:	4a77      	ldr	r2, [pc, #476]	; (80016b0 <main+0x890>)
 80014d4:	4b7f      	ldr	r3, [pc, #508]	; (80016d4 <main+0x8b4>)
 80014d6:	4614      	mov	r4, r2
 80014d8:	461d      	mov	r5, r3
 80014da:	cd0f      	ldmia	r5!, {r0, r1, r2, r3}
 80014dc:	c40f      	stmia	r4!, {r0, r1, r2, r3}
 80014de:	e895 0007 	ldmia.w	r5, {r0, r1, r2}
 80014e2:	c403      	stmia	r4!, {r0, r1}
 80014e4:	7022      	strb	r2, [r4, #0]
 80014e6:	e009      	b.n	80014fc <main+0x6dc>
	      else
	    	  strcpy(texto_pantalla, "Regando....|SistHumedad:");
 80014e8:	4a71      	ldr	r2, [pc, #452]	; (80016b0 <main+0x890>)
 80014ea:	4b7b      	ldr	r3, [pc, #492]	; (80016d8 <main+0x8b8>)
 80014ec:	4614      	mov	r4, r2
 80014ee:	461d      	mov	r5, r3
 80014f0:	cd0f      	ldmia	r5!, {r0, r1, r2, r3}
 80014f2:	c40f      	stmia	r4!, {r0, r1, r2, r3}
 80014f4:	e895 0007 	ldmia.w	r5, {r0, r1, r2}
 80014f8:	c403      	stmia	r4!, {r0, r1}
 80014fa:	7022      	strb	r2, [r4, #0]
	      strcat(texto_pantalla, buffer);
 80014fc:	463b      	mov	r3, r7
 80014fe:	4619      	mov	r1, r3
 8001500:	486b      	ldr	r0, [pc, #428]	; (80016b0 <main+0x890>)
 8001502:	f004 fca9 	bl	8005e58 <strcat>
	      strcat(texto_pantalla, "%");
 8001506:	486a      	ldr	r0, [pc, #424]	; (80016b0 <main+0x890>)
 8001508:	f7fe fe6a 	bl	80001e0 <strlen>
 800150c:	4603      	mov	r3, r0
 800150e:	461a      	mov	r2, r3
 8001510:	4b67      	ldr	r3, [pc, #412]	; (80016b0 <main+0x890>)
 8001512:	4413      	add	r3, r2
 8001514:	4968      	ldr	r1, [pc, #416]	; (80016b8 <main+0x898>)
 8001516:	461a      	mov	r2, r3
 8001518:	460b      	mov	r3, r1
 800151a:	881b      	ldrh	r3, [r3, #0]
 800151c:	8013      	strh	r3, [r2, #0]
	      strcat(texto_pantalla, "|  ON");
 800151e:	4864      	ldr	r0, [pc, #400]	; (80016b0 <main+0x890>)
 8001520:	f7fe fe5e 	bl	80001e0 <strlen>
 8001524:	4603      	mov	r3, r0
 8001526:	461a      	mov	r2, r3
 8001528:	4b61      	ldr	r3, [pc, #388]	; (80016b0 <main+0x890>)
 800152a:	4413      	add	r3, r2
 800152c:	4a6b      	ldr	r2, [pc, #428]	; (80016dc <main+0x8bc>)
 800152e:	6810      	ldr	r0, [r2, #0]
 8001530:	6018      	str	r0, [r3, #0]
 8001532:	8892      	ldrh	r2, [r2, #4]
 8001534:	809a      	strh	r2, [r3, #4]
 8001536:	e056      	b.n	80015e6 <main+0x7c6>
	     }
	  else if (media < 50 && flag_agua == 0){ //Debera estar regando pero no hay agua
 8001538:	4b59      	ldr	r3, [pc, #356]	; (80016a0 <main+0x880>)
 800153a:	681b      	ldr	r3, [r3, #0]
 800153c:	2b31      	cmp	r3, #49	; 0x31
 800153e:	d821      	bhi.n	8001584 <main+0x764>
 8001540:	4b5a      	ldr	r3, [pc, #360]	; (80016ac <main+0x88c>)
 8001542:	681b      	ldr	r3, [r3, #0]
 8001544:	2b00      	cmp	r3, #0
 8001546:	d11d      	bne.n	8001584 <main+0x764>
	      strcpy(texto_pantalla, "ALERTA| Sin aguaHumedad:");
 8001548:	4a59      	ldr	r2, [pc, #356]	; (80016b0 <main+0x890>)
 800154a:	4b65      	ldr	r3, [pc, #404]	; (80016e0 <main+0x8c0>)
 800154c:	4614      	mov	r4, r2
 800154e:	461d      	mov	r5, r3
 8001550:	cd0f      	ldmia	r5!, {r0, r1, r2, r3}
 8001552:	c40f      	stmia	r4!, {r0, r1, r2, r3}
 8001554:	e895 0007 	ldmia.w	r5, {r0, r1, r2}
 8001558:	c403      	stmia	r4!, {r0, r1}
 800155a:	7022      	strb	r2, [r4, #0]
	      strcat(texto_pantalla, buffer);
 800155c:	463b      	mov	r3, r7
 800155e:	4619      	mov	r1, r3
 8001560:	4853      	ldr	r0, [pc, #332]	; (80016b0 <main+0x890>)
 8001562:	f004 fc79 	bl	8005e58 <strcat>
	      strcat(texto_pantalla, "%| !!!");
 8001566:	4852      	ldr	r0, [pc, #328]	; (80016b0 <main+0x890>)
 8001568:	f7fe fe3a 	bl	80001e0 <strlen>
 800156c:	4603      	mov	r3, r0
 800156e:	461a      	mov	r2, r3
 8001570:	4b4f      	ldr	r3, [pc, #316]	; (80016b0 <main+0x890>)
 8001572:	4413      	add	r3, r2
 8001574:	4a5b      	ldr	r2, [pc, #364]	; (80016e4 <main+0x8c4>)
 8001576:	6810      	ldr	r0, [r2, #0]
 8001578:	6018      	str	r0, [r3, #0]
 800157a:	8891      	ldrh	r1, [r2, #4]
 800157c:	7992      	ldrb	r2, [r2, #6]
 800157e:	8099      	strh	r1, [r3, #4]
 8001580:	719a      	strb	r2, [r3, #6]
 8001582:	e030      	b.n	80015e6 <main+0x7c6>
	      }
	  else if (!flag_riego && flag_agua == 0){ //No necesita regar pero si lo necesitara no habra agua
 8001584:	4b48      	ldr	r3, [pc, #288]	; (80016a8 <main+0x888>)
 8001586:	681b      	ldr	r3, [r3, #0]
 8001588:	2b00      	cmp	r3, #0
 800158a:	d125      	bne.n	80015d8 <main+0x7b8>
 800158c:	4b47      	ldr	r3, [pc, #284]	; (80016ac <main+0x88c>)
 800158e:	681b      	ldr	r3, [r3, #0]
 8001590:	2b00      	cmp	r3, #0
 8001592:	d121      	bne.n	80015d8 <main+0x7b8>
	      strcpy(texto_pantalla, "Midiendo..|AVISOHum:");
 8001594:	4a46      	ldr	r2, [pc, #280]	; (80016b0 <main+0x890>)
 8001596:	4b54      	ldr	r3, [pc, #336]	; (80016e8 <main+0x8c8>)
 8001598:	4614      	mov	r4, r2
 800159a:	461d      	mov	r5, r3
 800159c:	cd0f      	ldmia	r5!, {r0, r1, r2, r3}
 800159e:	c40f      	stmia	r4!, {r0, r1, r2, r3}
 80015a0:	e895 0003 	ldmia.w	r5, {r0, r1}
 80015a4:	6020      	str	r0, [r4, #0]
 80015a6:	3404      	adds	r4, #4
 80015a8:	7021      	strb	r1, [r4, #0]
	      strcat(texto_pantalla, buffer);
 80015aa:	463b      	mov	r3, r7
 80015ac:	4619      	mov	r1, r3
 80015ae:	4840      	ldr	r0, [pc, #256]	; (80016b0 <main+0x890>)
 80015b0:	f004 fc52 	bl	8005e58 <strcat>
	      strcat(texto_pantalla, "%|SIN AGUA");
 80015b4:	483e      	ldr	r0, [pc, #248]	; (80016b0 <main+0x890>)
 80015b6:	f7fe fe13 	bl	80001e0 <strlen>
 80015ba:	4603      	mov	r3, r0
 80015bc:	461a      	mov	r2, r3
 80015be:	4b3c      	ldr	r3, [pc, #240]	; (80016b0 <main+0x890>)
 80015c0:	4413      	add	r3, r2
 80015c2:	494a      	ldr	r1, [pc, #296]	; (80016ec <main+0x8cc>)
 80015c4:	461a      	mov	r2, r3
 80015c6:	460b      	mov	r3, r1
 80015c8:	cb03      	ldmia	r3!, {r0, r1}
 80015ca:	6010      	str	r0, [r2, #0]
 80015cc:	6051      	str	r1, [r2, #4]
 80015ce:	8819      	ldrh	r1, [r3, #0]
 80015d0:	789b      	ldrb	r3, [r3, #2]
 80015d2:	8111      	strh	r1, [r2, #8]
 80015d4:	7293      	strb	r3, [r2, #10]
 80015d6:	e006      	b.n	80015e6 <main+0x7c6>
	  	  }
	  else
	      strcpy(texto_pantalla, "ERROR");
 80015d8:	4b35      	ldr	r3, [pc, #212]	; (80016b0 <main+0x890>)
 80015da:	4a45      	ldr	r2, [pc, #276]	; (80016f0 <main+0x8d0>)
 80015dc:	e892 0003 	ldmia.w	r2, {r0, r1}
 80015e0:	6018      	str	r0, [r3, #0]
 80015e2:	3304      	adds	r3, #4
 80015e4:	8019      	strh	r1, [r3, #0]




	  if (((media < 50) || (flag_boton == 1) || ((water_hour == hour) && (water_minute == minute) && (second < 4))) && (flag_riego == 0) && ((HAL_GetTick() - ultima_vez) > TIEMPO_DESDE_ULTIMA_VEZ)){
 80015e6:	4b2e      	ldr	r3, [pc, #184]	; (80016a0 <main+0x880>)
 80015e8:	681b      	ldr	r3, [r3, #0]
 80015ea:	2b31      	cmp	r3, #49	; 0x31
 80015ec:	d913      	bls.n	8001616 <main+0x7f6>
 80015ee:	4b41      	ldr	r3, [pc, #260]	; (80016f4 <main+0x8d4>)
 80015f0:	681b      	ldr	r3, [r3, #0]
 80015f2:	2b01      	cmp	r3, #1
 80015f4:	d00f      	beq.n	8001616 <main+0x7f6>
 80015f6:	4b32      	ldr	r3, [pc, #200]	; (80016c0 <main+0x8a0>)
 80015f8:	681a      	ldr	r2, [r3, #0]
 80015fa:	4b32      	ldr	r3, [pc, #200]	; (80016c4 <main+0x8a4>)
 80015fc:	681b      	ldr	r3, [r3, #0]
 80015fe:	429a      	cmp	r2, r3
 8001600:	d12f      	bne.n	8001662 <main+0x842>
 8001602:	4b31      	ldr	r3, [pc, #196]	; (80016c8 <main+0x8a8>)
 8001604:	681a      	ldr	r2, [r3, #0]
 8001606:	4b31      	ldr	r3, [pc, #196]	; (80016cc <main+0x8ac>)
 8001608:	681b      	ldr	r3, [r3, #0]
 800160a:	429a      	cmp	r2, r3
 800160c:	d129      	bne.n	8001662 <main+0x842>
 800160e:	4b30      	ldr	r3, [pc, #192]	; (80016d0 <main+0x8b0>)
 8001610:	681b      	ldr	r3, [r3, #0]
 8001612:	2b03      	cmp	r3, #3
 8001614:	d825      	bhi.n	8001662 <main+0x842>
 8001616:	4b24      	ldr	r3, [pc, #144]	; (80016a8 <main+0x888>)
 8001618:	681b      	ldr	r3, [r3, #0]
 800161a:	2b00      	cmp	r3, #0
 800161c:	d121      	bne.n	8001662 <main+0x842>
 800161e:	f000 fe9d 	bl	800235c <HAL_GetTick>
 8001622:	4603      	mov	r3, r0
 8001624:	4a34      	ldr	r2, [pc, #208]	; (80016f8 <main+0x8d8>)
 8001626:	6812      	ldr	r2, [r2, #0]
 8001628:	1a9b      	subs	r3, r3, r2
 800162a:	f241 3288 	movw	r2, #5000	; 0x1388
 800162e:	4293      	cmp	r3, r2
 8001630:	d917      	bls.n	8001662 <main+0x842>
		  flag_boton = 0;
 8001632:	4b30      	ldr	r3, [pc, #192]	; (80016f4 <main+0x8d4>)
 8001634:	2200      	movs	r2, #0
 8001636:	601a      	str	r2, [r3, #0]
	  	  if (detec_lvl(ADC_value[0]) > 0){
 8001638:	4b30      	ldr	r3, [pc, #192]	; (80016fc <main+0x8dc>)
 800163a:	881b      	ldrh	r3, [r3, #0]
 800163c:	4618      	mov	r0, r3
 800163e:	f7ff facd 	bl	8000bdc <detec_lvl>
 8001642:	4603      	mov	r3, r0
 8001644:	2b00      	cmp	r3, #0
 8001646:	dd0c      	ble.n	8001662 <main+0x842>
	  		  HAL_NVIC_DisableIRQ(EXTI0_IRQn); //Deshabilitar las interrupciones
 8001648:	2006      	movs	r0, #6
 800164a:	f001 fcfc 	bl	8003046 <HAL_NVIC_DisableIRQ>
	  		  flag_riego = 1;
 800164e:	4b16      	ldr	r3, [pc, #88]	; (80016a8 <main+0x888>)
 8001650:	2201      	movs	r2, #1
 8001652:	601a      	str	r2, [r3, #0]
	  		  //HAL_GPIO_WritePin(GPIOE, GPIO_PIN_11, 1);
	  		  HAL_TIM_OC_Start_IT(&htim1, TIM_CHANNEL_2);
 8001654:	2104      	movs	r1, #4
 8001656:	482a      	ldr	r0, [pc, #168]	; (8001700 <main+0x8e0>)
 8001658:	f003 fc12 	bl	8004e80 <HAL_TIM_OC_Start_IT>
	  		  HAL_NVIC_EnableIRQ(EXTI0_IRQn); //Volver a habilitar las interrupciones
 800165c:	2006      	movs	r0, #6
 800165e:	f001 fce4 	bl	800302a <HAL_NVIC_EnableIRQ>
	  	  }
	  }

	  //Detener el riego si se queda sin agua
	  if ((!flag_agua) && (flag_riego)){
 8001662:	4b12      	ldr	r3, [pc, #72]	; (80016ac <main+0x88c>)
 8001664:	681b      	ldr	r3, [r3, #0]
 8001666:	2b00      	cmp	r3, #0
 8001668:	f47f ae1b 	bne.w	80012a2 <main+0x482>
 800166c:	4b0e      	ldr	r3, [pc, #56]	; (80016a8 <main+0x888>)
 800166e:	681b      	ldr	r3, [r3, #0]
 8001670:	2b00      	cmp	r3, #0
 8001672:	f43f ae16 	beq.w	80012a2 <main+0x482>
		  flag_riego=0;
 8001676:	4b0c      	ldr	r3, [pc, #48]	; (80016a8 <main+0x888>)
 8001678:	2200      	movs	r2, #0
 800167a:	601a      	str	r2, [r3, #0]
		  nint=0;
 800167c:	4b21      	ldr	r3, [pc, #132]	; (8001704 <main+0x8e4>)
 800167e:	2200      	movs	r2, #0
 8001680:	601a      	str	r2, [r3, #0]
	  		 HAL_TIM_OC_Stop_IT(&htim1, TIM_CHANNEL_2);
 8001682:	2104      	movs	r1, #4
 8001684:	481e      	ldr	r0, [pc, #120]	; (8001700 <main+0x8e0>)
 8001686:	f003 fcf9 	bl	800507c <HAL_TIM_OC_Stop_IT>
	  		 __HAL_TIM_SET_COUNTER(&htim1, 0);
 800168a:	4b1d      	ldr	r3, [pc, #116]	; (8001700 <main+0x8e0>)
 800168c:	681b      	ldr	r3, [r3, #0]
 800168e:	2200      	movs	r2, #0
 8001690:	625a      	str	r2, [r3, #36]	; 0x24
	  		 ultima_vez = HAL_GetTick();
 8001692:	f000 fe63 	bl	800235c <HAL_GetTick>
 8001696:	4603      	mov	r3, r0
 8001698:	461a      	mov	r2, r3
 800169a:	4b17      	ldr	r3, [pc, #92]	; (80016f8 <main+0x8d8>)
 800169c:	601a      	str	r2, [r3, #0]
  {
 800169e:	e600      	b.n	80012a2 <main+0x482>
 80016a0:	20000258 	.word	0x20000258
 80016a4:	08006750 	.word	0x08006750
 80016a8:	2000024c 	.word	0x2000024c
 80016ac:	20000254 	.word	0x20000254
 80016b0:	2000025c 	.word	0x2000025c
 80016b4:	0800680c 	.word	0x0800680c
 80016b8:	08006828 	.word	0x08006828
 80016bc:	0800682c 	.word	0x0800682c
 80016c0:	20000028 	.word	0x20000028
 80016c4:	20000290 	.word	0x20000290
 80016c8:	200002a8 	.word	0x200002a8
 80016cc:	2000028c 	.word	0x2000028c
 80016d0:	20000288 	.word	0x20000288
 80016d4:	08006834 	.word	0x08006834
 80016d8:	08006850 	.word	0x08006850
 80016dc:	0800686c 	.word	0x0800686c
 80016e0:	08006874 	.word	0x08006874
 80016e4:	08006890 	.word	0x08006890
 80016e8:	08006898 	.word	0x08006898
 80016ec:	080068b0 	.word	0x080068b0
 80016f0:	080068bc 	.word	0x080068bc
 80016f4:	20000250 	.word	0x20000250
 80016f8:	20000280 	.word	0x20000280
 80016fc:	20000244 	.word	0x20000244
 8001700:	200001b4 	.word	0x200001b4
 8001704:	20000284 	.word	0x20000284

08001708 <SystemClock_Config>:
/**
  * @brief System Clock Configuration
  * @retval None
  */
void SystemClock_Config(void)
{
 8001708:	b580      	push	{r7, lr}
 800170a:	b094      	sub	sp, #80	; 0x50
 800170c:	af00      	add	r7, sp, #0
  RCC_OscInitTypeDef RCC_OscInitStruct = {0};
 800170e:	f107 0320 	add.w	r3, r7, #32
 8001712:	2230      	movs	r2, #48	; 0x30
 8001714:	2100      	movs	r1, #0
 8001716:	4618      	mov	r0, r3
 8001718:	f004 fb76 	bl	8005e08 <memset>
  RCC_ClkInitTypeDef RCC_ClkInitStruct = {0};
 800171c:	f107 030c 	add.w	r3, r7, #12
 8001720:	2200      	movs	r2, #0
 8001722:	601a      	str	r2, [r3, #0]
 8001724:	605a      	str	r2, [r3, #4]
 8001726:	609a      	str	r2, [r3, #8]
 8001728:	60da      	str	r2, [r3, #12]
 800172a:	611a      	str	r2, [r3, #16]

  /** Configure the main internal regulator output voltage
  */
  __HAL_RCC_PWR_CLK_ENABLE();
 800172c:	2300      	movs	r3, #0
 800172e:	60bb      	str	r3, [r7, #8]
 8001730:	4b27      	ldr	r3, [pc, #156]	; (80017d0 <SystemClock_Config+0xc8>)
 8001732:	6c1b      	ldr	r3, [r3, #64]	; 0x40
 8001734:	4a26      	ldr	r2, [pc, #152]	; (80017d0 <SystemClock_Config+0xc8>)
 8001736:	f043 5380 	orr.w	r3, r3, #268435456	; 0x10000000
 800173a:	6413      	str	r3, [r2, #64]	; 0x40
 800173c:	4b24      	ldr	r3, [pc, #144]	; (80017d0 <SystemClock_Config+0xc8>)
 800173e:	6c1b      	ldr	r3, [r3, #64]	; 0x40
 8001740:	f003 5380 	and.w	r3, r3, #268435456	; 0x10000000
 8001744:	60bb      	str	r3, [r7, #8]
 8001746:	68bb      	ldr	r3, [r7, #8]
  __HAL_PWR_VOLTAGESCALING_CONFIG(PWR_REGULATOR_VOLTAGE_SCALE1);
 8001748:	2300      	movs	r3, #0
 800174a:	607b      	str	r3, [r7, #4]
 800174c:	4b21      	ldr	r3, [pc, #132]	; (80017d4 <SystemClock_Config+0xcc>)
 800174e:	681b      	ldr	r3, [r3, #0]
 8001750:	4a20      	ldr	r2, [pc, #128]	; (80017d4 <SystemClock_Config+0xcc>)
 8001752:	f443 4340 	orr.w	r3, r3, #49152	; 0xc000
 8001756:	6013      	str	r3, [r2, #0]
 8001758:	4b1e      	ldr	r3, [pc, #120]	; (80017d4 <SystemClock_Config+0xcc>)
 800175a:	681b      	ldr	r3, [r3, #0]
 800175c:	f403 4340 	and.w	r3, r3, #49152	; 0xc000
 8001760:	607b      	str	r3, [r7, #4]
 8001762:	687b      	ldr	r3, [r7, #4]

  /** Initializes the RCC Oscillators according to the specified parameters
  * in the RCC_OscInitTypeDef structure.
  */
  RCC_OscInitStruct.OscillatorType = RCC_OSCILLATORTYPE_HSI;
 8001764:	2302      	movs	r3, #2
 8001766:	623b      	str	r3, [r7, #32]
  RCC_OscInitStruct.HSIState = RCC_HSI_ON;
 8001768:	2301      	movs	r3, #1
 800176a:	62fb      	str	r3, [r7, #44]	; 0x2c
  RCC_OscInitStruct.HSICalibrationValue = RCC_HSICALIBRATION_DEFAULT;
 800176c:	2310      	movs	r3, #16
 800176e:	633b      	str	r3, [r7, #48]	; 0x30
  RCC_OscInitStruct.PLL.PLLState = RCC_PLL_ON;
 8001770:	2302      	movs	r3, #2
 8001772:	63bb      	str	r3, [r7, #56]	; 0x38
  RCC_OscInitStruct.PLL.PLLSource = RCC_PLLSOURCE_HSI;
 8001774:	2300      	movs	r3, #0
 8001776:	63fb      	str	r3, [r7, #60]	; 0x3c
  RCC_OscInitStruct.PLL.PLLM = 8;
 8001778:	2308      	movs	r3, #8
 800177a:	643b      	str	r3, [r7, #64]	; 0x40
  RCC_OscInitStruct.PLL.PLLN = 50;
 800177c:	2332      	movs	r3, #50	; 0x32
 800177e:	647b      	str	r3, [r7, #68]	; 0x44
  RCC_OscInitStruct.PLL.PLLP = RCC_PLLP_DIV2;
 8001780:	2302      	movs	r3, #2
 8001782:	64bb      	str	r3, [r7, #72]	; 0x48
  RCC_OscInitStruct.PLL.PLLQ = 8;
 8001784:	2308      	movs	r3, #8
 8001786:	64fb      	str	r3, [r7, #76]	; 0x4c
  if (HAL_RCC_OscConfig(&RCC_OscInitStruct) != HAL_OK)
 8001788:	f107 0320 	add.w	r3, r7, #32
 800178c:	4618      	mov	r0, r3
 800178e:	f002 fde7 	bl	8004360 <HAL_RCC_OscConfig>
 8001792:	4603      	mov	r3, r0
 8001794:	2b00      	cmp	r3, #0
 8001796:	d001      	beq.n	800179c <SystemClock_Config+0x94>
  {
    Error_Handler();
 8001798:	f000 fb3a 	bl	8001e10 <Error_Handler>
  }

  /** Initializes the CPU, AHB and APB buses clocks
  */
  RCC_ClkInitStruct.ClockType = RCC_CLOCKTYPE_HCLK|RCC_CLOCKTYPE_SYSCLK
 800179c:	230f      	movs	r3, #15
 800179e:	60fb      	str	r3, [r7, #12]
                              |RCC_CLOCKTYPE_PCLK1|RCC_CLOCKTYPE_PCLK2;
  RCC_ClkInitStruct.SYSCLKSource = RCC_SYSCLKSOURCE_PLLCLK;
 80017a0:	2302      	movs	r3, #2
 80017a2:	613b      	str	r3, [r7, #16]
  RCC_ClkInitStruct.AHBCLKDivider = RCC_SYSCLK_DIV1;
 80017a4:	2300      	movs	r3, #0
 80017a6:	617b      	str	r3, [r7, #20]
  RCC_ClkInitStruct.APB1CLKDivider = RCC_HCLK_DIV4;
 80017a8:	f44f 53a0 	mov.w	r3, #5120	; 0x1400
 80017ac:	61bb      	str	r3, [r7, #24]
  RCC_ClkInitStruct.APB2CLKDivider = RCC_HCLK_DIV1;
 80017ae:	2300      	movs	r3, #0
 80017b0:	61fb      	str	r3, [r7, #28]

  if (HAL_RCC_ClockConfig(&RCC_ClkInitStruct, FLASH_LATENCY_1) != HAL_OK)
 80017b2:	f107 030c 	add.w	r3, r7, #12
 80017b6:	2101      	movs	r1, #1
 80017b8:	4618      	mov	r0, r3
 80017ba:	f003 f849 	bl	8004850 <HAL_RCC_ClockConfig>
 80017be:	4603      	mov	r3, r0
 80017c0:	2b00      	cmp	r3, #0
 80017c2:	d001      	beq.n	80017c8 <SystemClock_Config+0xc0>
  {
    Error_Handler();
 80017c4:	f000 fb24 	bl	8001e10 <Error_Handler>
  }
}
 80017c8:	bf00      	nop
 80017ca:	3750      	adds	r7, #80	; 0x50
 80017cc:	46bd      	mov	sp, r7
 80017ce:	bd80      	pop	{r7, pc}
 80017d0:	40023800 	.word	0x40023800
 80017d4:	40007000 	.word	0x40007000

080017d8 <MX_ADC1_Init>:
  * @brief ADC1 Initialization Function
  * @param None
  * @retval None
  */
static void MX_ADC1_Init(void)
{
 80017d8:	b580      	push	{r7, lr}
 80017da:	b084      	sub	sp, #16
 80017dc:	af00      	add	r7, sp, #0

  /* USER CODE BEGIN ADC1_Init 0 */

  /* USER CODE END ADC1_Init 0 */

  ADC_ChannelConfTypeDef sConfig = {0};
 80017de:	463b      	mov	r3, r7
 80017e0:	2200      	movs	r2, #0
 80017e2:	601a      	str	r2, [r3, #0]
 80017e4:	605a      	str	r2, [r3, #4]
 80017e6:	609a      	str	r2, [r3, #8]
 80017e8:	60da      	str	r2, [r3, #12]

  /* USER CODE END ADC1_Init 1 */

  /** Configure the global features of the ADC (Clock, Resolution, Data Alignment and number of conversion)
  */
  hadc1.Instance = ADC1;
 80017ea:	4b28      	ldr	r3, [pc, #160]	; (800188c <MX_ADC1_Init+0xb4>)
 80017ec:	4a28      	ldr	r2, [pc, #160]	; (8001890 <MX_ADC1_Init+0xb8>)
 80017ee:	601a      	str	r2, [r3, #0]
  hadc1.Init.ClockPrescaler = ADC_CLOCK_SYNC_PCLK_DIV2;
 80017f0:	4b26      	ldr	r3, [pc, #152]	; (800188c <MX_ADC1_Init+0xb4>)
 80017f2:	2200      	movs	r2, #0
 80017f4:	605a      	str	r2, [r3, #4]
  hadc1.Init.Resolution = ADC_RESOLUTION_12B;
 80017f6:	4b25      	ldr	r3, [pc, #148]	; (800188c <MX_ADC1_Init+0xb4>)
 80017f8:	2200      	movs	r2, #0
 80017fa:	609a      	str	r2, [r3, #8]
  hadc1.Init.ScanConvMode = ENABLE;
 80017fc:	4b23      	ldr	r3, [pc, #140]	; (800188c <MX_ADC1_Init+0xb4>)
 80017fe:	2201      	movs	r2, #1
 8001800:	611a      	str	r2, [r3, #16]
  hadc1.Init.ContinuousConvMode = ENABLE;
 8001802:	4b22      	ldr	r3, [pc, #136]	; (800188c <MX_ADC1_Init+0xb4>)
 8001804:	2201      	movs	r2, #1
 8001806:	761a      	strb	r2, [r3, #24]
  hadc1.Init.DiscontinuousConvMode = DISABLE;
 8001808:	4b20      	ldr	r3, [pc, #128]	; (800188c <MX_ADC1_Init+0xb4>)
 800180a:	2200      	movs	r2, #0
 800180c:	f883 2020 	strb.w	r2, [r3, #32]
  hadc1.Init.ExternalTrigConvEdge = ADC_EXTERNALTRIGCONVEDGE_NONE;
 8001810:	4b1e      	ldr	r3, [pc, #120]	; (800188c <MX_ADC1_Init+0xb4>)
 8001812:	2200      	movs	r2, #0
 8001814:	62da      	str	r2, [r3, #44]	; 0x2c
  hadc1.Init.ExternalTrigConv = ADC_SOFTWARE_START;
 8001816:	4b1d      	ldr	r3, [pc, #116]	; (800188c <MX_ADC1_Init+0xb4>)
 8001818:	4a1e      	ldr	r2, [pc, #120]	; (8001894 <MX_ADC1_Init+0xbc>)
 800181a:	629a      	str	r2, [r3, #40]	; 0x28
  hadc1.Init.DataAlign = ADC_DATAALIGN_RIGHT;
 800181c:	4b1b      	ldr	r3, [pc, #108]	; (800188c <MX_ADC1_Init+0xb4>)
 800181e:	2200      	movs	r2, #0
 8001820:	60da      	str	r2, [r3, #12]
  hadc1.Init.NbrOfConversion = 2;
 8001822:	4b1a      	ldr	r3, [pc, #104]	; (800188c <MX_ADC1_Init+0xb4>)
 8001824:	2202      	movs	r2, #2
 8001826:	61da      	str	r2, [r3, #28]
  hadc1.Init.DMAContinuousRequests = ENABLE;
 8001828:	4b18      	ldr	r3, [pc, #96]	; (800188c <MX_ADC1_Init+0xb4>)
 800182a:	2201      	movs	r2, #1
 800182c:	f883 2030 	strb.w	r2, [r3, #48]	; 0x30
  hadc1.Init.EOCSelection = ADC_EOC_SINGLE_CONV;
 8001830:	4b16      	ldr	r3, [pc, #88]	; (800188c <MX_ADC1_Init+0xb4>)
 8001832:	2201      	movs	r2, #1
 8001834:	615a      	str	r2, [r3, #20]
  if (HAL_ADC_Init(&hadc1) != HAL_OK)
 8001836:	4815      	ldr	r0, [pc, #84]	; (800188c <MX_ADC1_Init+0xb4>)
 8001838:	f000 fdc0 	bl	80023bc <HAL_ADC_Init>
 800183c:	4603      	mov	r3, r0
 800183e:	2b00      	cmp	r3, #0
 8001840:	d001      	beq.n	8001846 <MX_ADC1_Init+0x6e>
  {
    Error_Handler();
 8001842:	f000 fae5 	bl	8001e10 <Error_Handler>
  }

  /** Configure for the selected ADC regular channel its corresponding rank in the sequencer and its sample time.
  */
  sConfig.Channel = ADC_CHANNEL_4;
 8001846:	2304      	movs	r3, #4
 8001848:	603b      	str	r3, [r7, #0]
  sConfig.Rank = 1;
 800184a:	2301      	movs	r3, #1
 800184c:	607b      	str	r3, [r7, #4]
  sConfig.SamplingTime = ADC_SAMPLETIME_480CYCLES;
 800184e:	2307      	movs	r3, #7
 8001850:	60bb      	str	r3, [r7, #8]
  if (HAL_ADC_ConfigChannel(&hadc1, &sConfig) != HAL_OK)
 8001852:	463b      	mov	r3, r7
 8001854:	4619      	mov	r1, r3
 8001856:	480d      	ldr	r0, [pc, #52]	; (800188c <MX_ADC1_Init+0xb4>)
 8001858:	f001 f812 	bl	8002880 <HAL_ADC_ConfigChannel>
 800185c:	4603      	mov	r3, r0
 800185e:	2b00      	cmp	r3, #0
 8001860:	d001      	beq.n	8001866 <MX_ADC1_Init+0x8e>
  {
    Error_Handler();
 8001862:	f000 fad5 	bl	8001e10 <Error_Handler>
  }

  /** Configure for the selected ADC regular channel its corresponding rank in the sequencer and its sample time.
  */
  sConfig.Channel = ADC_CHANNEL_5;
 8001866:	2305      	movs	r3, #5
 8001868:	603b      	str	r3, [r7, #0]
  sConfig.Rank = 2;
 800186a:	2302      	movs	r3, #2
 800186c:	607b      	str	r3, [r7, #4]
  if (HAL_ADC_ConfigChannel(&hadc1, &sConfig) != HAL_OK)
 800186e:	463b      	mov	r3, r7
 8001870:	4619      	mov	r1, r3
 8001872:	4806      	ldr	r0, [pc, #24]	; (800188c <MX_ADC1_Init+0xb4>)
 8001874:	f001 f804 	bl	8002880 <HAL_ADC_ConfigChannel>
 8001878:	4603      	mov	r3, r0
 800187a:	2b00      	cmp	r3, #0
 800187c:	d001      	beq.n	8001882 <MX_ADC1_Init+0xaa>
  {
    Error_Handler();
 800187e:	f000 fac7 	bl	8001e10 <Error_Handler>
  }
  /* USER CODE BEGIN ADC1_Init 2 */

  /* USER CODE END ADC1_Init 2 */

}
 8001882:	bf00      	nop
 8001884:	3710      	adds	r7, #16
 8001886:	46bd      	mov	sp, r7
 8001888:	bd80      	pop	{r7, pc}
 800188a:	bf00      	nop
 800188c:	200000b8 	.word	0x200000b8
 8001890:	40012000 	.word	0x40012000
 8001894:	0f000001 	.word	0x0f000001

08001898 <MX_I2C1_Init>:
  * @brief I2C1 Initialization Function
  * @param None
  * @retval None
  */
static void MX_I2C1_Init(void)
{
 8001898:	b580      	push	{r7, lr}
 800189a:	af00      	add	r7, sp, #0
  /* USER CODE END I2C1_Init 0 */

  /* USER CODE BEGIN I2C1_Init 1 */

  /* USER CODE END I2C1_Init 1 */
  hi2c1.Instance = I2C1;
 800189c:	4b12      	ldr	r3, [pc, #72]	; (80018e8 <MX_I2C1_Init+0x50>)
 800189e:	4a13      	ldr	r2, [pc, #76]	; (80018ec <MX_I2C1_Init+0x54>)
 80018a0:	601a      	str	r2, [r3, #0]
  hi2c1.Init.ClockSpeed = 100000;
 80018a2:	4b11      	ldr	r3, [pc, #68]	; (80018e8 <MX_I2C1_Init+0x50>)
 80018a4:	4a12      	ldr	r2, [pc, #72]	; (80018f0 <MX_I2C1_Init+0x58>)
 80018a6:	605a      	str	r2, [r3, #4]
  hi2c1.Init.DutyCycle = I2C_DUTYCYCLE_2;
 80018a8:	4b0f      	ldr	r3, [pc, #60]	; (80018e8 <MX_I2C1_Init+0x50>)
 80018aa:	2200      	movs	r2, #0
 80018ac:	609a      	str	r2, [r3, #8]
  hi2c1.Init.OwnAddress1 = 0;
 80018ae:	4b0e      	ldr	r3, [pc, #56]	; (80018e8 <MX_I2C1_Init+0x50>)
 80018b0:	2200      	movs	r2, #0
 80018b2:	60da      	str	r2, [r3, #12]
  hi2c1.Init.AddressingMode = I2C_ADDRESSINGMODE_7BIT;
 80018b4:	4b0c      	ldr	r3, [pc, #48]	; (80018e8 <MX_I2C1_Init+0x50>)
 80018b6:	f44f 4280 	mov.w	r2, #16384	; 0x4000
 80018ba:	611a      	str	r2, [r3, #16]
  hi2c1.Init.DualAddressMode = I2C_DUALADDRESS_DISABLE;
 80018bc:	4b0a      	ldr	r3, [pc, #40]	; (80018e8 <MX_I2C1_Init+0x50>)
 80018be:	2200      	movs	r2, #0
 80018c0:	615a      	str	r2, [r3, #20]
  hi2c1.Init.OwnAddress2 = 0;
 80018c2:	4b09      	ldr	r3, [pc, #36]	; (80018e8 <MX_I2C1_Init+0x50>)
 80018c4:	2200      	movs	r2, #0
 80018c6:	619a      	str	r2, [r3, #24]
  hi2c1.Init.GeneralCallMode = I2C_GENERALCALL_DISABLE;
 80018c8:	4b07      	ldr	r3, [pc, #28]	; (80018e8 <MX_I2C1_Init+0x50>)
 80018ca:	2200      	movs	r2, #0
 80018cc:	61da      	str	r2, [r3, #28]
  hi2c1.Init.NoStretchMode = I2C_NOSTRETCH_DISABLE;
 80018ce:	4b06      	ldr	r3, [pc, #24]	; (80018e8 <MX_I2C1_Init+0x50>)
 80018d0:	2200      	movs	r2, #0
 80018d2:	621a      	str	r2, [r3, #32]
  if (HAL_I2C_Init(&hi2c1) != HAL_OK)
 80018d4:	4804      	ldr	r0, [pc, #16]	; (80018e8 <MX_I2C1_Init+0x50>)
 80018d6:	f002 f8f7 	bl	8003ac8 <HAL_I2C_Init>
 80018da:	4603      	mov	r3, r0
 80018dc:	2b00      	cmp	r3, #0
 80018de:	d001      	beq.n	80018e4 <MX_I2C1_Init+0x4c>
  {
    Error_Handler();
 80018e0:	f000 fa96 	bl	8001e10 <Error_Handler>
  }
  /* USER CODE BEGIN I2C1_Init 2 */

  /* USER CODE END I2C1_Init 2 */

}
 80018e4:	bf00      	nop
 80018e6:	bd80      	pop	{r7, pc}
 80018e8:	20000160 	.word	0x20000160
 80018ec:	40005400 	.word	0x40005400
 80018f0:	000186a0 	.word	0x000186a0

080018f4 <MX_TIM1_Init>:
  * @brief TIM1 Initialization Function
  * @param None
  * @retval None
  */
static void MX_TIM1_Init(void)
{
 80018f4:	b580      	push	{r7, lr}
 80018f6:	b096      	sub	sp, #88	; 0x58
 80018f8:	af00      	add	r7, sp, #0

  /* USER CODE BEGIN TIM1_Init 0 */

  /* USER CODE END TIM1_Init 0 */

  TIM_ClockConfigTypeDef sClockSourceConfig = {0};
 80018fa:	f107 0348 	add.w	r3, r7, #72	; 0x48
 80018fe:	2200      	movs	r2, #0
 8001900:	601a      	str	r2, [r3, #0]
 8001902:	605a      	str	r2, [r3, #4]
 8001904:	609a      	str	r2, [r3, #8]
 8001906:	60da      	str	r2, [r3, #12]
  TIM_MasterConfigTypeDef sMasterConfig = {0};
 8001908:	f107 0340 	add.w	r3, r7, #64	; 0x40
 800190c:	2200      	movs	r2, #0
 800190e:	601a      	str	r2, [r3, #0]
 8001910:	605a      	str	r2, [r3, #4]
  TIM_OC_InitTypeDef sConfigOC = {0};
 8001912:	f107 0324 	add.w	r3, r7, #36	; 0x24
 8001916:	2200      	movs	r2, #0
 8001918:	601a      	str	r2, [r3, #0]
 800191a:	605a      	str	r2, [r3, #4]
 800191c:	609a      	str	r2, [r3, #8]
 800191e:	60da      	str	r2, [r3, #12]
 8001920:	611a      	str	r2, [r3, #16]
 8001922:	615a      	str	r2, [r3, #20]
 8001924:	619a      	str	r2, [r3, #24]
  TIM_BreakDeadTimeConfigTypeDef sBreakDeadTimeConfig = {0};
 8001926:	1d3b      	adds	r3, r7, #4
 8001928:	2220      	movs	r2, #32
 800192a:	2100      	movs	r1, #0
 800192c:	4618      	mov	r0, r3
 800192e:	f004 fa6b 	bl	8005e08 <memset>

  /* USER CODE BEGIN TIM1_Init 1 */

  /* USER CODE END TIM1_Init 1 */
  htim1.Instance = TIM1;
 8001932:	4b3f      	ldr	r3, [pc, #252]	; (8001a30 <MX_TIM1_Init+0x13c>)
 8001934:	4a3f      	ldr	r2, [pc, #252]	; (8001a34 <MX_TIM1_Init+0x140>)
 8001936:	601a      	str	r2, [r3, #0]
  htim1.Init.Prescaler = 49999;
 8001938:	4b3d      	ldr	r3, [pc, #244]	; (8001a30 <MX_TIM1_Init+0x13c>)
 800193a:	f24c 324f 	movw	r2, #49999	; 0xc34f
 800193e:	605a      	str	r2, [r3, #4]
  htim1.Init.CounterMode = TIM_COUNTERMODE_UP;
 8001940:	4b3b      	ldr	r3, [pc, #236]	; (8001a30 <MX_TIM1_Init+0x13c>)
 8001942:	2200      	movs	r2, #0
 8001944:	609a      	str	r2, [r3, #8]
  htim1.Init.Period = 4999;
 8001946:	4b3a      	ldr	r3, [pc, #232]	; (8001a30 <MX_TIM1_Init+0x13c>)
 8001948:	f241 3287 	movw	r2, #4999	; 0x1387
 800194c:	60da      	str	r2, [r3, #12]
  htim1.Init.ClockDivision = TIM_CLOCKDIVISION_DIV1;
 800194e:	4b38      	ldr	r3, [pc, #224]	; (8001a30 <MX_TIM1_Init+0x13c>)
 8001950:	2200      	movs	r2, #0
 8001952:	611a      	str	r2, [r3, #16]
  htim1.Init.RepetitionCounter = 0;
 8001954:	4b36      	ldr	r3, [pc, #216]	; (8001a30 <MX_TIM1_Init+0x13c>)
 8001956:	2200      	movs	r2, #0
 8001958:	615a      	str	r2, [r3, #20]
  htim1.Init.AutoReloadPreload = TIM_AUTORELOAD_PRELOAD_DISABLE;
 800195a:	4b35      	ldr	r3, [pc, #212]	; (8001a30 <MX_TIM1_Init+0x13c>)
 800195c:	2200      	movs	r2, #0
 800195e:	619a      	str	r2, [r3, #24]
  if (HAL_TIM_Base_Init(&htim1) != HAL_OK)
 8001960:	4833      	ldr	r0, [pc, #204]	; (8001a30 <MX_TIM1_Init+0x13c>)
 8001962:	f003 f981 	bl	8004c68 <HAL_TIM_Base_Init>
 8001966:	4603      	mov	r3, r0
 8001968:	2b00      	cmp	r3, #0
 800196a:	d001      	beq.n	8001970 <MX_TIM1_Init+0x7c>
  {
    Error_Handler();
 800196c:	f000 fa50 	bl	8001e10 <Error_Handler>
  }
  sClockSourceConfig.ClockSource = TIM_CLOCKSOURCE_INTERNAL;
 8001970:	f44f 5380 	mov.w	r3, #4096	; 0x1000
 8001974:	64bb      	str	r3, [r7, #72]	; 0x48
  if (HAL_TIM_ConfigClockSource(&htim1, &sClockSourceConfig) != HAL_OK)
 8001976:	f107 0348 	add.w	r3, r7, #72	; 0x48
 800197a:	4619      	mov	r1, r3
 800197c:	482c      	ldr	r0, [pc, #176]	; (8001a30 <MX_TIM1_Init+0x13c>)
 800197e:	f003 fd93 	bl	80054a8 <HAL_TIM_ConfigClockSource>
 8001982:	4603      	mov	r3, r0
 8001984:	2b00      	cmp	r3, #0
 8001986:	d001      	beq.n	800198c <MX_TIM1_Init+0x98>
  {
    Error_Handler();
 8001988:	f000 fa42 	bl	8001e10 <Error_Handler>
  }
  if (HAL_TIM_OC_Init(&htim1) != HAL_OK)
 800198c:	4828      	ldr	r0, [pc, #160]	; (8001a30 <MX_TIM1_Init+0x13c>)
 800198e:	f003 fa1d 	bl	8004dcc <HAL_TIM_OC_Init>
 8001992:	4603      	mov	r3, r0
 8001994:	2b00      	cmp	r3, #0
 8001996:	d001      	beq.n	800199c <MX_TIM1_Init+0xa8>
  {
    Error_Handler();
 8001998:	f000 fa3a 	bl	8001e10 <Error_Handler>
  }
  sMasterConfig.MasterOutputTrigger = TIM_TRGO_RESET;
 800199c:	2300      	movs	r3, #0
 800199e:	643b      	str	r3, [r7, #64]	; 0x40
  sMasterConfig.MasterSlaveMode = TIM_MASTERSLAVEMODE_DISABLE;
 80019a0:	2300      	movs	r3, #0
 80019a2:	647b      	str	r3, [r7, #68]	; 0x44
  if (HAL_TIMEx_MasterConfigSynchronization(&htim1, &sMasterConfig) != HAL_OK)
 80019a4:	f107 0340 	add.w	r3, r7, #64	; 0x40
 80019a8:	4619      	mov	r1, r3
 80019aa:	4821      	ldr	r0, [pc, #132]	; (8001a30 <MX_TIM1_Init+0x13c>)
 80019ac:	f004 f92e 	bl	8005c0c <HAL_TIMEx_MasterConfigSynchronization>
 80019b0:	4603      	mov	r3, r0
 80019b2:	2b00      	cmp	r3, #0
 80019b4:	d001      	beq.n	80019ba <MX_TIM1_Init+0xc6>
  {
    Error_Handler();
 80019b6:	f000 fa2b 	bl	8001e10 <Error_Handler>
  }
  sConfigOC.OCMode = TIM_OCMODE_ACTIVE;
 80019ba:	2310      	movs	r3, #16
 80019bc:	627b      	str	r3, [r7, #36]	; 0x24
  sConfigOC.Pulse = 0;
 80019be:	2300      	movs	r3, #0
 80019c0:	62bb      	str	r3, [r7, #40]	; 0x28
  sConfigOC.OCPolarity = TIM_OCPOLARITY_HIGH;
 80019c2:	2300      	movs	r3, #0
 80019c4:	62fb      	str	r3, [r7, #44]	; 0x2c
  sConfigOC.OCNPolarity = TIM_OCNPOLARITY_HIGH;
 80019c6:	2300      	movs	r3, #0
 80019c8:	633b      	str	r3, [r7, #48]	; 0x30
  sConfigOC.OCFastMode = TIM_OCFAST_DISABLE;
 80019ca:	2300      	movs	r3, #0
 80019cc:	637b      	str	r3, [r7, #52]	; 0x34
  sConfigOC.OCIdleState = TIM_OCIDLESTATE_RESET;
 80019ce:	2300      	movs	r3, #0
 80019d0:	63bb      	str	r3, [r7, #56]	; 0x38
  sConfigOC.OCNIdleState = TIM_OCNIDLESTATE_RESET;
 80019d2:	2300      	movs	r3, #0
 80019d4:	63fb      	str	r3, [r7, #60]	; 0x3c
  if (HAL_TIM_OC_ConfigChannel(&htim1, &sConfigOC, TIM_CHANNEL_2) != HAL_OK)
 80019d6:	f107 0324 	add.w	r3, r7, #36	; 0x24
 80019da:	2204      	movs	r2, #4
 80019dc:	4619      	mov	r1, r3
 80019de:	4814      	ldr	r0, [pc, #80]	; (8001a30 <MX_TIM1_Init+0x13c>)
 80019e0:	f003 fd06 	bl	80053f0 <HAL_TIM_OC_ConfigChannel>
 80019e4:	4603      	mov	r3, r0
 80019e6:	2b00      	cmp	r3, #0
 80019e8:	d001      	beq.n	80019ee <MX_TIM1_Init+0xfa>
  {
    Error_Handler();
 80019ea:	f000 fa11 	bl	8001e10 <Error_Handler>
  }
  sBreakDeadTimeConfig.OffStateRunMode = TIM_OSSR_DISABLE;
 80019ee:	2300      	movs	r3, #0
 80019f0:	607b      	str	r3, [r7, #4]
  sBreakDeadTimeConfig.OffStateIDLEMode = TIM_OSSI_DISABLE;
 80019f2:	2300      	movs	r3, #0
 80019f4:	60bb      	str	r3, [r7, #8]
  sBreakDeadTimeConfig.LockLevel = TIM_LOCKLEVEL_OFF;
 80019f6:	2300      	movs	r3, #0
 80019f8:	60fb      	str	r3, [r7, #12]
  sBreakDeadTimeConfig.DeadTime = 0;
 80019fa:	2300      	movs	r3, #0
 80019fc:	613b      	str	r3, [r7, #16]
  sBreakDeadTimeConfig.BreakState = TIM_BREAK_DISABLE;
 80019fe:	2300      	movs	r3, #0
 8001a00:	617b      	str	r3, [r7, #20]
  sBreakDeadTimeConfig.BreakPolarity = TIM_BREAKPOLARITY_HIGH;
 8001a02:	f44f 5300 	mov.w	r3, #8192	; 0x2000
 8001a06:	61bb      	str	r3, [r7, #24]
  sBreakDeadTimeConfig.AutomaticOutput = TIM_AUTOMATICOUTPUT_DISABLE;
 8001a08:	2300      	movs	r3, #0
 8001a0a:	623b      	str	r3, [r7, #32]
  if (HAL_TIMEx_ConfigBreakDeadTime(&htim1, &sBreakDeadTimeConfig) != HAL_OK)
 8001a0c:	1d3b      	adds	r3, r7, #4
 8001a0e:	4619      	mov	r1, r3
 8001a10:	4807      	ldr	r0, [pc, #28]	; (8001a30 <MX_TIM1_Init+0x13c>)
 8001a12:	f004 f969 	bl	8005ce8 <HAL_TIMEx_ConfigBreakDeadTime>
 8001a16:	4603      	mov	r3, r0
 8001a18:	2b00      	cmp	r3, #0
 8001a1a:	d001      	beq.n	8001a20 <MX_TIM1_Init+0x12c>
  {
    Error_Handler();
 8001a1c:	f000 f9f8 	bl	8001e10 <Error_Handler>
  }
  /* USER CODE BEGIN TIM1_Init 2 */

  /* USER CODE END TIM1_Init 2 */
  HAL_TIM_MspPostInit(&htim1);
 8001a20:	4803      	ldr	r0, [pc, #12]	; (8001a30 <MX_TIM1_Init+0x13c>)
 8001a22:	f000 fb2f 	bl	8002084 <HAL_TIM_MspPostInit>

}
 8001a26:	bf00      	nop
 8001a28:	3758      	adds	r7, #88	; 0x58
 8001a2a:	46bd      	mov	sp, r7
 8001a2c:	bd80      	pop	{r7, pc}
 8001a2e:	bf00      	nop
 8001a30:	200001b4 	.word	0x200001b4
 8001a34:	40010000 	.word	0x40010000

08001a38 <MX_TIM2_Init>:
  * @brief TIM2 Initialization Function
  * @param None
  * @retval None
  */
static void MX_TIM2_Init(void)
{
 8001a38:	b580      	push	{r7, lr}
 8001a3a:	b086      	sub	sp, #24
 8001a3c:	af00      	add	r7, sp, #0

  /* USER CODE BEGIN TIM2_Init 0 */

  /* USER CODE END TIM2_Init 0 */

  TIM_ClockConfigTypeDef sClockSourceConfig = {0};
 8001a3e:	f107 0308 	add.w	r3, r7, #8
 8001a42:	2200      	movs	r2, #0
 8001a44:	601a      	str	r2, [r3, #0]
 8001a46:	605a      	str	r2, [r3, #4]
 8001a48:	609a      	str	r2, [r3, #8]
 8001a4a:	60da      	str	r2, [r3, #12]
  TIM_MasterConfigTypeDef sMasterConfig = {0};
 8001a4c:	463b      	mov	r3, r7
 8001a4e:	2200      	movs	r2, #0
 8001a50:	601a      	str	r2, [r3, #0]
 8001a52:	605a      	str	r2, [r3, #4]

  /* USER CODE BEGIN TIM2_Init 1 */

  /* USER CODE END TIM2_Init 1 */
  htim2.Instance = TIM2;
 8001a54:	4b1e      	ldr	r3, [pc, #120]	; (8001ad0 <MX_TIM2_Init+0x98>)
 8001a56:	f04f 4280 	mov.w	r2, #1073741824	; 0x40000000
 8001a5a:	601a      	str	r2, [r3, #0]
  htim2.Init.Prescaler = 49999;
 8001a5c:	4b1c      	ldr	r3, [pc, #112]	; (8001ad0 <MX_TIM2_Init+0x98>)
 8001a5e:	f24c 324f 	movw	r2, #49999	; 0xc34f
 8001a62:	605a      	str	r2, [r3, #4]
  htim2.Init.CounterMode = TIM_COUNTERMODE_UP;
 8001a64:	4b1a      	ldr	r3, [pc, #104]	; (8001ad0 <MX_TIM2_Init+0x98>)
 8001a66:	2200      	movs	r2, #0
 8001a68:	609a      	str	r2, [r3, #8]
  htim2.Init.Period = 500;
 8001a6a:	4b19      	ldr	r3, [pc, #100]	; (8001ad0 <MX_TIM2_Init+0x98>)
 8001a6c:	f44f 72fa 	mov.w	r2, #500	; 0x1f4
 8001a70:	60da      	str	r2, [r3, #12]
  htim2.Init.ClockDivision = TIM_CLOCKDIVISION_DIV1;
 8001a72:	4b17      	ldr	r3, [pc, #92]	; (8001ad0 <MX_TIM2_Init+0x98>)
 8001a74:	2200      	movs	r2, #0
 8001a76:	611a      	str	r2, [r3, #16]
  htim2.Init.AutoReloadPreload = TIM_AUTORELOAD_PRELOAD_DISABLE;
 8001a78:	4b15      	ldr	r3, [pc, #84]	; (8001ad0 <MX_TIM2_Init+0x98>)
 8001a7a:	2200      	movs	r2, #0
 8001a7c:	619a      	str	r2, [r3, #24]
  if (HAL_TIM_Base_Init(&htim2) != HAL_OK)
 8001a7e:	4814      	ldr	r0, [pc, #80]	; (8001ad0 <MX_TIM2_Init+0x98>)
 8001a80:	f003 f8f2 	bl	8004c68 <HAL_TIM_Base_Init>
 8001a84:	4603      	mov	r3, r0
 8001a86:	2b00      	cmp	r3, #0
 8001a88:	d001      	beq.n	8001a8e <MX_TIM2_Init+0x56>
  {
    Error_Handler();
 8001a8a:	f000 f9c1 	bl	8001e10 <Error_Handler>
  }
  sClockSourceConfig.ClockSource = TIM_CLOCKSOURCE_INTERNAL;
 8001a8e:	f44f 5380 	mov.w	r3, #4096	; 0x1000
 8001a92:	60bb      	str	r3, [r7, #8]
  if (HAL_TIM_ConfigClockSource(&htim2, &sClockSourceConfig) != HAL_OK)
 8001a94:	f107 0308 	add.w	r3, r7, #8
 8001a98:	4619      	mov	r1, r3
 8001a9a:	480d      	ldr	r0, [pc, #52]	; (8001ad0 <MX_TIM2_Init+0x98>)
 8001a9c:	f003 fd04 	bl	80054a8 <HAL_TIM_ConfigClockSource>
 8001aa0:	4603      	mov	r3, r0
 8001aa2:	2b00      	cmp	r3, #0
 8001aa4:	d001      	beq.n	8001aaa <MX_TIM2_Init+0x72>
  {
    Error_Handler();
 8001aa6:	f000 f9b3 	bl	8001e10 <Error_Handler>
  }
  sMasterConfig.MasterOutputTrigger = TIM_TRGO_RESET;
 8001aaa:	2300      	movs	r3, #0
 8001aac:	603b      	str	r3, [r7, #0]
  sMasterConfig.MasterSlaveMode = TIM_MASTERSLAVEMODE_DISABLE;
 8001aae:	2300      	movs	r3, #0
 8001ab0:	607b      	str	r3, [r7, #4]
  if (HAL_TIMEx_MasterConfigSynchronization(&htim2, &sMasterConfig) != HAL_OK)
 8001ab2:	463b      	mov	r3, r7
 8001ab4:	4619      	mov	r1, r3
 8001ab6:	4806      	ldr	r0, [pc, #24]	; (8001ad0 <MX_TIM2_Init+0x98>)
 8001ab8:	f004 f8a8 	bl	8005c0c <HAL_TIMEx_MasterConfigSynchronization>
 8001abc:	4603      	mov	r3, r0
 8001abe:	2b00      	cmp	r3, #0
 8001ac0:	d001      	beq.n	8001ac6 <MX_TIM2_Init+0x8e>
  {
    Error_Handler();
 8001ac2:	f000 f9a5 	bl	8001e10 <Error_Handler>
  }
  /* USER CODE BEGIN TIM2_Init 2 */

  /* USER CODE END TIM2_Init 2 */

}
 8001ac6:	bf00      	nop
 8001ac8:	3718      	adds	r7, #24
 8001aca:	46bd      	mov	sp, r7
 8001acc:	bd80      	pop	{r7, pc}
 8001ace:	bf00      	nop
 8001ad0:	200001fc 	.word	0x200001fc

08001ad4 <MX_DMA_Init>:

/**
  * Enable DMA controller clock
  */
static void MX_DMA_Init(void)
{
 8001ad4:	b580      	push	{r7, lr}
 8001ad6:	b082      	sub	sp, #8
 8001ad8:	af00      	add	r7, sp, #0

  /* DMA controller clock enable */
  __HAL_RCC_DMA2_CLK_ENABLE();
 8001ada:	2300      	movs	r3, #0
 8001adc:	607b      	str	r3, [r7, #4]
 8001ade:	4b0c      	ldr	r3, [pc, #48]	; (8001b10 <MX_DMA_Init+0x3c>)
 8001ae0:	6b1b      	ldr	r3, [r3, #48]	; 0x30
 8001ae2:	4a0b      	ldr	r2, [pc, #44]	; (8001b10 <MX_DMA_Init+0x3c>)
 8001ae4:	f443 0380 	orr.w	r3, r3, #4194304	; 0x400000
 8001ae8:	6313      	str	r3, [r2, #48]	; 0x30
 8001aea:	4b09      	ldr	r3, [pc, #36]	; (8001b10 <MX_DMA_Init+0x3c>)
 8001aec:	6b1b      	ldr	r3, [r3, #48]	; 0x30
 8001aee:	f403 0380 	and.w	r3, r3, #4194304	; 0x400000
 8001af2:	607b      	str	r3, [r7, #4]
 8001af4:	687b      	ldr	r3, [r7, #4]

  /* DMA interrupt init */
  /* DMA2_Stream0_IRQn interrupt configuration */
  HAL_NVIC_SetPriority(DMA2_Stream0_IRQn, 0, 0);
 8001af6:	2200      	movs	r2, #0
 8001af8:	2100      	movs	r1, #0
 8001afa:	2038      	movs	r0, #56	; 0x38
 8001afc:	f001 fa79 	bl	8002ff2 <HAL_NVIC_SetPriority>
  HAL_NVIC_EnableIRQ(DMA2_Stream0_IRQn);
 8001b00:	2038      	movs	r0, #56	; 0x38
 8001b02:	f001 fa92 	bl	800302a <HAL_NVIC_EnableIRQ>

}
 8001b06:	bf00      	nop
 8001b08:	3708      	adds	r7, #8
 8001b0a:	46bd      	mov	sp, r7
 8001b0c:	bd80      	pop	{r7, pc}
 8001b0e:	bf00      	nop
 8001b10:	40023800 	.word	0x40023800

08001b14 <MX_GPIO_Init>:
  * @brief GPIO Initialization Function
  * @param None
  * @retval None
  */
static void MX_GPIO_Init(void)
{
 8001b14:	b580      	push	{r7, lr}
 8001b16:	b08a      	sub	sp, #40	; 0x28
 8001b18:	af00      	add	r7, sp, #0
  GPIO_InitTypeDef GPIO_InitStruct = {0};
 8001b1a:	f107 0314 	add.w	r3, r7, #20
 8001b1e:	2200      	movs	r2, #0
 8001b20:	601a      	str	r2, [r3, #0]
 8001b22:	605a      	str	r2, [r3, #4]
 8001b24:	609a      	str	r2, [r3, #8]
 8001b26:	60da      	str	r2, [r3, #12]
 8001b28:	611a      	str	r2, [r3, #16]

  /* GPIO Ports Clock Enable */
  __HAL_RCC_GPIOA_CLK_ENABLE();
 8001b2a:	2300      	movs	r3, #0
 8001b2c:	613b      	str	r3, [r7, #16]
 8001b2e:	4b32      	ldr	r3, [pc, #200]	; (8001bf8 <MX_GPIO_Init+0xe4>)
 8001b30:	6b1b      	ldr	r3, [r3, #48]	; 0x30
 8001b32:	4a31      	ldr	r2, [pc, #196]	; (8001bf8 <MX_GPIO_Init+0xe4>)
 8001b34:	f043 0301 	orr.w	r3, r3, #1
 8001b38:	6313      	str	r3, [r2, #48]	; 0x30
 8001b3a:	4b2f      	ldr	r3, [pc, #188]	; (8001bf8 <MX_GPIO_Init+0xe4>)
 8001b3c:	6b1b      	ldr	r3, [r3, #48]	; 0x30
 8001b3e:	f003 0301 	and.w	r3, r3, #1
 8001b42:	613b      	str	r3, [r7, #16]
 8001b44:	693b      	ldr	r3, [r7, #16]
  __HAL_RCC_GPIOE_CLK_ENABLE();
 8001b46:	2300      	movs	r3, #0
 8001b48:	60fb      	str	r3, [r7, #12]
 8001b4a:	4b2b      	ldr	r3, [pc, #172]	; (8001bf8 <MX_GPIO_Init+0xe4>)
 8001b4c:	6b1b      	ldr	r3, [r3, #48]	; 0x30
 8001b4e:	4a2a      	ldr	r2, [pc, #168]	; (8001bf8 <MX_GPIO_Init+0xe4>)
 8001b50:	f043 0310 	orr.w	r3, r3, #16
 8001b54:	6313      	str	r3, [r2, #48]	; 0x30
 8001b56:	4b28      	ldr	r3, [pc, #160]	; (8001bf8 <MX_GPIO_Init+0xe4>)
 8001b58:	6b1b      	ldr	r3, [r3, #48]	; 0x30
 8001b5a:	f003 0310 	and.w	r3, r3, #16
 8001b5e:	60fb      	str	r3, [r7, #12]
 8001b60:	68fb      	ldr	r3, [r7, #12]
  __HAL_RCC_GPIOD_CLK_ENABLE();
 8001b62:	2300      	movs	r3, #0
 8001b64:	60bb      	str	r3, [r7, #8]
 8001b66:	4b24      	ldr	r3, [pc, #144]	; (8001bf8 <MX_GPIO_Init+0xe4>)
 8001b68:	6b1b      	ldr	r3, [r3, #48]	; 0x30
 8001b6a:	4a23      	ldr	r2, [pc, #140]	; (8001bf8 <MX_GPIO_Init+0xe4>)
 8001b6c:	f043 0308 	orr.w	r3, r3, #8
 8001b70:	6313      	str	r3, [r2, #48]	; 0x30
 8001b72:	4b21      	ldr	r3, [pc, #132]	; (8001bf8 <MX_GPIO_Init+0xe4>)
 8001b74:	6b1b      	ldr	r3, [r3, #48]	; 0x30
 8001b76:	f003 0308 	and.w	r3, r3, #8
 8001b7a:	60bb      	str	r3, [r7, #8]
 8001b7c:	68bb      	ldr	r3, [r7, #8]
  __HAL_RCC_GPIOB_CLK_ENABLE();
 8001b7e:	2300      	movs	r3, #0
 8001b80:	607b      	str	r3, [r7, #4]
 8001b82:	4b1d      	ldr	r3, [pc, #116]	; (8001bf8 <MX_GPIO_Init+0xe4>)
 8001b84:	6b1b      	ldr	r3, [r3, #48]	; 0x30
 8001b86:	4a1c      	ldr	r2, [pc, #112]	; (8001bf8 <MX_GPIO_Init+0xe4>)
 8001b88:	f043 0302 	orr.w	r3, r3, #2
 8001b8c:	6313      	str	r3, [r2, #48]	; 0x30
 8001b8e:	4b1a      	ldr	r3, [pc, #104]	; (8001bf8 <MX_GPIO_Init+0xe4>)
 8001b90:	6b1b      	ldr	r3, [r3, #48]	; 0x30
 8001b92:	f003 0302 	and.w	r3, r3, #2
 8001b96:	607b      	str	r3, [r7, #4]
 8001b98:	687b      	ldr	r3, [r7, #4]

  /*Configure GPIO pin Output Level */
  HAL_GPIO_WritePin(GPIOD, GPIO_PIN_13, GPIO_PIN_RESET);
 8001b9a:	2200      	movs	r2, #0
 8001b9c:	f44f 5100 	mov.w	r1, #8192	; 0x2000
 8001ba0:	4816      	ldr	r0, [pc, #88]	; (8001bfc <MX_GPIO_Init+0xe8>)
 8001ba2:	f001 ff5f 	bl	8003a64 <HAL_GPIO_WritePin>

  /*Configure GPIO pin : PA0 */
  GPIO_InitStruct.Pin = GPIO_PIN_0;
 8001ba6:	2301      	movs	r3, #1
 8001ba8:	617b      	str	r3, [r7, #20]
  GPIO_InitStruct.Mode = GPIO_MODE_IT_RISING;
 8001baa:	f44f 1388 	mov.w	r3, #1114112	; 0x110000
 8001bae:	61bb      	str	r3, [r7, #24]
  GPIO_InitStruct.Pull = GPIO_NOPULL;
 8001bb0:	2300      	movs	r3, #0
 8001bb2:	61fb      	str	r3, [r7, #28]
  HAL_GPIO_Init(GPIOA, &GPIO_InitStruct);
 8001bb4:	f107 0314 	add.w	r3, r7, #20
 8001bb8:	4619      	mov	r1, r3
 8001bba:	4811      	ldr	r0, [pc, #68]	; (8001c00 <MX_GPIO_Init+0xec>)
 8001bbc:	f001 fdce 	bl	800375c <HAL_GPIO_Init>

  /*Configure GPIO pin : PD13 */
  GPIO_InitStruct.Pin = GPIO_PIN_13;
 8001bc0:	f44f 5300 	mov.w	r3, #8192	; 0x2000
 8001bc4:	617b      	str	r3, [r7, #20]
  GPIO_InitStruct.Mode = GPIO_MODE_OUTPUT_PP;
 8001bc6:	2301      	movs	r3, #1
 8001bc8:	61bb      	str	r3, [r7, #24]
  GPIO_InitStruct.Pull = GPIO_NOPULL;
 8001bca:	2300      	movs	r3, #0
 8001bcc:	61fb      	str	r3, [r7, #28]
  GPIO_InitStruct.Speed = GPIO_SPEED_FREQ_LOW;
 8001bce:	2300      	movs	r3, #0
 8001bd0:	623b      	str	r3, [r7, #32]
  HAL_GPIO_Init(GPIOD, &GPIO_InitStruct);
 8001bd2:	f107 0314 	add.w	r3, r7, #20
 8001bd6:	4619      	mov	r1, r3
 8001bd8:	4808      	ldr	r0, [pc, #32]	; (8001bfc <MX_GPIO_Init+0xe8>)
 8001bda:	f001 fdbf 	bl	800375c <HAL_GPIO_Init>

  /* EXTI interrupt init*/
  HAL_NVIC_SetPriority(EXTI0_IRQn, 0, 0);
 8001bde:	2200      	movs	r2, #0
 8001be0:	2100      	movs	r1, #0
 8001be2:	2006      	movs	r0, #6
 8001be4:	f001 fa05 	bl	8002ff2 <HAL_NVIC_SetPriority>
  HAL_NVIC_EnableIRQ(EXTI0_IRQn);
 8001be8:	2006      	movs	r0, #6
 8001bea:	f001 fa1e 	bl	800302a <HAL_NVIC_EnableIRQ>

}
 8001bee:	bf00      	nop
 8001bf0:	3728      	adds	r7, #40	; 0x28
 8001bf2:	46bd      	mov	sp, r7
 8001bf4:	bd80      	pop	{r7, pc}
 8001bf6:	bf00      	nop
 8001bf8:	40023800 	.word	0x40023800
 8001bfc:	40020c00 	.word	0x40020c00
 8001c00:	40020000 	.word	0x40020000

08001c04 <lcd_send_data>:

/* USER CODE BEGIN 4 */
void lcd_send_data (char data)
{
 8001c04:	b580      	push	{r7, lr}
 8001c06:	b086      	sub	sp, #24
 8001c08:	af02      	add	r7, sp, #8
 8001c0a:	4603      	mov	r3, r0
 8001c0c:	71fb      	strb	r3, [r7, #7]
	char data_u, data_l;
	uint8_t data_t[4];
	data_u = (data&0xf0);
 8001c0e:	79fb      	ldrb	r3, [r7, #7]
 8001c10:	f023 030f 	bic.w	r3, r3, #15
 8001c14:	73fb      	strb	r3, [r7, #15]
	data_l = ((data<<4)&0xf0);
 8001c16:	79fb      	ldrb	r3, [r7, #7]
 8001c18:	011b      	lsls	r3, r3, #4
 8001c1a:	73bb      	strb	r3, [r7, #14]
	data_t[0] = data_u|0x0D;  //en=1, rs=1
 8001c1c:	7bfb      	ldrb	r3, [r7, #15]
 8001c1e:	f043 030d 	orr.w	r3, r3, #13
 8001c22:	b2db      	uxtb	r3, r3
 8001c24:	723b      	strb	r3, [r7, #8]
	data_t[1] = data_u|0x09;  //en=0, rs=1
 8001c26:	7bfb      	ldrb	r3, [r7, #15]
 8001c28:	f043 0309 	orr.w	r3, r3, #9
 8001c2c:	b2db      	uxtb	r3, r3
 8001c2e:	727b      	strb	r3, [r7, #9]
	data_t[2] = data_l|0x0D;  //en=1, rs=1
 8001c30:	7bbb      	ldrb	r3, [r7, #14]
 8001c32:	f043 030d 	orr.w	r3, r3, #13
 8001c36:	b2db      	uxtb	r3, r3
 8001c38:	72bb      	strb	r3, [r7, #10]
	data_t[3] = data_l|0x09;  //en=0, rs=1
 8001c3a:	7bbb      	ldrb	r3, [r7, #14]
 8001c3c:	f043 0309 	orr.w	r3, r3, #9
 8001c40:	b2db      	uxtb	r3, r3
 8001c42:	72fb      	strb	r3, [r7, #11]
	HAL_I2C_Master_Transmit (&hi2c1, SLAVE_ADDRESS_LCD,(uint8_t *) data_t, 4, HAL_MAX_DELAY);
 8001c44:	f107 0208 	add.w	r2, r7, #8
 8001c48:	f04f 33ff 	mov.w	r3, #4294967295
 8001c4c:	9300      	str	r3, [sp, #0]
 8001c4e:	2304      	movs	r3, #4
 8001c50:	214e      	movs	r1, #78	; 0x4e
 8001c52:	4803      	ldr	r0, [pc, #12]	; (8001c60 <lcd_send_data+0x5c>)
 8001c54:	f002 f87c 	bl	8003d50 <HAL_I2C_Master_Transmit>
}
 8001c58:	bf00      	nop
 8001c5a:	3710      	adds	r7, #16
 8001c5c:	46bd      	mov	sp, r7
 8001c5e:	bd80      	pop	{r7, pc}
 8001c60:	20000160 	.word	0x20000160

08001c64 <lcd_send_cmd>:

void lcd_send_cmd (char cmd)
{
 8001c64:	b580      	push	{r7, lr}
 8001c66:	b086      	sub	sp, #24
 8001c68:	af02      	add	r7, sp, #8
 8001c6a:	4603      	mov	r3, r0
 8001c6c:	71fb      	strb	r3, [r7, #7]
  char data_u, data_l;
	uint8_t data_t[4];
	data_u = (cmd&0xf0);
 8001c6e:	79fb      	ldrb	r3, [r7, #7]
 8001c70:	f023 030f 	bic.w	r3, r3, #15
 8001c74:	73fb      	strb	r3, [r7, #15]
	data_l = ((cmd<<4)&0xf0);
 8001c76:	79fb      	ldrb	r3, [r7, #7]
 8001c78:	011b      	lsls	r3, r3, #4
 8001c7a:	73bb      	strb	r3, [r7, #14]
	data_t[0] = data_u|0x0C;  //en=1, rs=0
 8001c7c:	7bfb      	ldrb	r3, [r7, #15]
 8001c7e:	f043 030c 	orr.w	r3, r3, #12
 8001c82:	b2db      	uxtb	r3, r3
 8001c84:	723b      	strb	r3, [r7, #8]
	data_t[1] = data_u|0x08;  //en=0, rs=0
 8001c86:	7bfb      	ldrb	r3, [r7, #15]
 8001c88:	f043 0308 	orr.w	r3, r3, #8
 8001c8c:	b2db      	uxtb	r3, r3
 8001c8e:	727b      	strb	r3, [r7, #9]
	data_t[2] = data_l|0x0C;  //en=1, rs=0
 8001c90:	7bbb      	ldrb	r3, [r7, #14]
 8001c92:	f043 030c 	orr.w	r3, r3, #12
 8001c96:	b2db      	uxtb	r3, r3
 8001c98:	72bb      	strb	r3, [r7, #10]
	data_t[3] = data_l|0x08;  //en=0, rs=0
 8001c9a:	7bbb      	ldrb	r3, [r7, #14]
 8001c9c:	f043 0308 	orr.w	r3, r3, #8
 8001ca0:	b2db      	uxtb	r3, r3
 8001ca2:	72fb      	strb	r3, [r7, #11]
	HAL_I2C_Master_Transmit (&hi2c1, SLAVE_ADDRESS_LCD,(uint8_t *) data_t, 4, HAL_MAX_DELAY);
 8001ca4:	f107 0208 	add.w	r2, r7, #8
 8001ca8:	f04f 33ff 	mov.w	r3, #4294967295
 8001cac:	9300      	str	r3, [sp, #0]
 8001cae:	2304      	movs	r3, #4
 8001cb0:	214e      	movs	r1, #78	; 0x4e
 8001cb2:	4803      	ldr	r0, [pc, #12]	; (8001cc0 <lcd_send_cmd+0x5c>)
 8001cb4:	f002 f84c 	bl	8003d50 <HAL_I2C_Master_Transmit>
}
 8001cb8:	bf00      	nop
 8001cba:	3710      	adds	r7, #16
 8001cbc:	46bd      	mov	sp, r7
 8001cbe:	bd80      	pop	{r7, pc}
 8001cc0:	20000160 	.word	0x20000160

08001cc4 <lcd_init>:

void lcd_init (void)
{
 8001cc4:	b580      	push	{r7, lr}
 8001cc6:	af00      	add	r7, sp, #0
	HAL_Delay(45); //Datasheet especifica espera de 40ms
 8001cc8:	202d      	movs	r0, #45	; 0x2d
 8001cca:	f000 fb53 	bl	8002374 <HAL_Delay>
	lcd_send_cmd (0x30); //Encendido del display y del cursor
 8001cce:	2030      	movs	r0, #48	; 0x30
 8001cd0:	f7ff ffc8 	bl	8001c64 <lcd_send_cmd>
	HAL_Delay(5); //Datasheet especifica espera de 4.1ms
 8001cd4:	2005      	movs	r0, #5
 8001cd6:	f000 fb4d 	bl	8002374 <HAL_Delay>
	lcd_send_cmd (0x30); //El datasheet especifica que se debe repetir el envio de esta instruccion
 8001cda:	2030      	movs	r0, #48	; 0x30
 8001cdc:	f7ff ffc2 	bl	8001c64 <lcd_send_cmd>
	HAL_Delay(1); //Datasheet especifica espera de 100us
 8001ce0:	2001      	movs	r0, #1
 8001ce2:	f000 fb47 	bl	8002374 <HAL_Delay>
	lcd_send_cmd(0x30);
 8001ce6:	2030      	movs	r0, #48	; 0x30
 8001ce8:	f7ff ffbc 	bl	8001c64 <lcd_send_cmd>
	HAL_Delay(1);
 8001cec:	2001      	movs	r0, #1
 8001cee:	f000 fb41 	bl	8002374 <HAL_Delay>
	lcd_send_cmd (0x20);  // 4bit mode
 8001cf2:	2020      	movs	r0, #32
 8001cf4:	f7ff ffb6 	bl	8001c64 <lcd_send_cmd>
	HAL_Delay(1);
 8001cf8:	2001      	movs	r0, #1
 8001cfa:	f000 fb3b 	bl	8002374 <HAL_Delay>
	lcd_send_cmd (0x28); // Function set --> DL=0 (4 bit mode), N = 1 (2 line display) F = 0 (5x8 characters)
 8001cfe:	2028      	movs	r0, #40	; 0x28
 8001d00:	f7ff ffb0 	bl	8001c64 <lcd_send_cmd>
	HAL_Delay(1);
 8001d04:	2001      	movs	r0, #1
 8001d06:	f000 fb35 	bl	8002374 <HAL_Delay>
	lcd_send_cmd (0x08); //Display on/off control --> D=0,C=0, B=0  ---> display off
 8001d0a:	2008      	movs	r0, #8
 8001d0c:	f7ff ffaa 	bl	8001c64 <lcd_send_cmd>
	HAL_Delay(1);
 8001d10:	2001      	movs	r0, #1
 8001d12:	f000 fb2f 	bl	8002374 <HAL_Delay>
	lcd_send_cmd (0x01);  //Clear
 8001d16:	2001      	movs	r0, #1
 8001d18:	f7ff ffa4 	bl	8001c64 <lcd_send_cmd>
	HAL_Delay(1);
 8001d1c:	2001      	movs	r0, #1
 8001d1e:	f000 fb29 	bl	8002374 <HAL_Delay>
	lcd_send_cmd (0x06); //Entry mode set --> I/D = 1 (increment cursor) & S = 0 (no shift)
 8001d22:	2006      	movs	r0, #6
 8001d24:	f7ff ff9e 	bl	8001c64 <lcd_send_cmd>
	HAL_Delay(1);
 8001d28:	2001      	movs	r0, #1
 8001d2a:	f000 fb23 	bl	8002374 <HAL_Delay>
	lcd_send_cmd (0x0C); //Display on/off control --> D = 1, C and B = 0. (Cursor and blink, last two bits)
 8001d2e:	200c      	movs	r0, #12
 8001d30:	f7ff ff98 	bl	8001c64 <lcd_send_cmd>
	HAL_Delay(1);
 8001d34:	2001      	movs	r0, #1
 8001d36:	f000 fb1d 	bl	8002374 <HAL_Delay>
}
 8001d3a:	bf00      	nop
 8001d3c:	bd80      	pop	{r7, pc}
	...

08001d40 <lcd_send_string>:

void lcd_send_string (char *str)
{
 8001d40:	b580      	push	{r7, lr}
 8001d42:	b082      	sub	sp, #8
 8001d44:	af00      	add	r7, sp, #0
 8001d46:	6078      	str	r0, [r7, #4]
	//Escribe a continuacin de lo que haya
	static int contador_linea = 0; //Static para que no se borre entre ejecuciones de la funcin
	contador_linea = 0;
 8001d48:	4b17      	ldr	r3, [pc, #92]	; (8001da8 <lcd_send_string+0x68>)
 8001d4a:	2200      	movs	r2, #0
 8001d4c:	601a      	str	r2, [r3, #0]
	while (*str){
 8001d4e:	e021      	b.n	8001d94 <lcd_send_string+0x54>
		lcd_send_data (*str++);
 8001d50:	687b      	ldr	r3, [r7, #4]
 8001d52:	1c5a      	adds	r2, r3, #1
 8001d54:	607a      	str	r2, [r7, #4]
 8001d56:	781b      	ldrb	r3, [r3, #0]
 8001d58:	4618      	mov	r0, r3
 8001d5a:	f7ff ff53 	bl	8001c04 <lcd_send_data>
		contador_linea = (contador_linea) % (ROWS*LINES); //Contar hasta el nmero de caracteres mximo
 8001d5e:	4b12      	ldr	r3, [pc, #72]	; (8001da8 <lcd_send_string+0x68>)
 8001d60:	681b      	ldr	r3, [r3, #0]
 8001d62:	425a      	negs	r2, r3
 8001d64:	f003 031f 	and.w	r3, r3, #31
 8001d68:	f002 021f 	and.w	r2, r2, #31
 8001d6c:	bf58      	it	pl
 8001d6e:	4253      	negpl	r3, r2
 8001d70:	4a0d      	ldr	r2, [pc, #52]	; (8001da8 <lcd_send_string+0x68>)
 8001d72:	6013      	str	r3, [r2, #0]
		contador_linea++;
 8001d74:	4b0c      	ldr	r3, [pc, #48]	; (8001da8 <lcd_send_string+0x68>)
 8001d76:	681b      	ldr	r3, [r3, #0]
 8001d78:	3301      	adds	r3, #1
 8001d7a:	4a0b      	ldr	r2, [pc, #44]	; (8001da8 <lcd_send_string+0x68>)
 8001d7c:	6013      	str	r3, [r2, #0]
		if (contador_linea == ROWS)
 8001d7e:	4b0a      	ldr	r3, [pc, #40]	; (8001da8 <lcd_send_string+0x68>)
 8001d80:	681b      	ldr	r3, [r3, #0]
 8001d82:	2b10      	cmp	r3, #16
 8001d84:	d102      	bne.n	8001d8c <lcd_send_string+0x4c>
			lcd_send_cmd(0xc0); //Pasa a la segunda lnea
 8001d86:	20c0      	movs	r0, #192	; 0xc0
 8001d88:	f7ff ff6c 	bl	8001c64 <lcd_send_cmd>
		if (contador_linea > ROWS*LINES)
 8001d8c:	4b06      	ldr	r3, [pc, #24]	; (8001da8 <lcd_send_string+0x68>)
 8001d8e:	681b      	ldr	r3, [r3, #0]
 8001d90:	2b20      	cmp	r3, #32
 8001d92:	dc04      	bgt.n	8001d9e <lcd_send_string+0x5e>
	while (*str){
 8001d94:	687b      	ldr	r3, [r7, #4]
 8001d96:	781b      	ldrb	r3, [r3, #0]
 8001d98:	2b00      	cmp	r3, #0
 8001d9a:	d1d9      	bne.n	8001d50 <lcd_send_string+0x10>
 8001d9c:	e000      	b.n	8001da0 <lcd_send_string+0x60>
			return; //No hace nada ms porque no hay espacio
 8001d9e:	bf00      	nop
	}
}
 8001da0:	3708      	adds	r7, #8
 8001da2:	46bd      	mov	sp, r7
 8001da4:	bd80      	pop	{r7, pc}
 8001da6:	bf00      	nop
 8001da8:	200002c4 	.word	0x200002c4

08001dac <lcd_update>:

void lcd_update (char *str){
 8001dac:	b580      	push	{r7, lr}
 8001dae:	b082      	sub	sp, #8
 8001db0:	af00      	add	r7, sp, #0
 8001db2:	6078      	str	r0, [r7, #4]

	lcd_clear(); //Borra la pantalla y pone el cursor en la esquina superior izquierda
 8001db4:	f000 f807 	bl	8001dc6 <lcd_clear>
			lcd_send_cmd(0xc0); //Pasa a la segunda lnea
		if (contador_lineas > ROWS*LINES)
			return; //No hace nada ms porque no hay espacio
	}
	*/
	lcd_send_string(str);
 8001db8:	6878      	ldr	r0, [r7, #4]
 8001dba:	f7ff ffc1 	bl	8001d40 <lcd_send_string>

}
 8001dbe:	bf00      	nop
 8001dc0:	3708      	adds	r7, #8
 8001dc2:	46bd      	mov	sp, r7
 8001dc4:	bd80      	pop	{r7, pc}

08001dc6 <lcd_clear>:

void lcd_clear(void){ //Tambien posiciona el cursor en la esquina superior izquierda. SOLO VALE PARA DISPLAY 16x2
 8001dc6:	b580      	push	{r7, lr}
 8001dc8:	b082      	sub	sp, #8
 8001dca:	af00      	add	r7, sp, #0
	lcd_send_cmd(0x80); //Posiciona en el comienzo
 8001dcc:	2080      	movs	r0, #128	; 0x80
 8001dce:	f7ff ff49 	bl	8001c64 <lcd_send_cmd>
	for (int i=0; i < LINES; i++){ //Recorrer todas las filas
 8001dd2:	2300      	movs	r3, #0
 8001dd4:	607b      	str	r3, [r7, #4]
 8001dd6:	e011      	b.n	8001dfc <lcd_clear+0x36>
		for (int j=0; j < ROWS; j++) //Recorrer todas las columnas
 8001dd8:	2300      	movs	r3, #0
 8001dda:	603b      	str	r3, [r7, #0]
 8001ddc:	e005      	b.n	8001dea <lcd_clear+0x24>
			lcd_send_data(' '); //Poner espacios (borrar todo)
 8001dde:	2020      	movs	r0, #32
 8001de0:	f7ff ff10 	bl	8001c04 <lcd_send_data>
		for (int j=0; j < ROWS; j++) //Recorrer todas las columnas
 8001de4:	683b      	ldr	r3, [r7, #0]
 8001de6:	3301      	adds	r3, #1
 8001de8:	603b      	str	r3, [r7, #0]
 8001dea:	683b      	ldr	r3, [r7, #0]
 8001dec:	2b0f      	cmp	r3, #15
 8001dee:	ddf6      	ble.n	8001dde <lcd_clear+0x18>
		lcd_send_cmd(0x0c); //Posicionar en la segunda linea
 8001df0:	200c      	movs	r0, #12
 8001df2:	f7ff ff37 	bl	8001c64 <lcd_send_cmd>
	for (int i=0; i < LINES; i++){ //Recorrer todas las filas
 8001df6:	687b      	ldr	r3, [r7, #4]
 8001df8:	3301      	adds	r3, #1
 8001dfa:	607b      	str	r3, [r7, #4]
 8001dfc:	687b      	ldr	r3, [r7, #4]
 8001dfe:	2b01      	cmp	r3, #1
 8001e00:	ddea      	ble.n	8001dd8 <lcd_clear+0x12>
	}
	lcd_send_cmd(0x80); //Posicionar el cursor en el comienzo de nuevo
 8001e02:	2080      	movs	r0, #128	; 0x80
 8001e04:	f7ff ff2e 	bl	8001c64 <lcd_send_cmd>
}
 8001e08:	bf00      	nop
 8001e0a:	3708      	adds	r7, #8
 8001e0c:	46bd      	mov	sp, r7
 8001e0e:	bd80      	pop	{r7, pc}

08001e10 <Error_Handler>:
/**
  * @brief  This function is executed in case of error occurrence.
  * @retval None
  */
void Error_Handler(void)
{
 8001e10:	b480      	push	{r7}
 8001e12:	af00      	add	r7, sp, #0
  \details Disables IRQ interrupts by setting the I-bit in the CPSR.
           Can only be executed in Privileged modes.
 */
__STATIC_FORCEINLINE void __disable_irq(void)
{
  __ASM volatile ("cpsid i" : : : "memory");
 8001e14:	b672      	cpsid	i
}
 8001e16:	bf00      	nop
  /* USER CODE BEGIN Error_Handler_Debug */
  /* User can add his own implementation to report the HAL error return state */
  __disable_irq();
  while (1)
 8001e18:	e7fe      	b.n	8001e18 <Error_Handler+0x8>
	...

08001e1c <HAL_MspInit>:
 8001e1c:	b580      	push	{r7, lr}
 8001e1e:	b082      	sub	sp, #8
 8001e20:	af00      	add	r7, sp, #0
 8001e22:	2300      	movs	r3, #0
 8001e24:	607b      	str	r3, [r7, #4]
 8001e26:	4b10      	ldr	r3, [pc, #64]	; (8001e68 <HAL_MspInit+0x4c>)
 8001e28:	6c5b      	ldr	r3, [r3, #68]	; 0x44
 8001e2a:	4a0f      	ldr	r2, [pc, #60]	; (8001e68 <HAL_MspInit+0x4c>)
 8001e2c:	f443 4380 	orr.w	r3, r3, #16384	; 0x4000
 8001e30:	6453      	str	r3, [r2, #68]	; 0x44
 8001e32:	4b0d      	ldr	r3, [pc, #52]	; (8001e68 <HAL_MspInit+0x4c>)
 8001e34:	6c5b      	ldr	r3, [r3, #68]	; 0x44
 8001e36:	f403 4380 	and.w	r3, r3, #16384	; 0x4000
 8001e3a:	607b      	str	r3, [r7, #4]
 8001e3c:	687b      	ldr	r3, [r7, #4]
 8001e3e:	2300      	movs	r3, #0
 8001e40:	603b      	str	r3, [r7, #0]
 8001e42:	4b09      	ldr	r3, [pc, #36]	; (8001e68 <HAL_MspInit+0x4c>)
 8001e44:	6c1b      	ldr	r3, [r3, #64]	; 0x40
 8001e46:	4a08      	ldr	r2, [pc, #32]	; (8001e68 <HAL_MspInit+0x4c>)
 8001e48:	f043 5380 	orr.w	r3, r3, #268435456	; 0x10000000
 8001e4c:	6413      	str	r3, [r2, #64]	; 0x40
 8001e4e:	4b06      	ldr	r3, [pc, #24]	; (8001e68 <HAL_MspInit+0x4c>)
 8001e50:	6c1b      	ldr	r3, [r3, #64]	; 0x40
 8001e52:	f003 5380 	and.w	r3, r3, #268435456	; 0x10000000
 8001e56:	603b      	str	r3, [r7, #0]
 8001e58:	683b      	ldr	r3, [r7, #0]
 8001e5a:	2007      	movs	r0, #7
 8001e5c:	f001 f8be 	bl	8002fdc <HAL_NVIC_SetPriorityGrouping>
 8001e60:	bf00      	nop
 8001e62:	3708      	adds	r7, #8
 8001e64:	46bd      	mov	sp, r7
 8001e66:	bd80      	pop	{r7, pc}
 8001e68:	40023800 	.word	0x40023800

08001e6c <HAL_ADC_MspInit>:
 8001e6c:	b580      	push	{r7, lr}
 8001e6e:	b08a      	sub	sp, #40	; 0x28
 8001e70:	af00      	add	r7, sp, #0
 8001e72:	6078      	str	r0, [r7, #4]
 8001e74:	f107 0314 	add.w	r3, r7, #20
 8001e78:	2200      	movs	r2, #0
 8001e7a:	601a      	str	r2, [r3, #0]
 8001e7c:	605a      	str	r2, [r3, #4]
 8001e7e:	609a      	str	r2, [r3, #8]
 8001e80:	60da      	str	r2, [r3, #12]
 8001e82:	611a      	str	r2, [r3, #16]
 8001e84:	687b      	ldr	r3, [r7, #4]
 8001e86:	681b      	ldr	r3, [r3, #0]
 8001e88:	4a33      	ldr	r2, [pc, #204]	; (8001f58 <HAL_ADC_MspInit+0xec>)
 8001e8a:	4293      	cmp	r3, r2
 8001e8c:	d15f      	bne.n	8001f4e <HAL_ADC_MspInit+0xe2>
 8001e8e:	2300      	movs	r3, #0
 8001e90:	613b      	str	r3, [r7, #16]
 8001e92:	4b32      	ldr	r3, [pc, #200]	; (8001f5c <HAL_ADC_MspInit+0xf0>)
 8001e94:	6c5b      	ldr	r3, [r3, #68]	; 0x44
 8001e96:	4a31      	ldr	r2, [pc, #196]	; (8001f5c <HAL_ADC_MspInit+0xf0>)
 8001e98:	f443 7380 	orr.w	r3, r3, #256	; 0x100
 8001e9c:	6453      	str	r3, [r2, #68]	; 0x44
 8001e9e:	4b2f      	ldr	r3, [pc, #188]	; (8001f5c <HAL_ADC_MspInit+0xf0>)
 8001ea0:	6c5b      	ldr	r3, [r3, #68]	; 0x44
 8001ea2:	f403 7380 	and.w	r3, r3, #256	; 0x100
 8001ea6:	613b      	str	r3, [r7, #16]
 8001ea8:	693b      	ldr	r3, [r7, #16]
 8001eaa:	2300      	movs	r3, #0
 8001eac:	60fb      	str	r3, [r7, #12]
 8001eae:	4b2b      	ldr	r3, [pc, #172]	; (8001f5c <HAL_ADC_MspInit+0xf0>)
 8001eb0:	6b1b      	ldr	r3, [r3, #48]	; 0x30
 8001eb2:	4a2a      	ldr	r2, [pc, #168]	; (8001f5c <HAL_ADC_MspInit+0xf0>)
 8001eb4:	f043 0301 	orr.w	r3, r3, #1
 8001eb8:	6313      	str	r3, [r2, #48]	; 0x30
 8001eba:	4b28      	ldr	r3, [pc, #160]	; (8001f5c <HAL_ADC_MspInit+0xf0>)
 8001ebc:	6b1b      	ldr	r3, [r3, #48]	; 0x30
 8001ebe:	f003 0301 	and.w	r3, r3, #1
 8001ec2:	60fb      	str	r3, [r7, #12]
 8001ec4:	68fb      	ldr	r3, [r7, #12]
 8001ec6:	2330      	movs	r3, #48	; 0x30
 8001ec8:	617b      	str	r3, [r7, #20]
 8001eca:	2303      	movs	r3, #3
 8001ecc:	61bb      	str	r3, [r7, #24]
 8001ece:	2300      	movs	r3, #0
 8001ed0:	61fb      	str	r3, [r7, #28]
 8001ed2:	f107 0314 	add.w	r3, r7, #20
 8001ed6:	4619      	mov	r1, r3
 8001ed8:	4821      	ldr	r0, [pc, #132]	; (8001f60 <HAL_ADC_MspInit+0xf4>)
 8001eda:	f001 fc3f 	bl	800375c <HAL_GPIO_Init>
 8001ede:	4b21      	ldr	r3, [pc, #132]	; (8001f64 <HAL_ADC_MspInit+0xf8>)
 8001ee0:	4a21      	ldr	r2, [pc, #132]	; (8001f68 <HAL_ADC_MspInit+0xfc>)
 8001ee2:	601a      	str	r2, [r3, #0]
 8001ee4:	4b1f      	ldr	r3, [pc, #124]	; (8001f64 <HAL_ADC_MspInit+0xf8>)
 8001ee6:	2200      	movs	r2, #0
 8001ee8:	605a      	str	r2, [r3, #4]
 8001eea:	4b1e      	ldr	r3, [pc, #120]	; (8001f64 <HAL_ADC_MspInit+0xf8>)
 8001eec:	2200      	movs	r2, #0
 8001eee:	609a      	str	r2, [r3, #8]
 8001ef0:	4b1c      	ldr	r3, [pc, #112]	; (8001f64 <HAL_ADC_MspInit+0xf8>)
 8001ef2:	2200      	movs	r2, #0
 8001ef4:	60da      	str	r2, [r3, #12]
 8001ef6:	4b1b      	ldr	r3, [pc, #108]	; (8001f64 <HAL_ADC_MspInit+0xf8>)
 8001ef8:	f44f 6280 	mov.w	r2, #1024	; 0x400
 8001efc:	611a      	str	r2, [r3, #16]
 8001efe:	4b19      	ldr	r3, [pc, #100]	; (8001f64 <HAL_ADC_MspInit+0xf8>)
 8001f00:	f44f 6200 	mov.w	r2, #2048	; 0x800
 8001f04:	615a      	str	r2, [r3, #20]
 8001f06:	4b17      	ldr	r3, [pc, #92]	; (8001f64 <HAL_ADC_MspInit+0xf8>)
 8001f08:	f44f 5200 	mov.w	r2, #8192	; 0x2000
 8001f0c:	619a      	str	r2, [r3, #24]
 8001f0e:	4b15      	ldr	r3, [pc, #84]	; (8001f64 <HAL_ADC_MspInit+0xf8>)
 8001f10:	f44f 7280 	mov.w	r2, #256	; 0x100
 8001f14:	61da      	str	r2, [r3, #28]
 8001f16:	4b13      	ldr	r3, [pc, #76]	; (8001f64 <HAL_ADC_MspInit+0xf8>)
 8001f18:	2200      	movs	r2, #0
 8001f1a:	621a      	str	r2, [r3, #32]
 8001f1c:	4b11      	ldr	r3, [pc, #68]	; (8001f64 <HAL_ADC_MspInit+0xf8>)
 8001f1e:	2200      	movs	r2, #0
 8001f20:	625a      	str	r2, [r3, #36]	; 0x24
 8001f22:	4810      	ldr	r0, [pc, #64]	; (8001f64 <HAL_ADC_MspInit+0xf8>)
 8001f24:	f001 f8aa 	bl	800307c <HAL_DMA_Init>
 8001f28:	4603      	mov	r3, r0
 8001f2a:	2b00      	cmp	r3, #0
 8001f2c:	d001      	beq.n	8001f32 <HAL_ADC_MspInit+0xc6>
 8001f2e:	f7ff ff6f 	bl	8001e10 <Error_Handler>
 8001f32:	687b      	ldr	r3, [r7, #4]
 8001f34:	4a0b      	ldr	r2, [pc, #44]	; (8001f64 <HAL_ADC_MspInit+0xf8>)
 8001f36:	639a      	str	r2, [r3, #56]	; 0x38
 8001f38:	4a0a      	ldr	r2, [pc, #40]	; (8001f64 <HAL_ADC_MspInit+0xf8>)
 8001f3a:	687b      	ldr	r3, [r7, #4]
 8001f3c:	6393      	str	r3, [r2, #56]	; 0x38
 8001f3e:	2200      	movs	r2, #0
 8001f40:	2100      	movs	r1, #0
 8001f42:	2012      	movs	r0, #18
 8001f44:	f001 f855 	bl	8002ff2 <HAL_NVIC_SetPriority>
 8001f48:	2012      	movs	r0, #18
 8001f4a:	f001 f86e 	bl	800302a <HAL_NVIC_EnableIRQ>
 8001f4e:	bf00      	nop
 8001f50:	3728      	adds	r7, #40	; 0x28
 8001f52:	46bd      	mov	sp, r7
 8001f54:	bd80      	pop	{r7, pc}
 8001f56:	bf00      	nop
 8001f58:	40012000 	.word	0x40012000
 8001f5c:	40023800 	.word	0x40023800
 8001f60:	40020000 	.word	0x40020000
 8001f64:	20000100 	.word	0x20000100
 8001f68:	40026410 	.word	0x40026410

08001f6c <HAL_I2C_MspInit>:
 8001f6c:	b580      	push	{r7, lr}
 8001f6e:	b08a      	sub	sp, #40	; 0x28
 8001f70:	af00      	add	r7, sp, #0
 8001f72:	6078      	str	r0, [r7, #4]
 8001f74:	f107 0314 	add.w	r3, r7, #20
 8001f78:	2200      	movs	r2, #0
 8001f7a:	601a      	str	r2, [r3, #0]
 8001f7c:	605a      	str	r2, [r3, #4]
 8001f7e:	609a      	str	r2, [r3, #8]
 8001f80:	60da      	str	r2, [r3, #12]
 8001f82:	611a      	str	r2, [r3, #16]
 8001f84:	687b      	ldr	r3, [r7, #4]
 8001f86:	681b      	ldr	r3, [r3, #0]
 8001f88:	4a19      	ldr	r2, [pc, #100]	; (8001ff0 <HAL_I2C_MspInit+0x84>)
 8001f8a:	4293      	cmp	r3, r2
 8001f8c:	d12b      	bne.n	8001fe6 <HAL_I2C_MspInit+0x7a>
 8001f8e:	2300      	movs	r3, #0
 8001f90:	613b      	str	r3, [r7, #16]
 8001f92:	4b18      	ldr	r3, [pc, #96]	; (8001ff4 <HAL_I2C_MspInit+0x88>)
 8001f94:	6b1b      	ldr	r3, [r3, #48]	; 0x30
 8001f96:	4a17      	ldr	r2, [pc, #92]	; (8001ff4 <HAL_I2C_MspInit+0x88>)
 8001f98:	f043 0302 	orr.w	r3, r3, #2
 8001f9c:	6313      	str	r3, [r2, #48]	; 0x30
 8001f9e:	4b15      	ldr	r3, [pc, #84]	; (8001ff4 <HAL_I2C_MspInit+0x88>)
 8001fa0:	6b1b      	ldr	r3, [r3, #48]	; 0x30
 8001fa2:	f003 0302 	and.w	r3, r3, #2
 8001fa6:	613b      	str	r3, [r7, #16]
 8001fa8:	693b      	ldr	r3, [r7, #16]
 8001faa:	23c0      	movs	r3, #192	; 0xc0
 8001fac:	617b      	str	r3, [r7, #20]
 8001fae:	2312      	movs	r3, #18
 8001fb0:	61bb      	str	r3, [r7, #24]
 8001fb2:	2300      	movs	r3, #0
 8001fb4:	61fb      	str	r3, [r7, #28]
 8001fb6:	2303      	movs	r3, #3
 8001fb8:	623b      	str	r3, [r7, #32]
 8001fba:	2304      	movs	r3, #4
 8001fbc:	627b      	str	r3, [r7, #36]	; 0x24
 8001fbe:	f107 0314 	add.w	r3, r7, #20
 8001fc2:	4619      	mov	r1, r3
 8001fc4:	480c      	ldr	r0, [pc, #48]	; (8001ff8 <HAL_I2C_MspInit+0x8c>)
 8001fc6:	f001 fbc9 	bl	800375c <HAL_GPIO_Init>
 8001fca:	2300      	movs	r3, #0
 8001fcc:	60fb      	str	r3, [r7, #12]
 8001fce:	4b09      	ldr	r3, [pc, #36]	; (8001ff4 <HAL_I2C_MspInit+0x88>)
 8001fd0:	6c1b      	ldr	r3, [r3, #64]	; 0x40
 8001fd2:	4a08      	ldr	r2, [pc, #32]	; (8001ff4 <HAL_I2C_MspInit+0x88>)
 8001fd4:	f443 1300 	orr.w	r3, r3, #2097152	; 0x200000
 8001fd8:	6413      	str	r3, [r2, #64]	; 0x40
 8001fda:	4b06      	ldr	r3, [pc, #24]	; (8001ff4 <HAL_I2C_MspInit+0x88>)
 8001fdc:	6c1b      	ldr	r3, [r3, #64]	; 0x40
 8001fde:	f403 1300 	and.w	r3, r3, #2097152	; 0x200000
 8001fe2:	60fb      	str	r3, [r7, #12]
 8001fe4:	68fb      	ldr	r3, [r7, #12]
 8001fe6:	bf00      	nop
 8001fe8:	3728      	adds	r7, #40	; 0x28
 8001fea:	46bd      	mov	sp, r7
 8001fec:	bd80      	pop	{r7, pc}
 8001fee:	bf00      	nop
 8001ff0:	40005400 	.word	0x40005400
 8001ff4:	40023800 	.word	0x40023800
 8001ff8:	40020400 	.word	0x40020400

08001ffc <HAL_TIM_Base_MspInit>:
 8001ffc:	b580      	push	{r7, lr}
 8001ffe:	b084      	sub	sp, #16
 8002000:	af00      	add	r7, sp, #0
 8002002:	6078      	str	r0, [r7, #4]
 8002004:	687b      	ldr	r3, [r7, #4]
 8002006:	681b      	ldr	r3, [r3, #0]
 8002008:	4a1c      	ldr	r2, [pc, #112]	; (800207c <HAL_TIM_Base_MspInit+0x80>)
 800200a:	4293      	cmp	r3, r2
 800200c:	d116      	bne.n	800203c <HAL_TIM_Base_MspInit+0x40>
 800200e:	2300      	movs	r3, #0
 8002010:	60fb      	str	r3, [r7, #12]
 8002012:	4b1b      	ldr	r3, [pc, #108]	; (8002080 <HAL_TIM_Base_MspInit+0x84>)
 8002014:	6c5b      	ldr	r3, [r3, #68]	; 0x44
 8002016:	4a1a      	ldr	r2, [pc, #104]	; (8002080 <HAL_TIM_Base_MspInit+0x84>)
 8002018:	f043 0301 	orr.w	r3, r3, #1
 800201c:	6453      	str	r3, [r2, #68]	; 0x44
 800201e:	4b18      	ldr	r3, [pc, #96]	; (8002080 <HAL_TIM_Base_MspInit+0x84>)
 8002020:	6c5b      	ldr	r3, [r3, #68]	; 0x44
 8002022:	f003 0301 	and.w	r3, r3, #1
 8002026:	60fb      	str	r3, [r7, #12]
 8002028:	68fb      	ldr	r3, [r7, #12]
 800202a:	2200      	movs	r2, #0
 800202c:	2100      	movs	r1, #0
 800202e:	201b      	movs	r0, #27
 8002030:	f000 ffdf 	bl	8002ff2 <HAL_NVIC_SetPriority>
 8002034:	201b      	movs	r0, #27
 8002036:	f000 fff8 	bl	800302a <HAL_NVIC_EnableIRQ>
 800203a:	e01a      	b.n	8002072 <HAL_TIM_Base_MspInit+0x76>
 800203c:	687b      	ldr	r3, [r7, #4]
 800203e:	681b      	ldr	r3, [r3, #0]
 8002040:	f1b3 4f80 	cmp.w	r3, #1073741824	; 0x40000000
 8002044:	d115      	bne.n	8002072 <HAL_TIM_Base_MspInit+0x76>
 8002046:	2300      	movs	r3, #0
 8002048:	60bb      	str	r3, [r7, #8]
 800204a:	4b0d      	ldr	r3, [pc, #52]	; (8002080 <HAL_TIM_Base_MspInit+0x84>)
 800204c:	6c1b      	ldr	r3, [r3, #64]	; 0x40
 800204e:	4a0c      	ldr	r2, [pc, #48]	; (8002080 <HAL_TIM_Base_MspInit+0x84>)
 8002050:	f043 0301 	orr.w	r3, r3, #1
 8002054:	6413      	str	r3, [r2, #64]	; 0x40
 8002056:	4b0a      	ldr	r3, [pc, #40]	; (8002080 <HAL_TIM_Base_MspInit+0x84>)
 8002058:	6c1b      	ldr	r3, [r3, #64]	; 0x40
 800205a:	f003 0301 	and.w	r3, r3, #1
 800205e:	60bb      	str	r3, [r7, #8]
 8002060:	68bb      	ldr	r3, [r7, #8]
 8002062:	2200      	movs	r2, #0
 8002064:	2100      	movs	r1, #0
 8002066:	201c      	movs	r0, #28
 8002068:	f000 ffc3 	bl	8002ff2 <HAL_NVIC_SetPriority>
 800206c:	201c      	movs	r0, #28
 800206e:	f000 ffdc 	bl	800302a <HAL_NVIC_EnableIRQ>
 8002072:	bf00      	nop
 8002074:	3710      	adds	r7, #16
 8002076:	46bd      	mov	sp, r7
 8002078:	bd80      	pop	{r7, pc}
 800207a:	bf00      	nop
 800207c:	40010000 	.word	0x40010000
 8002080:	40023800 	.word	0x40023800

08002084 <HAL_TIM_MspPostInit>:
 8002084:	b580      	push	{r7, lr}
 8002086:	b088      	sub	sp, #32
 8002088:	af00      	add	r7, sp, #0
 800208a:	6078      	str	r0, [r7, #4]
 800208c:	f107 030c 	add.w	r3, r7, #12
 8002090:	2200      	movs	r2, #0
 8002092:	601a      	str	r2, [r3, #0]
 8002094:	605a      	str	r2, [r3, #4]
 8002096:	609a      	str	r2, [r3, #8]
 8002098:	60da      	str	r2, [r3, #12]
 800209a:	611a      	str	r2, [r3, #16]
 800209c:	687b      	ldr	r3, [r7, #4]
 800209e:	681b      	ldr	r3, [r3, #0]
 80020a0:	4a12      	ldr	r2, [pc, #72]	; (80020ec <HAL_TIM_MspPostInit+0x68>)
 80020a2:	4293      	cmp	r3, r2
 80020a4:	d11e      	bne.n	80020e4 <HAL_TIM_MspPostInit+0x60>
 80020a6:	2300      	movs	r3, #0
 80020a8:	60bb      	str	r3, [r7, #8]
 80020aa:	4b11      	ldr	r3, [pc, #68]	; (80020f0 <HAL_TIM_MspPostInit+0x6c>)
 80020ac:	6b1b      	ldr	r3, [r3, #48]	; 0x30
 80020ae:	4a10      	ldr	r2, [pc, #64]	; (80020f0 <HAL_TIM_MspPostInit+0x6c>)
 80020b0:	f043 0310 	orr.w	r3, r3, #16
 80020b4:	6313      	str	r3, [r2, #48]	; 0x30
 80020b6:	4b0e      	ldr	r3, [pc, #56]	; (80020f0 <HAL_TIM_MspPostInit+0x6c>)
 80020b8:	6b1b      	ldr	r3, [r3, #48]	; 0x30
 80020ba:	f003 0310 	and.w	r3, r3, #16
 80020be:	60bb      	str	r3, [r7, #8]
 80020c0:	68bb      	ldr	r3, [r7, #8]
 80020c2:	f44f 6300 	mov.w	r3, #2048	; 0x800
 80020c6:	60fb      	str	r3, [r7, #12]
 80020c8:	2302      	movs	r3, #2
 80020ca:	613b      	str	r3, [r7, #16]
 80020cc:	2300      	movs	r3, #0
 80020ce:	617b      	str	r3, [r7, #20]
 80020d0:	2300      	movs	r3, #0
 80020d2:	61bb      	str	r3, [r7, #24]
 80020d4:	2301      	movs	r3, #1
 80020d6:	61fb      	str	r3, [r7, #28]
 80020d8:	f107 030c 	add.w	r3, r7, #12
 80020dc:	4619      	mov	r1, r3
 80020de:	4805      	ldr	r0, [pc, #20]	; (80020f4 <HAL_TIM_MspPostInit+0x70>)
 80020e0:	f001 fb3c 	bl	800375c <HAL_GPIO_Init>
 80020e4:	bf00      	nop
 80020e6:	3720      	adds	r7, #32
 80020e8:	46bd      	mov	sp, r7
 80020ea:	bd80      	pop	{r7, pc}
 80020ec:	40010000 	.word	0x40010000
 80020f0:	40023800 	.word	0x40023800
 80020f4:	40021000 	.word	0x40021000

080020f8 <NMI_Handler>:
 80020f8:	b480      	push	{r7}
 80020fa:	af00      	add	r7, sp, #0
 80020fc:	e7fe      	b.n	80020fc <NMI_Handler+0x4>

080020fe <HardFault_Handler>:
 80020fe:	b480      	push	{r7}
 8002100:	af00      	add	r7, sp, #0
 8002102:	e7fe      	b.n	8002102 <HardFault_Handler+0x4>

08002104 <MemManage_Handler>:
 8002104:	b480      	push	{r7}
 8002106:	af00      	add	r7, sp, #0
 8002108:	e7fe      	b.n	8002108 <MemManage_Handler+0x4>

0800210a <BusFault_Handler>:
 800210a:	b480      	push	{r7}
 800210c:	af00      	add	r7, sp, #0
 800210e:	e7fe      	b.n	800210e <BusFault_Handler+0x4>

08002110 <UsageFault_Handler>:
 8002110:	b480      	push	{r7}
 8002112:	af00      	add	r7, sp, #0
 8002114:	e7fe      	b.n	8002114 <UsageFault_Handler+0x4>

08002116 <SVC_Handler>:
 8002116:	b480      	push	{r7}
 8002118:	af00      	add	r7, sp, #0
 800211a:	bf00      	nop
 800211c:	46bd      	mov	sp, r7
 800211e:	f85d 7b04 	ldr.w	r7, [sp], #4
 8002122:	4770      	bx	lr

08002124 <DebugMon_Handler>:
 8002124:	b480      	push	{r7}
 8002126:	af00      	add	r7, sp, #0
 8002128:	bf00      	nop
 800212a:	46bd      	mov	sp, r7
 800212c:	f85d 7b04 	ldr.w	r7, [sp], #4
 8002130:	4770      	bx	lr

08002132 <PendSV_Handler>:
 8002132:	b480      	push	{r7}
 8002134:	af00      	add	r7, sp, #0
 8002136:	bf00      	nop
 8002138:	46bd      	mov	sp, r7
 800213a:	f85d 7b04 	ldr.w	r7, [sp], #4
 800213e:	4770      	bx	lr

08002140 <SysTick_Handler>:
 8002140:	b580      	push	{r7, lr}
 8002142:	af00      	add	r7, sp, #0
 8002144:	f000 f8f6 	bl	8002334 <HAL_IncTick>
 8002148:	bf00      	nop
 800214a:	bd80      	pop	{r7, pc}

0800214c <EXTI0_IRQHandler>:
 800214c:	b580      	push	{r7, lr}
 800214e:	af00      	add	r7, sp, #0
 8002150:	2001      	movs	r0, #1
 8002152:	f001 fca1 	bl	8003a98 <HAL_GPIO_EXTI_IRQHandler>
 8002156:	bf00      	nop
 8002158:	bd80      	pop	{r7, pc}
	...

0800215c <ADC_IRQHandler>:
 800215c:	b580      	push	{r7, lr}
 800215e:	af00      	add	r7, sp, #0
 8002160:	4802      	ldr	r0, [pc, #8]	; (800216c <ADC_IRQHandler+0x10>)
 8002162:	f000 f96e 	bl	8002442 <HAL_ADC_IRQHandler>
 8002166:	bf00      	nop
 8002168:	bd80      	pop	{r7, pc}
 800216a:	bf00      	nop
 800216c:	200000b8 	.word	0x200000b8

08002170 <TIM1_CC_IRQHandler>:
 8002170:	b580      	push	{r7, lr}
 8002172:	af00      	add	r7, sp, #0
 8002174:	4802      	ldr	r0, [pc, #8]	; (8002180 <TIM1_CC_IRQHandler+0x10>)
 8002176:	f003 f833 	bl	80051e0 <HAL_TIM_IRQHandler>
 800217a:	bf00      	nop
 800217c:	bd80      	pop	{r7, pc}
 800217e:	bf00      	nop
 8002180:	200001b4 	.word	0x200001b4

08002184 <TIM2_IRQHandler>:
 8002184:	b580      	push	{r7, lr}
 8002186:	af00      	add	r7, sp, #0
 8002188:	4802      	ldr	r0, [pc, #8]	; (8002194 <TIM2_IRQHandler+0x10>)
 800218a:	f003 f829 	bl	80051e0 <HAL_TIM_IRQHandler>
 800218e:	bf00      	nop
 8002190:	bd80      	pop	{r7, pc}
 8002192:	bf00      	nop
 8002194:	200001fc 	.word	0x200001fc

08002198 <DMA2_Stream0_IRQHandler>:
 8002198:	b580      	push	{r7, lr}
 800219a:	af00      	add	r7, sp, #0
 800219c:	4802      	ldr	r0, [pc, #8]	; (80021a8 <DMA2_Stream0_IRQHandler+0x10>)
 800219e:	f001 f873 	bl	8003288 <HAL_DMA_IRQHandler>
 80021a2:	bf00      	nop
 80021a4:	bd80      	pop	{r7, pc}
 80021a6:	bf00      	nop
 80021a8:	20000100 	.word	0x20000100

080021ac <_sbrk>:
 80021ac:	b580      	push	{r7, lr}
 80021ae:	b086      	sub	sp, #24
 80021b0:	af00      	add	r7, sp, #0
 80021b2:	6078      	str	r0, [r7, #4]
 80021b4:	4a14      	ldr	r2, [pc, #80]	; (8002208 <_sbrk+0x5c>)
 80021b6:	4b15      	ldr	r3, [pc, #84]	; (800220c <_sbrk+0x60>)
 80021b8:	1ad3      	subs	r3, r2, r3
 80021ba:	617b      	str	r3, [r7, #20]
 80021bc:	697b      	ldr	r3, [r7, #20]
 80021be:	613b      	str	r3, [r7, #16]
 80021c0:	4b13      	ldr	r3, [pc, #76]	; (8002210 <_sbrk+0x64>)
 80021c2:	681b      	ldr	r3, [r3, #0]
 80021c4:	2b00      	cmp	r3, #0
 80021c6:	d102      	bne.n	80021ce <_sbrk+0x22>
 80021c8:	4b11      	ldr	r3, [pc, #68]	; (8002210 <_sbrk+0x64>)
 80021ca:	4a12      	ldr	r2, [pc, #72]	; (8002214 <_sbrk+0x68>)
 80021cc:	601a      	str	r2, [r3, #0]
 80021ce:	4b10      	ldr	r3, [pc, #64]	; (8002210 <_sbrk+0x64>)
 80021d0:	681a      	ldr	r2, [r3, #0]
 80021d2:	687b      	ldr	r3, [r7, #4]
 80021d4:	4413      	add	r3, r2
 80021d6:	693a      	ldr	r2, [r7, #16]
 80021d8:	429a      	cmp	r2, r3
 80021da:	d207      	bcs.n	80021ec <_sbrk+0x40>
 80021dc:	f003 fdea 	bl	8005db4 <__errno>
 80021e0:	4603      	mov	r3, r0
 80021e2:	220c      	movs	r2, #12
 80021e4:	601a      	str	r2, [r3, #0]
 80021e6:	f04f 33ff 	mov.w	r3, #4294967295
 80021ea:	e009      	b.n	8002200 <_sbrk+0x54>
 80021ec:	4b08      	ldr	r3, [pc, #32]	; (8002210 <_sbrk+0x64>)
 80021ee:	681b      	ldr	r3, [r3, #0]
 80021f0:	60fb      	str	r3, [r7, #12]
 80021f2:	4b07      	ldr	r3, [pc, #28]	; (8002210 <_sbrk+0x64>)
 80021f4:	681a      	ldr	r2, [r3, #0]
 80021f6:	687b      	ldr	r3, [r7, #4]
 80021f8:	4413      	add	r3, r2
 80021fa:	4a05      	ldr	r2, [pc, #20]	; (8002210 <_sbrk+0x64>)
 80021fc:	6013      	str	r3, [r2, #0]
 80021fe:	68fb      	ldr	r3, [r7, #12]
 8002200:	4618      	mov	r0, r3
 8002202:	3718      	adds	r7, #24
 8002204:	46bd      	mov	sp, r7
 8002206:	bd80      	pop	{r7, pc}
 8002208:	20020000 	.word	0x20020000
 800220c:	00000400 	.word	0x00000400
 8002210:	200002c8 	.word	0x200002c8
 8002214:	200002e0 	.word	0x200002e0

08002218 <SystemInit>:
 8002218:	b480      	push	{r7}
 800221a:	af00      	add	r7, sp, #0
 800221c:	4b06      	ldr	r3, [pc, #24]	; (8002238 <SystemInit+0x20>)
 800221e:	f8d3 3088 	ldr.w	r3, [r3, #136]	; 0x88
 8002222:	4a05      	ldr	r2, [pc, #20]	; (8002238 <SystemInit+0x20>)
 8002224:	f443 0370 	orr.w	r3, r3, #15728640	; 0xf00000
 8002228:	f8c2 3088 	str.w	r3, [r2, #136]	; 0x88
 800222c:	bf00      	nop
 800222e:	46bd      	mov	sp, r7
 8002230:	f85d 7b04 	ldr.w	r7, [sp], #4
 8002234:	4770      	bx	lr
 8002236:	bf00      	nop
 8002238:	e000ed00 	.word	0xe000ed00

0800223c <Reset_Handler>:
 800223c:	f8df d034 	ldr.w	sp, [pc, #52]	; 8002274 <LoopFillZerobss+0x12>
 8002240:	480d      	ldr	r0, [pc, #52]	; (8002278 <LoopFillZerobss+0x16>)
 8002242:	490e      	ldr	r1, [pc, #56]	; (800227c <LoopFillZerobss+0x1a>)
 8002244:	4a0e      	ldr	r2, [pc, #56]	; (8002280 <LoopFillZerobss+0x1e>)
 8002246:	2300      	movs	r3, #0
 8002248:	e002      	b.n	8002250 <LoopCopyDataInit>

0800224a <CopyDataInit>:
 800224a:	58d4      	ldr	r4, [r2, r3]
 800224c:	50c4      	str	r4, [r0, r3]
 800224e:	3304      	adds	r3, #4

08002250 <LoopCopyDataInit>:
 8002250:	18c4      	adds	r4, r0, r3
 8002252:	428c      	cmp	r4, r1
 8002254:	d3f9      	bcc.n	800224a <CopyDataInit>
 8002256:	4a0b      	ldr	r2, [pc, #44]	; (8002284 <LoopFillZerobss+0x22>)
 8002258:	4c0b      	ldr	r4, [pc, #44]	; (8002288 <LoopFillZerobss+0x26>)
 800225a:	2300      	movs	r3, #0
 800225c:	e001      	b.n	8002262 <LoopFillZerobss>

0800225e <FillZerobss>:
 800225e:	6013      	str	r3, [r2, #0]
 8002260:	3204      	adds	r2, #4

08002262 <LoopFillZerobss>:
 8002262:	42a2      	cmp	r2, r4
 8002264:	d3fb      	bcc.n	800225e <FillZerobss>
 8002266:	f7ff ffd7 	bl	8002218 <SystemInit>
 800226a:	f003 fda9 	bl	8005dc0 <__libc_init_array>
 800226e:	f7fe fdd7 	bl	8000e20 <main>
 8002272:	4770      	bx	lr
 8002274:	20020000 	.word	0x20020000
 8002278:	20000000 	.word	0x20000000
 800227c:	2000009c 	.word	0x2000009c
 8002280:	08006930 	.word	0x08006930
 8002284:	2000009c 	.word	0x2000009c
 8002288:	200002e0 	.word	0x200002e0

0800228c <DMA1_Stream0_IRQHandler>:
 800228c:	e7fe      	b.n	800228c <DMA1_Stream0_IRQHandler>
	...

08002290 <HAL_Init>:
 8002290:	b580      	push	{r7, lr}
 8002292:	af00      	add	r7, sp, #0
 8002294:	4b0e      	ldr	r3, [pc, #56]	; (80022d0 <HAL_Init+0x40>)
 8002296:	681b      	ldr	r3, [r3, #0]
 8002298:	4a0d      	ldr	r2, [pc, #52]	; (80022d0 <HAL_Init+0x40>)
 800229a:	f443 7300 	orr.w	r3, r3, #512	; 0x200
 800229e:	6013      	str	r3, [r2, #0]
 80022a0:	4b0b      	ldr	r3, [pc, #44]	; (80022d0 <HAL_Init+0x40>)
 80022a2:	681b      	ldr	r3, [r3, #0]
 80022a4:	4a0a      	ldr	r2, [pc, #40]	; (80022d0 <HAL_Init+0x40>)
 80022a6:	f443 6380 	orr.w	r3, r3, #1024	; 0x400
 80022aa:	6013      	str	r3, [r2, #0]
 80022ac:	4b08      	ldr	r3, [pc, #32]	; (80022d0 <HAL_Init+0x40>)
 80022ae:	681b      	ldr	r3, [r3, #0]
 80022b0:	4a07      	ldr	r2, [pc, #28]	; (80022d0 <HAL_Init+0x40>)
 80022b2:	f443 7380 	orr.w	r3, r3, #256	; 0x100
 80022b6:	6013      	str	r3, [r2, #0]
 80022b8:	2003      	movs	r0, #3
 80022ba:	f000 fe8f 	bl	8002fdc <HAL_NVIC_SetPriorityGrouping>
 80022be:	2000      	movs	r0, #0
 80022c0:	f000 f808 	bl	80022d4 <HAL_InitTick>
 80022c4:	f7ff fdaa 	bl	8001e1c <HAL_MspInit>
 80022c8:	2300      	movs	r3, #0
 80022ca:	4618      	mov	r0, r3
 80022cc:	bd80      	pop	{r7, pc}
 80022ce:	bf00      	nop
 80022d0:	40023c00 	.word	0x40023c00

080022d4 <HAL_InitTick>:
 80022d4:	b580      	push	{r7, lr}
 80022d6:	b082      	sub	sp, #8
 80022d8:	af00      	add	r7, sp, #0
 80022da:	6078      	str	r0, [r7, #4]
 80022dc:	4b12      	ldr	r3, [pc, #72]	; (8002328 <HAL_InitTick+0x54>)
 80022de:	681a      	ldr	r2, [r3, #0]
 80022e0:	4b12      	ldr	r3, [pc, #72]	; (800232c <HAL_InitTick+0x58>)
 80022e2:	781b      	ldrb	r3, [r3, #0]
 80022e4:	4619      	mov	r1, r3
 80022e6:	f44f 737a 	mov.w	r3, #1000	; 0x3e8
 80022ea:	fbb3 f3f1 	udiv	r3, r3, r1
 80022ee:	fbb2 f3f3 	udiv	r3, r2, r3
 80022f2:	4618      	mov	r0, r3
 80022f4:	f000 feb5 	bl	8003062 <HAL_SYSTICK_Config>
 80022f8:	4603      	mov	r3, r0
 80022fa:	2b00      	cmp	r3, #0
 80022fc:	d001      	beq.n	8002302 <HAL_InitTick+0x2e>
 80022fe:	2301      	movs	r3, #1
 8002300:	e00e      	b.n	8002320 <HAL_InitTick+0x4c>
 8002302:	687b      	ldr	r3, [r7, #4]
 8002304:	2b0f      	cmp	r3, #15
 8002306:	d80a      	bhi.n	800231e <HAL_InitTick+0x4a>
 8002308:	2200      	movs	r2, #0
 800230a:	6879      	ldr	r1, [r7, #4]
 800230c:	f04f 30ff 	mov.w	r0, #4294967295
 8002310:	f000 fe6f 	bl	8002ff2 <HAL_NVIC_SetPriority>
 8002314:	4a06      	ldr	r2, [pc, #24]	; (8002330 <HAL_InitTick+0x5c>)
 8002316:	687b      	ldr	r3, [r7, #4]
 8002318:	6013      	str	r3, [r2, #0]
 800231a:	2300      	movs	r3, #0
 800231c:	e000      	b.n	8002320 <HAL_InitTick+0x4c>
 800231e:	2301      	movs	r3, #1
 8002320:	4618      	mov	r0, r3
 8002322:	3708      	adds	r7, #8
 8002324:	46bd      	mov	sp, r7
 8002326:	bd80      	pop	{r7, pc}
 8002328:	2000002c 	.word	0x2000002c
 800232c:	20000034 	.word	0x20000034
 8002330:	20000030 	.word	0x20000030

08002334 <HAL_IncTick>:
 8002334:	b480      	push	{r7}
 8002336:	af00      	add	r7, sp, #0
 8002338:	4b06      	ldr	r3, [pc, #24]	; (8002354 <HAL_IncTick+0x20>)
 800233a:	781b      	ldrb	r3, [r3, #0]
 800233c:	461a      	mov	r2, r3
 800233e:	4b06      	ldr	r3, [pc, #24]	; (8002358 <HAL_IncTick+0x24>)
 8002340:	681b      	ldr	r3, [r3, #0]
 8002342:	4413      	add	r3, r2
 8002344:	4a04      	ldr	r2, [pc, #16]	; (8002358 <HAL_IncTick+0x24>)
 8002346:	6013      	str	r3, [r2, #0]
 8002348:	bf00      	nop
 800234a:	46bd      	mov	sp, r7
 800234c:	f85d 7b04 	ldr.w	r7, [sp], #4
 8002350:	4770      	bx	lr
 8002352:	bf00      	nop
 8002354:	20000034 	.word	0x20000034
 8002358:	200002cc 	.word	0x200002cc

0800235c <HAL_GetTick>:
 800235c:	b480      	push	{r7}
 800235e:	af00      	add	r7, sp, #0
 8002360:	4b03      	ldr	r3, [pc, #12]	; (8002370 <HAL_GetTick+0x14>)
 8002362:	681b      	ldr	r3, [r3, #0]
 8002364:	4618      	mov	r0, r3
 8002366:	46bd      	mov	sp, r7
 8002368:	f85d 7b04 	ldr.w	r7, [sp], #4
 800236c:	4770      	bx	lr
 800236e:	bf00      	nop
 8002370:	200002cc 	.word	0x200002cc

08002374 <HAL_Delay>:
 8002374:	b580      	push	{r7, lr}
 8002376:	b084      	sub	sp, #16
 8002378:	af00      	add	r7, sp, #0
 800237a:	6078      	str	r0, [r7, #4]
 800237c:	f7ff ffee 	bl	800235c <HAL_GetTick>
 8002380:	60b8      	str	r0, [r7, #8]
 8002382:	687b      	ldr	r3, [r7, #4]
 8002384:	60fb      	str	r3, [r7, #12]
 8002386:	68fb      	ldr	r3, [r7, #12]
 8002388:	f1b3 3fff 	cmp.w	r3, #4294967295
 800238c:	d005      	beq.n	800239a <HAL_Delay+0x26>
 800238e:	4b0a      	ldr	r3, [pc, #40]	; (80023b8 <HAL_Delay+0x44>)
 8002390:	781b      	ldrb	r3, [r3, #0]
 8002392:	461a      	mov	r2, r3
 8002394:	68fb      	ldr	r3, [r7, #12]
 8002396:	4413      	add	r3, r2
 8002398:	60fb      	str	r3, [r7, #12]
 800239a:	bf00      	nop
 800239c:	f7ff ffde 	bl	800235c <HAL_GetTick>
 80023a0:	4602      	mov	r2, r0
 80023a2:	68bb      	ldr	r3, [r7, #8]
 80023a4:	1ad3      	subs	r3, r2, r3
 80023a6:	68fa      	ldr	r2, [r7, #12]
 80023a8:	429a      	cmp	r2, r3
 80023aa:	d8f7      	bhi.n	800239c <HAL_Delay+0x28>
 80023ac:	bf00      	nop
 80023ae:	bf00      	nop
 80023b0:	3710      	adds	r7, #16
 80023b2:	46bd      	mov	sp, r7
 80023b4:	bd80      	pop	{r7, pc}
 80023b6:	bf00      	nop
 80023b8:	20000034 	.word	0x20000034

080023bc <HAL_ADC_Init>:
 80023bc:	b580      	push	{r7, lr}
 80023be:	b084      	sub	sp, #16
 80023c0:	af00      	add	r7, sp, #0
 80023c2:	6078      	str	r0, [r7, #4]
 80023c4:	2300      	movs	r3, #0
 80023c6:	73fb      	strb	r3, [r7, #15]
 80023c8:	687b      	ldr	r3, [r7, #4]
 80023ca:	2b00      	cmp	r3, #0
 80023cc:	d101      	bne.n	80023d2 <HAL_ADC_Init+0x16>
 80023ce:	2301      	movs	r3, #1
 80023d0:	e033      	b.n	800243a <HAL_ADC_Init+0x7e>
 80023d2:	687b      	ldr	r3, [r7, #4]
 80023d4:	6c1b      	ldr	r3, [r3, #64]	; 0x40
 80023d6:	2b00      	cmp	r3, #0
 80023d8:	d109      	bne.n	80023ee <HAL_ADC_Init+0x32>
 80023da:	6878      	ldr	r0, [r7, #4]
 80023dc:	f7ff fd46 	bl	8001e6c <HAL_ADC_MspInit>
 80023e0:	687b      	ldr	r3, [r7, #4]
 80023e2:	2200      	movs	r2, #0
 80023e4:	645a      	str	r2, [r3, #68]	; 0x44
 80023e6:	687b      	ldr	r3, [r7, #4]
 80023e8:	2200      	movs	r2, #0
 80023ea:	f883 203c 	strb.w	r2, [r3, #60]	; 0x3c
 80023ee:	687b      	ldr	r3, [r7, #4]
 80023f0:	6c1b      	ldr	r3, [r3, #64]	; 0x40
 80023f2:	f003 0310 	and.w	r3, r3, #16
 80023f6:	2b00      	cmp	r3, #0
 80023f8:	d118      	bne.n	800242c <HAL_ADC_Init+0x70>
 80023fa:	687b      	ldr	r3, [r7, #4]
 80023fc:	6c1b      	ldr	r3, [r3, #64]	; 0x40
 80023fe:	f423 5388 	bic.w	r3, r3, #4352	; 0x1100
 8002402:	f023 0302 	bic.w	r3, r3, #2
 8002406:	f043 0202 	orr.w	r2, r3, #2
 800240a:	687b      	ldr	r3, [r7, #4]
 800240c:	641a      	str	r2, [r3, #64]	; 0x40
 800240e:	6878      	ldr	r0, [r7, #4]
 8002410:	f000 fb68 	bl	8002ae4 <ADC_Init>
 8002414:	687b      	ldr	r3, [r7, #4]
 8002416:	2200      	movs	r2, #0
 8002418:	645a      	str	r2, [r3, #68]	; 0x44
 800241a:	687b      	ldr	r3, [r7, #4]
 800241c:	6c1b      	ldr	r3, [r3, #64]	; 0x40
 800241e:	f023 0303 	bic.w	r3, r3, #3
 8002422:	f043 0201 	orr.w	r2, r3, #1
 8002426:	687b      	ldr	r3, [r7, #4]
 8002428:	641a      	str	r2, [r3, #64]	; 0x40
 800242a:	e001      	b.n	8002430 <HAL_ADC_Init+0x74>
 800242c:	2301      	movs	r3, #1
 800242e:	73fb      	strb	r3, [r7, #15]
 8002430:	687b      	ldr	r3, [r7, #4]
 8002432:	2200      	movs	r2, #0
 8002434:	f883 203c 	strb.w	r2, [r3, #60]	; 0x3c
 8002438:	7bfb      	ldrb	r3, [r7, #15]
 800243a:	4618      	mov	r0, r3
 800243c:	3710      	adds	r7, #16
 800243e:	46bd      	mov	sp, r7
 8002440:	bd80      	pop	{r7, pc}

08002442 <HAL_ADC_IRQHandler>:
 8002442:	b580      	push	{r7, lr}
 8002444:	b086      	sub	sp, #24
 8002446:	af00      	add	r7, sp, #0
 8002448:	6078      	str	r0, [r7, #4]
 800244a:	2300      	movs	r3, #0
 800244c:	617b      	str	r3, [r7, #20]
 800244e:	2300      	movs	r3, #0
 8002450:	613b      	str	r3, [r7, #16]
 8002452:	687b      	ldr	r3, [r7, #4]
 8002454:	681b      	ldr	r3, [r3, #0]
 8002456:	681b      	ldr	r3, [r3, #0]
 8002458:	60fb      	str	r3, [r7, #12]
 800245a:	687b      	ldr	r3, [r7, #4]
 800245c:	681b      	ldr	r3, [r3, #0]
 800245e:	685b      	ldr	r3, [r3, #4]
 8002460:	60bb      	str	r3, [r7, #8]
 8002462:	68fb      	ldr	r3, [r7, #12]
 8002464:	f003 0302 	and.w	r3, r3, #2
 8002468:	617b      	str	r3, [r7, #20]
 800246a:	68bb      	ldr	r3, [r7, #8]
 800246c:	f003 0320 	and.w	r3, r3, #32
 8002470:	613b      	str	r3, [r7, #16]
 8002472:	697b      	ldr	r3, [r7, #20]
 8002474:	2b00      	cmp	r3, #0
 8002476:	d049      	beq.n	800250c <HAL_ADC_IRQHandler+0xca>
 8002478:	693b      	ldr	r3, [r7, #16]
 800247a:	2b00      	cmp	r3, #0
 800247c:	d046      	beq.n	800250c <HAL_ADC_IRQHandler+0xca>
 800247e:	687b      	ldr	r3, [r7, #4]
 8002480:	6c1b      	ldr	r3, [r3, #64]	; 0x40
 8002482:	f003 0310 	and.w	r3, r3, #16
 8002486:	2b00      	cmp	r3, #0
 8002488:	d105      	bne.n	8002496 <HAL_ADC_IRQHandler+0x54>
 800248a:	687b      	ldr	r3, [r7, #4]
 800248c:	6c1b      	ldr	r3, [r3, #64]	; 0x40
 800248e:	f443 7200 	orr.w	r2, r3, #512	; 0x200
 8002492:	687b      	ldr	r3, [r7, #4]
 8002494:	641a      	str	r2, [r3, #64]	; 0x40
 8002496:	687b      	ldr	r3, [r7, #4]
 8002498:	681b      	ldr	r3, [r3, #0]
 800249a:	689b      	ldr	r3, [r3, #8]
 800249c:	f003 5340 	and.w	r3, r3, #805306368	; 0x30000000
 80024a0:	2b00      	cmp	r3, #0
 80024a2:	d12b      	bne.n	80024fc <HAL_ADC_IRQHandler+0xba>
 80024a4:	687b      	ldr	r3, [r7, #4]
 80024a6:	7e1b      	ldrb	r3, [r3, #24]
 80024a8:	2b00      	cmp	r3, #0
 80024aa:	d127      	bne.n	80024fc <HAL_ADC_IRQHandler+0xba>
 80024ac:	687b      	ldr	r3, [r7, #4]
 80024ae:	681b      	ldr	r3, [r3, #0]
 80024b0:	6adb      	ldr	r3, [r3, #44]	; 0x2c
 80024b2:	f403 0370 	and.w	r3, r3, #15728640	; 0xf00000
 80024b6:	2b00      	cmp	r3, #0
 80024b8:	d006      	beq.n	80024c8 <HAL_ADC_IRQHandler+0x86>
 80024ba:	687b      	ldr	r3, [r7, #4]
 80024bc:	681b      	ldr	r3, [r3, #0]
 80024be:	689b      	ldr	r3, [r3, #8]
 80024c0:	f403 6380 	and.w	r3, r3, #1024	; 0x400
 80024c4:	2b00      	cmp	r3, #0
 80024c6:	d119      	bne.n	80024fc <HAL_ADC_IRQHandler+0xba>
 80024c8:	687b      	ldr	r3, [r7, #4]
 80024ca:	681b      	ldr	r3, [r3, #0]
 80024cc:	685a      	ldr	r2, [r3, #4]
 80024ce:	687b      	ldr	r3, [r7, #4]
 80024d0:	681b      	ldr	r3, [r3, #0]
 80024d2:	f022 0220 	bic.w	r2, r2, #32
 80024d6:	605a      	str	r2, [r3, #4]
 80024d8:	687b      	ldr	r3, [r7, #4]
 80024da:	6c1b      	ldr	r3, [r3, #64]	; 0x40
 80024dc:	f423 7280 	bic.w	r2, r3, #256	; 0x100
 80024e0:	687b      	ldr	r3, [r7, #4]
 80024e2:	641a      	str	r2, [r3, #64]	; 0x40
 80024e4:	687b      	ldr	r3, [r7, #4]
 80024e6:	6c1b      	ldr	r3, [r3, #64]	; 0x40
 80024e8:	f403 5380 	and.w	r3, r3, #4096	; 0x1000
 80024ec:	2b00      	cmp	r3, #0
 80024ee:	d105      	bne.n	80024fc <HAL_ADC_IRQHandler+0xba>
 80024f0:	687b      	ldr	r3, [r7, #4]
 80024f2:	6c1b      	ldr	r3, [r3, #64]	; 0x40
 80024f4:	f043 0201 	orr.w	r2, r3, #1
 80024f8:	687b      	ldr	r3, [r7, #4]
 80024fa:	641a      	str	r2, [r3, #64]	; 0x40
 80024fc:	6878      	ldr	r0, [r7, #4]
 80024fe:	f7fe fb4f 	bl	8000ba0 <HAL_ADC_ConvCpltCallback>
 8002502:	687b      	ldr	r3, [r7, #4]
 8002504:	681b      	ldr	r3, [r3, #0]
 8002506:	f06f 0212 	mvn.w	r2, #18
 800250a:	601a      	str	r2, [r3, #0]
 800250c:	68fb      	ldr	r3, [r7, #12]
 800250e:	f003 0304 	and.w	r3, r3, #4
 8002512:	617b      	str	r3, [r7, #20]
 8002514:	68bb      	ldr	r3, [r7, #8]
 8002516:	f003 0380 	and.w	r3, r3, #128	; 0x80
 800251a:	613b      	str	r3, [r7, #16]
 800251c:	697b      	ldr	r3, [r7, #20]
 800251e:	2b00      	cmp	r3, #0
 8002520:	d057      	beq.n	80025d2 <HAL_ADC_IRQHandler+0x190>
 8002522:	693b      	ldr	r3, [r7, #16]
 8002524:	2b00      	cmp	r3, #0
 8002526:	d054      	beq.n	80025d2 <HAL_ADC_IRQHandler+0x190>
 8002528:	687b      	ldr	r3, [r7, #4]
 800252a:	6c1b      	ldr	r3, [r3, #64]	; 0x40
 800252c:	f003 0310 	and.w	r3, r3, #16
 8002530:	2b00      	cmp	r3, #0
 8002532:	d105      	bne.n	8002540 <HAL_ADC_IRQHandler+0xfe>
 8002534:	687b      	ldr	r3, [r7, #4]
 8002536:	6c1b      	ldr	r3, [r3, #64]	; 0x40
 8002538:	f443 5200 	orr.w	r2, r3, #8192	; 0x2000
 800253c:	687b      	ldr	r3, [r7, #4]
 800253e:	641a      	str	r2, [r3, #64]	; 0x40
 8002540:	687b      	ldr	r3, [r7, #4]
 8002542:	681b      	ldr	r3, [r3, #0]
 8002544:	689b      	ldr	r3, [r3, #8]
 8002546:	f403 1340 	and.w	r3, r3, #3145728	; 0x300000
 800254a:	2b00      	cmp	r3, #0
 800254c:	d139      	bne.n	80025c2 <HAL_ADC_IRQHandler+0x180>
 800254e:	687b      	ldr	r3, [r7, #4]
 8002550:	681b      	ldr	r3, [r3, #0]
 8002552:	6b9b      	ldr	r3, [r3, #56]	; 0x38
 8002554:	f403 1340 	and.w	r3, r3, #3145728	; 0x300000
 8002558:	2b00      	cmp	r3, #0
 800255a:	d006      	beq.n	800256a <HAL_ADC_IRQHandler+0x128>
 800255c:	687b      	ldr	r3, [r7, #4]
 800255e:	681b      	ldr	r3, [r3, #0]
 8002560:	689b      	ldr	r3, [r3, #8]
 8002562:	f403 6380 	and.w	r3, r3, #1024	; 0x400
 8002566:	2b00      	cmp	r3, #0
 8002568:	d12b      	bne.n	80025c2 <HAL_ADC_IRQHandler+0x180>
 800256a:	687b      	ldr	r3, [r7, #4]
 800256c:	681b      	ldr	r3, [r3, #0]
 800256e:	685b      	ldr	r3, [r3, #4]
 8002570:	f403 6380 	and.w	r3, r3, #1024	; 0x400
 8002574:	2b00      	cmp	r3, #0
 8002576:	d124      	bne.n	80025c2 <HAL_ADC_IRQHandler+0x180>
 8002578:	687b      	ldr	r3, [r7, #4]
 800257a:	681b      	ldr	r3, [r3, #0]
 800257c:	689b      	ldr	r3, [r3, #8]
 800257e:	f003 5340 	and.w	r3, r3, #805306368	; 0x30000000
 8002582:	2b00      	cmp	r3, #0
 8002584:	d11d      	bne.n	80025c2 <HAL_ADC_IRQHandler+0x180>
 8002586:	687b      	ldr	r3, [r7, #4]
 8002588:	7e1b      	ldrb	r3, [r3, #24]
 800258a:	2b00      	cmp	r3, #0
 800258c:	d119      	bne.n	80025c2 <HAL_ADC_IRQHandler+0x180>
 800258e:	687b      	ldr	r3, [r7, #4]
 8002590:	681b      	ldr	r3, [r3, #0]
 8002592:	685a      	ldr	r2, [r3, #4]
 8002594:	687b      	ldr	r3, [r7, #4]
 8002596:	681b      	ldr	r3, [r3, #0]
 8002598:	f022 0280 	bic.w	r2, r2, #128	; 0x80
 800259c:	605a      	str	r2, [r3, #4]
 800259e:	687b      	ldr	r3, [r7, #4]
 80025a0:	6c1b      	ldr	r3, [r3, #64]	; 0x40
 80025a2:	f423 5280 	bic.w	r2, r3, #4096	; 0x1000
 80025a6:	687b      	ldr	r3, [r7, #4]
 80025a8:	641a      	str	r2, [r3, #64]	; 0x40
 80025aa:	687b      	ldr	r3, [r7, #4]
 80025ac:	6c1b      	ldr	r3, [r3, #64]	; 0x40
 80025ae:	f403 7380 	and.w	r3, r3, #256	; 0x100
 80025b2:	2b00      	cmp	r3, #0
 80025b4:	d105      	bne.n	80025c2 <HAL_ADC_IRQHandler+0x180>
 80025b6:	687b      	ldr	r3, [r7, #4]
 80025b8:	6c1b      	ldr	r3, [r3, #64]	; 0x40
 80025ba:	f043 0201 	orr.w	r2, r3, #1
 80025be:	687b      	ldr	r3, [r7, #4]
 80025c0:	641a      	str	r2, [r3, #64]	; 0x40
 80025c2:	6878      	ldr	r0, [r7, #4]
 80025c4:	f000 fc0c 	bl	8002de0 <HAL_ADCEx_InjectedConvCpltCallback>
 80025c8:	687b      	ldr	r3, [r7, #4]
 80025ca:	681b      	ldr	r3, [r3, #0]
 80025cc:	f06f 020c 	mvn.w	r2, #12
 80025d0:	601a      	str	r2, [r3, #0]
 80025d2:	68fb      	ldr	r3, [r7, #12]
 80025d4:	f003 0301 	and.w	r3, r3, #1
 80025d8:	617b      	str	r3, [r7, #20]
 80025da:	68bb      	ldr	r3, [r7, #8]
 80025dc:	f003 0340 	and.w	r3, r3, #64	; 0x40
 80025e0:	613b      	str	r3, [r7, #16]
 80025e2:	697b      	ldr	r3, [r7, #20]
 80025e4:	2b00      	cmp	r3, #0
 80025e6:	d017      	beq.n	8002618 <HAL_ADC_IRQHandler+0x1d6>
 80025e8:	693b      	ldr	r3, [r7, #16]
 80025ea:	2b00      	cmp	r3, #0
 80025ec:	d014      	beq.n	8002618 <HAL_ADC_IRQHandler+0x1d6>
 80025ee:	687b      	ldr	r3, [r7, #4]
 80025f0:	681b      	ldr	r3, [r3, #0]
 80025f2:	681b      	ldr	r3, [r3, #0]
 80025f4:	f003 0301 	and.w	r3, r3, #1
 80025f8:	2b01      	cmp	r3, #1
 80025fa:	d10d      	bne.n	8002618 <HAL_ADC_IRQHandler+0x1d6>
 80025fc:	687b      	ldr	r3, [r7, #4]
 80025fe:	6c1b      	ldr	r3, [r3, #64]	; 0x40
 8002600:	f443 3280 	orr.w	r2, r3, #65536	; 0x10000
 8002604:	687b      	ldr	r3, [r7, #4]
 8002606:	641a      	str	r2, [r3, #64]	; 0x40
 8002608:	6878      	ldr	r0, [r7, #4]
 800260a:	f000 f925 	bl	8002858 <HAL_ADC_LevelOutOfWindowCallback>
 800260e:	687b      	ldr	r3, [r7, #4]
 8002610:	681b      	ldr	r3, [r3, #0]
 8002612:	f06f 0201 	mvn.w	r2, #1
 8002616:	601a      	str	r2, [r3, #0]
 8002618:	68fb      	ldr	r3, [r7, #12]
 800261a:	f003 0320 	and.w	r3, r3, #32
 800261e:	617b      	str	r3, [r7, #20]
 8002620:	68bb      	ldr	r3, [r7, #8]
 8002622:	f003 6380 	and.w	r3, r3, #67108864	; 0x4000000
 8002626:	613b      	str	r3, [r7, #16]
 8002628:	697b      	ldr	r3, [r7, #20]
 800262a:	2b00      	cmp	r3, #0
 800262c:	d015      	beq.n	800265a <HAL_ADC_IRQHandler+0x218>
 800262e:	693b      	ldr	r3, [r7, #16]
 8002630:	2b00      	cmp	r3, #0
 8002632:	d012      	beq.n	800265a <HAL_ADC_IRQHandler+0x218>
 8002634:	687b      	ldr	r3, [r7, #4]
 8002636:	6c5b      	ldr	r3, [r3, #68]	; 0x44
 8002638:	f043 0202 	orr.w	r2, r3, #2
 800263c:	687b      	ldr	r3, [r7, #4]
 800263e:	645a      	str	r2, [r3, #68]	; 0x44
 8002640:	687b      	ldr	r3, [r7, #4]
 8002642:	681b      	ldr	r3, [r3, #0]
 8002644:	f06f 0220 	mvn.w	r2, #32
 8002648:	601a      	str	r2, [r3, #0]
 800264a:	6878      	ldr	r0, [r7, #4]
 800264c:	f000 f90e 	bl	800286c <HAL_ADC_ErrorCallback>
 8002650:	687b      	ldr	r3, [r7, #4]
 8002652:	681b      	ldr	r3, [r3, #0]
 8002654:	f06f 0220 	mvn.w	r2, #32
 8002658:	601a      	str	r2, [r3, #0]
 800265a:	bf00      	nop
 800265c:	3718      	adds	r7, #24
 800265e:	46bd      	mov	sp, r7
 8002660:	bd80      	pop	{r7, pc}
	...

08002664 <HAL_ADC_Start_DMA>:
 8002664:	b580      	push	{r7, lr}
 8002666:	b086      	sub	sp, #24
 8002668:	af00      	add	r7, sp, #0
 800266a:	60f8      	str	r0, [r7, #12]
 800266c:	60b9      	str	r1, [r7, #8]
 800266e:	607a      	str	r2, [r7, #4]
 8002670:	2300      	movs	r3, #0
 8002672:	613b      	str	r3, [r7, #16]
 8002674:	68fb      	ldr	r3, [r7, #12]
 8002676:	f893 303c 	ldrb.w	r3, [r3, #60]	; 0x3c
 800267a:	2b01      	cmp	r3, #1
 800267c:	d101      	bne.n	8002682 <HAL_ADC_Start_DMA+0x1e>
 800267e:	2302      	movs	r3, #2
 8002680:	e0ce      	b.n	8002820 <HAL_ADC_Start_DMA+0x1bc>
 8002682:	68fb      	ldr	r3, [r7, #12]
 8002684:	2201      	movs	r2, #1
 8002686:	f883 203c 	strb.w	r2, [r3, #60]	; 0x3c
 800268a:	68fb      	ldr	r3, [r7, #12]
 800268c:	681b      	ldr	r3, [r3, #0]
 800268e:	689b      	ldr	r3, [r3, #8]
 8002690:	f003 0301 	and.w	r3, r3, #1
 8002694:	2b01      	cmp	r3, #1
 8002696:	d018      	beq.n	80026ca <HAL_ADC_Start_DMA+0x66>
 8002698:	68fb      	ldr	r3, [r7, #12]
 800269a:	681b      	ldr	r3, [r3, #0]
 800269c:	689a      	ldr	r2, [r3, #8]
 800269e:	68fb      	ldr	r3, [r7, #12]
 80026a0:	681b      	ldr	r3, [r3, #0]
 80026a2:	f042 0201 	orr.w	r2, r2, #1
 80026a6:	609a      	str	r2, [r3, #8]
 80026a8:	4b5f      	ldr	r3, [pc, #380]	; (8002828 <HAL_ADC_Start_DMA+0x1c4>)
 80026aa:	681b      	ldr	r3, [r3, #0]
 80026ac:	4a5f      	ldr	r2, [pc, #380]	; (800282c <HAL_ADC_Start_DMA+0x1c8>)
 80026ae:	fba2 2303 	umull	r2, r3, r2, r3
 80026b2:	0c9a      	lsrs	r2, r3, #18
 80026b4:	4613      	mov	r3, r2
 80026b6:	005b      	lsls	r3, r3, #1
 80026b8:	4413      	add	r3, r2
 80026ba:	613b      	str	r3, [r7, #16]
 80026bc:	e002      	b.n	80026c4 <HAL_ADC_Start_DMA+0x60>
 80026be:	693b      	ldr	r3, [r7, #16]
 80026c0:	3b01      	subs	r3, #1
 80026c2:	613b      	str	r3, [r7, #16]
 80026c4:	693b      	ldr	r3, [r7, #16]
 80026c6:	2b00      	cmp	r3, #0
 80026c8:	d1f9      	bne.n	80026be <HAL_ADC_Start_DMA+0x5a>
 80026ca:	68fb      	ldr	r3, [r7, #12]
 80026cc:	681b      	ldr	r3, [r3, #0]
 80026ce:	689b      	ldr	r3, [r3, #8]
 80026d0:	f403 7380 	and.w	r3, r3, #256	; 0x100
 80026d4:	f5b3 7f80 	cmp.w	r3, #256	; 0x100
 80026d8:	d107      	bne.n	80026ea <HAL_ADC_Start_DMA+0x86>
 80026da:	68fb      	ldr	r3, [r7, #12]
 80026dc:	681b      	ldr	r3, [r3, #0]
 80026de:	689a      	ldr	r2, [r3, #8]
 80026e0:	68fb      	ldr	r3, [r7, #12]
 80026e2:	681b      	ldr	r3, [r3, #0]
 80026e4:	f422 7280 	bic.w	r2, r2, #256	; 0x100
 80026e8:	609a      	str	r2, [r3, #8]
 80026ea:	68fb      	ldr	r3, [r7, #12]
 80026ec:	681b      	ldr	r3, [r3, #0]
 80026ee:	689b      	ldr	r3, [r3, #8]
 80026f0:	f003 0301 	and.w	r3, r3, #1
 80026f4:	2b01      	cmp	r3, #1
 80026f6:	f040 8086 	bne.w	8002806 <HAL_ADC_Start_DMA+0x1a2>
 80026fa:	68fb      	ldr	r3, [r7, #12]
 80026fc:	6c1b      	ldr	r3, [r3, #64]	; 0x40
 80026fe:	f423 63e0 	bic.w	r3, r3, #1792	; 0x700
 8002702:	f023 0301 	bic.w	r3, r3, #1
 8002706:	f443 7280 	orr.w	r2, r3, #256	; 0x100
 800270a:	68fb      	ldr	r3, [r7, #12]
 800270c:	641a      	str	r2, [r3, #64]	; 0x40
 800270e:	68fb      	ldr	r3, [r7, #12]
 8002710:	681b      	ldr	r3, [r3, #0]
 8002712:	685b      	ldr	r3, [r3, #4]
 8002714:	f403 6380 	and.w	r3, r3, #1024	; 0x400
 8002718:	2b00      	cmp	r3, #0
 800271a:	d007      	beq.n	800272c <HAL_ADC_Start_DMA+0xc8>
 800271c:	68fb      	ldr	r3, [r7, #12]
 800271e:	6c1b      	ldr	r3, [r3, #64]	; 0x40
 8002720:	f423 5340 	bic.w	r3, r3, #12288	; 0x3000
 8002724:	f443 5280 	orr.w	r2, r3, #4096	; 0x1000
 8002728:	68fb      	ldr	r3, [r7, #12]
 800272a:	641a      	str	r2, [r3, #64]	; 0x40
 800272c:	68fb      	ldr	r3, [r7, #12]
 800272e:	6c1b      	ldr	r3, [r3, #64]	; 0x40
 8002730:	f403 5380 	and.w	r3, r3, #4096	; 0x1000
 8002734:	f5b3 5f80 	cmp.w	r3, #4096	; 0x1000
 8002738:	d106      	bne.n	8002748 <HAL_ADC_Start_DMA+0xe4>
 800273a:	68fb      	ldr	r3, [r7, #12]
 800273c:	6c5b      	ldr	r3, [r3, #68]	; 0x44
 800273e:	f023 0206 	bic.w	r2, r3, #6
 8002742:	68fb      	ldr	r3, [r7, #12]
 8002744:	645a      	str	r2, [r3, #68]	; 0x44
 8002746:	e002      	b.n	800274e <HAL_ADC_Start_DMA+0xea>
 8002748:	68fb      	ldr	r3, [r7, #12]
 800274a:	2200      	movs	r2, #0
 800274c:	645a      	str	r2, [r3, #68]	; 0x44
 800274e:	68fb      	ldr	r3, [r7, #12]
 8002750:	2200      	movs	r2, #0
 8002752:	f883 203c 	strb.w	r2, [r3, #60]	; 0x3c
 8002756:	4b36      	ldr	r3, [pc, #216]	; (8002830 <HAL_ADC_Start_DMA+0x1cc>)
 8002758:	617b      	str	r3, [r7, #20]
 800275a:	68fb      	ldr	r3, [r7, #12]
 800275c:	6b9b      	ldr	r3, [r3, #56]	; 0x38
 800275e:	4a35      	ldr	r2, [pc, #212]	; (8002834 <HAL_ADC_Start_DMA+0x1d0>)
 8002760:	63da      	str	r2, [r3, #60]	; 0x3c
 8002762:	68fb      	ldr	r3, [r7, #12]
 8002764:	6b9b      	ldr	r3, [r3, #56]	; 0x38
 8002766:	4a34      	ldr	r2, [pc, #208]	; (8002838 <HAL_ADC_Start_DMA+0x1d4>)
 8002768:	641a      	str	r2, [r3, #64]	; 0x40
 800276a:	68fb      	ldr	r3, [r7, #12]
 800276c:	6b9b      	ldr	r3, [r3, #56]	; 0x38
 800276e:	4a33      	ldr	r2, [pc, #204]	; (800283c <HAL_ADC_Start_DMA+0x1d8>)
 8002770:	64da      	str	r2, [r3, #76]	; 0x4c
 8002772:	68fb      	ldr	r3, [r7, #12]
 8002774:	681b      	ldr	r3, [r3, #0]
 8002776:	f06f 0222 	mvn.w	r2, #34	; 0x22
 800277a:	601a      	str	r2, [r3, #0]
 800277c:	68fb      	ldr	r3, [r7, #12]
 800277e:	681b      	ldr	r3, [r3, #0]
 8002780:	685a      	ldr	r2, [r3, #4]
 8002782:	68fb      	ldr	r3, [r7, #12]
 8002784:	681b      	ldr	r3, [r3, #0]
 8002786:	f042 6280 	orr.w	r2, r2, #67108864	; 0x4000000
 800278a:	605a      	str	r2, [r3, #4]
 800278c:	68fb      	ldr	r3, [r7, #12]
 800278e:	681b      	ldr	r3, [r3, #0]
 8002790:	689a      	ldr	r2, [r3, #8]
 8002792:	68fb      	ldr	r3, [r7, #12]
 8002794:	681b      	ldr	r3, [r3, #0]
 8002796:	f442 7280 	orr.w	r2, r2, #256	; 0x100
 800279a:	609a      	str	r2, [r3, #8]
 800279c:	68fb      	ldr	r3, [r7, #12]
 800279e:	6b98      	ldr	r0, [r3, #56]	; 0x38
 80027a0:	68fb      	ldr	r3, [r7, #12]
 80027a2:	681b      	ldr	r3, [r3, #0]
 80027a4:	334c      	adds	r3, #76	; 0x4c
 80027a6:	4619      	mov	r1, r3
 80027a8:	68ba      	ldr	r2, [r7, #8]
 80027aa:	687b      	ldr	r3, [r7, #4]
 80027ac:	f000 fd14 	bl	80031d8 <HAL_DMA_Start_IT>
 80027b0:	697b      	ldr	r3, [r7, #20]
 80027b2:	685b      	ldr	r3, [r3, #4]
 80027b4:	f003 031f 	and.w	r3, r3, #31
 80027b8:	2b00      	cmp	r3, #0
 80027ba:	d10f      	bne.n	80027dc <HAL_ADC_Start_DMA+0x178>
 80027bc:	68fb      	ldr	r3, [r7, #12]
 80027be:	681b      	ldr	r3, [r3, #0]
 80027c0:	689b      	ldr	r3, [r3, #8]
 80027c2:	f003 5340 	and.w	r3, r3, #805306368	; 0x30000000
 80027c6:	2b00      	cmp	r3, #0
 80027c8:	d129      	bne.n	800281e <HAL_ADC_Start_DMA+0x1ba>
 80027ca:	68fb      	ldr	r3, [r7, #12]
 80027cc:	681b      	ldr	r3, [r3, #0]
 80027ce:	689a      	ldr	r2, [r3, #8]
 80027d0:	68fb      	ldr	r3, [r7, #12]
 80027d2:	681b      	ldr	r3, [r3, #0]
 80027d4:	f042 4280 	orr.w	r2, r2, #1073741824	; 0x40000000
 80027d8:	609a      	str	r2, [r3, #8]
 80027da:	e020      	b.n	800281e <HAL_ADC_Start_DMA+0x1ba>
 80027dc:	68fb      	ldr	r3, [r7, #12]
 80027de:	681b      	ldr	r3, [r3, #0]
 80027e0:	4a17      	ldr	r2, [pc, #92]	; (8002840 <HAL_ADC_Start_DMA+0x1dc>)
 80027e2:	4293      	cmp	r3, r2
 80027e4:	d11b      	bne.n	800281e <HAL_ADC_Start_DMA+0x1ba>
 80027e6:	68fb      	ldr	r3, [r7, #12]
 80027e8:	681b      	ldr	r3, [r3, #0]
 80027ea:	689b      	ldr	r3, [r3, #8]
 80027ec:	f003 5340 	and.w	r3, r3, #805306368	; 0x30000000
 80027f0:	2b00      	cmp	r3, #0
 80027f2:	d114      	bne.n	800281e <HAL_ADC_Start_DMA+0x1ba>
 80027f4:	68fb      	ldr	r3, [r7, #12]
 80027f6:	681b      	ldr	r3, [r3, #0]
 80027f8:	689a      	ldr	r2, [r3, #8]
 80027fa:	68fb      	ldr	r3, [r7, #12]
 80027fc:	681b      	ldr	r3, [r3, #0]
 80027fe:	f042 4280 	orr.w	r2, r2, #1073741824	; 0x40000000
 8002802:	609a      	str	r2, [r3, #8]
 8002804:	e00b      	b.n	800281e <HAL_ADC_Start_DMA+0x1ba>
 8002806:	68fb      	ldr	r3, [r7, #12]
 8002808:	6c1b      	ldr	r3, [r3, #64]	; 0x40
 800280a:	f043 0210 	orr.w	r2, r3, #16
 800280e:	68fb      	ldr	r3, [r7, #12]
 8002810:	641a      	str	r2, [r3, #64]	; 0x40
 8002812:	68fb      	ldr	r3, [r7, #12]
 8002814:	6c5b      	ldr	r3, [r3, #68]	; 0x44
 8002816:	f043 0201 	orr.w	r2, r3, #1
 800281a:	68fb      	ldr	r3, [r7, #12]
 800281c:	645a      	str	r2, [r3, #68]	; 0x44
 800281e:	2300      	movs	r3, #0
 8002820:	4618      	mov	r0, r3
 8002822:	3718      	adds	r7, #24
 8002824:	46bd      	mov	sp, r7
 8002826:	bd80      	pop	{r7, pc}
 8002828:	2000002c 	.word	0x2000002c
 800282c:	431bde83 	.word	0x431bde83
 8002830:	40012300 	.word	0x40012300
 8002834:	08002cdd 	.word	0x08002cdd
 8002838:	08002d97 	.word	0x08002d97
 800283c:	08002db3 	.word	0x08002db3
 8002840:	40012000 	.word	0x40012000

08002844 <HAL_ADC_ConvHalfCpltCallback>:
 8002844:	b480      	push	{r7}
 8002846:	b083      	sub	sp, #12
 8002848:	af00      	add	r7, sp, #0
 800284a:	6078      	str	r0, [r7, #4]
 800284c:	bf00      	nop
 800284e:	370c      	adds	r7, #12
 8002850:	46bd      	mov	sp, r7
 8002852:	f85d 7b04 	ldr.w	r7, [sp], #4
 8002856:	4770      	bx	lr

08002858 <HAL_ADC_LevelOutOfWindowCallback>:
 8002858:	b480      	push	{r7}
 800285a:	b083      	sub	sp, #12
 800285c:	af00      	add	r7, sp, #0
 800285e:	6078      	str	r0, [r7, #4]
 8002860:	bf00      	nop
 8002862:	370c      	adds	r7, #12
 8002864:	46bd      	mov	sp, r7
 8002866:	f85d 7b04 	ldr.w	r7, [sp], #4
 800286a:	4770      	bx	lr

0800286c <HAL_ADC_ErrorCallback>:
 800286c:	b480      	push	{r7}
 800286e:	b083      	sub	sp, #12
 8002870:	af00      	add	r7, sp, #0
 8002872:	6078      	str	r0, [r7, #4]
 8002874:	bf00      	nop
 8002876:	370c      	adds	r7, #12
 8002878:	46bd      	mov	sp, r7
 800287a:	f85d 7b04 	ldr.w	r7, [sp], #4
 800287e:	4770      	bx	lr

08002880 <HAL_ADC_ConfigChannel>:
 8002880:	b480      	push	{r7}
 8002882:	b085      	sub	sp, #20
 8002884:	af00      	add	r7, sp, #0
 8002886:	6078      	str	r0, [r7, #4]
 8002888:	6039      	str	r1, [r7, #0]
 800288a:	2300      	movs	r3, #0
 800288c:	60bb      	str	r3, [r7, #8]
 800288e:	687b      	ldr	r3, [r7, #4]
 8002890:	f893 303c 	ldrb.w	r3, [r3, #60]	; 0x3c
 8002894:	2b01      	cmp	r3, #1
 8002896:	d101      	bne.n	800289c <HAL_ADC_ConfigChannel+0x1c>
 8002898:	2302      	movs	r3, #2
 800289a:	e113      	b.n	8002ac4 <HAL_ADC_ConfigChannel+0x244>
 800289c:	687b      	ldr	r3, [r7, #4]
 800289e:	2201      	movs	r2, #1
 80028a0:	f883 203c 	strb.w	r2, [r3, #60]	; 0x3c
 80028a4:	683b      	ldr	r3, [r7, #0]
 80028a6:	681b      	ldr	r3, [r3, #0]
 80028a8:	2b09      	cmp	r3, #9
 80028aa:	d925      	bls.n	80028f8 <HAL_ADC_ConfigChannel+0x78>
 80028ac:	687b      	ldr	r3, [r7, #4]
 80028ae:	681b      	ldr	r3, [r3, #0]
 80028b0:	68d9      	ldr	r1, [r3, #12]
 80028b2:	683b      	ldr	r3, [r7, #0]
 80028b4:	681b      	ldr	r3, [r3, #0]
 80028b6:	b29b      	uxth	r3, r3
 80028b8:	461a      	mov	r2, r3
 80028ba:	4613      	mov	r3, r2
 80028bc:	005b      	lsls	r3, r3, #1
 80028be:	4413      	add	r3, r2
 80028c0:	3b1e      	subs	r3, #30
 80028c2:	2207      	movs	r2, #7
 80028c4:	fa02 f303 	lsl.w	r3, r2, r3
 80028c8:	43da      	mvns	r2, r3
 80028ca:	687b      	ldr	r3, [r7, #4]
 80028cc:	681b      	ldr	r3, [r3, #0]
 80028ce:	400a      	ands	r2, r1
 80028d0:	60da      	str	r2, [r3, #12]
 80028d2:	687b      	ldr	r3, [r7, #4]
 80028d4:	681b      	ldr	r3, [r3, #0]
 80028d6:	68d9      	ldr	r1, [r3, #12]
 80028d8:	683b      	ldr	r3, [r7, #0]
 80028da:	689a      	ldr	r2, [r3, #8]
 80028dc:	683b      	ldr	r3, [r7, #0]
 80028de:	681b      	ldr	r3, [r3, #0]
 80028e0:	b29b      	uxth	r3, r3
 80028e2:	4618      	mov	r0, r3
 80028e4:	4603      	mov	r3, r0
 80028e6:	005b      	lsls	r3, r3, #1
 80028e8:	4403      	add	r3, r0
 80028ea:	3b1e      	subs	r3, #30
 80028ec:	409a      	lsls	r2, r3
 80028ee:	687b      	ldr	r3, [r7, #4]
 80028f0:	681b      	ldr	r3, [r3, #0]
 80028f2:	430a      	orrs	r2, r1
 80028f4:	60da      	str	r2, [r3, #12]
 80028f6:	e022      	b.n	800293e <HAL_ADC_ConfigChannel+0xbe>
 80028f8:	687b      	ldr	r3, [r7, #4]
 80028fa:	681b      	ldr	r3, [r3, #0]
 80028fc:	6919      	ldr	r1, [r3, #16]
 80028fe:	683b      	ldr	r3, [r7, #0]
 8002900:	681b      	ldr	r3, [r3, #0]
 8002902:	b29b      	uxth	r3, r3
 8002904:	461a      	mov	r2, r3
 8002906:	4613      	mov	r3, r2
 8002908:	005b      	lsls	r3, r3, #1
 800290a:	4413      	add	r3, r2
 800290c:	2207      	movs	r2, #7
 800290e:	fa02 f303 	lsl.w	r3, r2, r3
 8002912:	43da      	mvns	r2, r3
 8002914:	687b      	ldr	r3, [r7, #4]
 8002916:	681b      	ldr	r3, [r3, #0]
 8002918:	400a      	ands	r2, r1
 800291a:	611a      	str	r2, [r3, #16]
 800291c:	687b      	ldr	r3, [r7, #4]
 800291e:	681b      	ldr	r3, [r3, #0]
 8002920:	6919      	ldr	r1, [r3, #16]
 8002922:	683b      	ldr	r3, [r7, #0]
 8002924:	689a      	ldr	r2, [r3, #8]
 8002926:	683b      	ldr	r3, [r7, #0]
 8002928:	681b      	ldr	r3, [r3, #0]
 800292a:	b29b      	uxth	r3, r3
 800292c:	4618      	mov	r0, r3
 800292e:	4603      	mov	r3, r0
 8002930:	005b      	lsls	r3, r3, #1
 8002932:	4403      	add	r3, r0
 8002934:	409a      	lsls	r2, r3
 8002936:	687b      	ldr	r3, [r7, #4]
 8002938:	681b      	ldr	r3, [r3, #0]
 800293a:	430a      	orrs	r2, r1
 800293c:	611a      	str	r2, [r3, #16]
 800293e:	683b      	ldr	r3, [r7, #0]
 8002940:	685b      	ldr	r3, [r3, #4]
 8002942:	2b06      	cmp	r3, #6
 8002944:	d824      	bhi.n	8002990 <HAL_ADC_ConfigChannel+0x110>
 8002946:	687b      	ldr	r3, [r7, #4]
 8002948:	681b      	ldr	r3, [r3, #0]
 800294a:	6b59      	ldr	r1, [r3, #52]	; 0x34
 800294c:	683b      	ldr	r3, [r7, #0]
 800294e:	685a      	ldr	r2, [r3, #4]
 8002950:	4613      	mov	r3, r2
 8002952:	009b      	lsls	r3, r3, #2
 8002954:	4413      	add	r3, r2
 8002956:	3b05      	subs	r3, #5
 8002958:	221f      	movs	r2, #31
 800295a:	fa02 f303 	lsl.w	r3, r2, r3
 800295e:	43da      	mvns	r2, r3
 8002960:	687b      	ldr	r3, [r7, #4]
 8002962:	681b      	ldr	r3, [r3, #0]
 8002964:	400a      	ands	r2, r1
 8002966:	635a      	str	r2, [r3, #52]	; 0x34
 8002968:	687b      	ldr	r3, [r7, #4]
 800296a:	681b      	ldr	r3, [r3, #0]
 800296c:	6b59      	ldr	r1, [r3, #52]	; 0x34
 800296e:	683b      	ldr	r3, [r7, #0]
 8002970:	681b      	ldr	r3, [r3, #0]
 8002972:	b29b      	uxth	r3, r3
 8002974:	4618      	mov	r0, r3
 8002976:	683b      	ldr	r3, [r7, #0]
 8002978:	685a      	ldr	r2, [r3, #4]
 800297a:	4613      	mov	r3, r2
 800297c:	009b      	lsls	r3, r3, #2
 800297e:	4413      	add	r3, r2
 8002980:	3b05      	subs	r3, #5
 8002982:	fa00 f203 	lsl.w	r2, r0, r3
 8002986:	687b      	ldr	r3, [r7, #4]
 8002988:	681b      	ldr	r3, [r3, #0]
 800298a:	430a      	orrs	r2, r1
 800298c:	635a      	str	r2, [r3, #52]	; 0x34
 800298e:	e04c      	b.n	8002a2a <HAL_ADC_ConfigChannel+0x1aa>
 8002990:	683b      	ldr	r3, [r7, #0]
 8002992:	685b      	ldr	r3, [r3, #4]
 8002994:	2b0c      	cmp	r3, #12
 8002996:	d824      	bhi.n	80029e2 <HAL_ADC_ConfigChannel+0x162>
 8002998:	687b      	ldr	r3, [r7, #4]
 800299a:	681b      	ldr	r3, [r3, #0]
 800299c:	6b19      	ldr	r1, [r3, #48]	; 0x30
 800299e:	683b      	ldr	r3, [r7, #0]
 80029a0:	685a      	ldr	r2, [r3, #4]
 80029a2:	4613      	mov	r3, r2
 80029a4:	009b      	lsls	r3, r3, #2
 80029a6:	4413      	add	r3, r2
 80029a8:	3b23      	subs	r3, #35	; 0x23
 80029aa:	221f      	movs	r2, #31
 80029ac:	fa02 f303 	lsl.w	r3, r2, r3
 80029b0:	43da      	mvns	r2, r3
 80029b2:	687b      	ldr	r3, [r7, #4]
 80029b4:	681b      	ldr	r3, [r3, #0]
 80029b6:	400a      	ands	r2, r1
 80029b8:	631a      	str	r2, [r3, #48]	; 0x30
 80029ba:	687b      	ldr	r3, [r7, #4]
 80029bc:	681b      	ldr	r3, [r3, #0]
 80029be:	6b19      	ldr	r1, [r3, #48]	; 0x30
 80029c0:	683b      	ldr	r3, [r7, #0]
 80029c2:	681b      	ldr	r3, [r3, #0]
 80029c4:	b29b      	uxth	r3, r3
 80029c6:	4618      	mov	r0, r3
 80029c8:	683b      	ldr	r3, [r7, #0]
 80029ca:	685a      	ldr	r2, [r3, #4]
 80029cc:	4613      	mov	r3, r2
 80029ce:	009b      	lsls	r3, r3, #2
 80029d0:	4413      	add	r3, r2
 80029d2:	3b23      	subs	r3, #35	; 0x23
 80029d4:	fa00 f203 	lsl.w	r2, r0, r3
 80029d8:	687b      	ldr	r3, [r7, #4]
 80029da:	681b      	ldr	r3, [r3, #0]
 80029dc:	430a      	orrs	r2, r1
 80029de:	631a      	str	r2, [r3, #48]	; 0x30
 80029e0:	e023      	b.n	8002a2a <HAL_ADC_ConfigChannel+0x1aa>
 80029e2:	687b      	ldr	r3, [r7, #4]
 80029e4:	681b      	ldr	r3, [r3, #0]
 80029e6:	6ad9      	ldr	r1, [r3, #44]	; 0x2c
 80029e8:	683b      	ldr	r3, [r7, #0]
 80029ea:	685a      	ldr	r2, [r3, #4]
 80029ec:	4613      	mov	r3, r2
 80029ee:	009b      	lsls	r3, r3, #2
 80029f0:	4413      	add	r3, r2
 80029f2:	3b41      	subs	r3, #65	; 0x41
 80029f4:	221f      	movs	r2, #31
 80029f6:	fa02 f303 	lsl.w	r3, r2, r3
 80029fa:	43da      	mvns	r2, r3
 80029fc:	687b      	ldr	r3, [r7, #4]
 80029fe:	681b      	ldr	r3, [r3, #0]
 8002a00:	400a      	ands	r2, r1
 8002a02:	62da      	str	r2, [r3, #44]	; 0x2c
 8002a04:	687b      	ldr	r3, [r7, #4]
 8002a06:	681b      	ldr	r3, [r3, #0]
 8002a08:	6ad9      	ldr	r1, [r3, #44]	; 0x2c
 8002a0a:	683b      	ldr	r3, [r7, #0]
 8002a0c:	681b      	ldr	r3, [r3, #0]
 8002a0e:	b29b      	uxth	r3, r3
 8002a10:	4618      	mov	r0, r3
 8002a12:	683b      	ldr	r3, [r7, #0]
 8002a14:	685a      	ldr	r2, [r3, #4]
 8002a16:	4613      	mov	r3, r2
 8002a18:	009b      	lsls	r3, r3, #2
 8002a1a:	4413      	add	r3, r2
 8002a1c:	3b41      	subs	r3, #65	; 0x41
 8002a1e:	fa00 f203 	lsl.w	r2, r0, r3
 8002a22:	687b      	ldr	r3, [r7, #4]
 8002a24:	681b      	ldr	r3, [r3, #0]
 8002a26:	430a      	orrs	r2, r1
 8002a28:	62da      	str	r2, [r3, #44]	; 0x2c
 8002a2a:	4b29      	ldr	r3, [pc, #164]	; (8002ad0 <HAL_ADC_ConfigChannel+0x250>)
 8002a2c:	60fb      	str	r3, [r7, #12]
 8002a2e:	687b      	ldr	r3, [r7, #4]
 8002a30:	681b      	ldr	r3, [r3, #0]
 8002a32:	4a28      	ldr	r2, [pc, #160]	; (8002ad4 <HAL_ADC_ConfigChannel+0x254>)
 8002a34:	4293      	cmp	r3, r2
 8002a36:	d10f      	bne.n	8002a58 <HAL_ADC_ConfigChannel+0x1d8>
 8002a38:	683b      	ldr	r3, [r7, #0]
 8002a3a:	681b      	ldr	r3, [r3, #0]
 8002a3c:	2b12      	cmp	r3, #18
 8002a3e:	d10b      	bne.n	8002a58 <HAL_ADC_ConfigChannel+0x1d8>
 8002a40:	68fb      	ldr	r3, [r7, #12]
 8002a42:	685b      	ldr	r3, [r3, #4]
 8002a44:	f423 0200 	bic.w	r2, r3, #8388608	; 0x800000
 8002a48:	68fb      	ldr	r3, [r7, #12]
 8002a4a:	605a      	str	r2, [r3, #4]
 8002a4c:	68fb      	ldr	r3, [r7, #12]
 8002a4e:	685b      	ldr	r3, [r3, #4]
 8002a50:	f443 0280 	orr.w	r2, r3, #4194304	; 0x400000
 8002a54:	68fb      	ldr	r3, [r7, #12]
 8002a56:	605a      	str	r2, [r3, #4]
 8002a58:	687b      	ldr	r3, [r7, #4]
 8002a5a:	681b      	ldr	r3, [r3, #0]
 8002a5c:	4a1d      	ldr	r2, [pc, #116]	; (8002ad4 <HAL_ADC_ConfigChannel+0x254>)
 8002a5e:	4293      	cmp	r3, r2
 8002a60:	d12b      	bne.n	8002aba <HAL_ADC_ConfigChannel+0x23a>
 8002a62:	683b      	ldr	r3, [r7, #0]
 8002a64:	681b      	ldr	r3, [r3, #0]
 8002a66:	4a1c      	ldr	r2, [pc, #112]	; (8002ad8 <HAL_ADC_ConfigChannel+0x258>)
 8002a68:	4293      	cmp	r3, r2
 8002a6a:	d003      	beq.n	8002a74 <HAL_ADC_ConfigChannel+0x1f4>
 8002a6c:	683b      	ldr	r3, [r7, #0]
 8002a6e:	681b      	ldr	r3, [r3, #0]
 8002a70:	2b11      	cmp	r3, #17
 8002a72:	d122      	bne.n	8002aba <HAL_ADC_ConfigChannel+0x23a>
 8002a74:	68fb      	ldr	r3, [r7, #12]
 8002a76:	685b      	ldr	r3, [r3, #4]
 8002a78:	f423 0280 	bic.w	r2, r3, #4194304	; 0x400000
 8002a7c:	68fb      	ldr	r3, [r7, #12]
 8002a7e:	605a      	str	r2, [r3, #4]
 8002a80:	68fb      	ldr	r3, [r7, #12]
 8002a82:	685b      	ldr	r3, [r3, #4]
 8002a84:	f443 0200 	orr.w	r2, r3, #8388608	; 0x800000
 8002a88:	68fb      	ldr	r3, [r7, #12]
 8002a8a:	605a      	str	r2, [r3, #4]
 8002a8c:	683b      	ldr	r3, [r7, #0]
 8002a8e:	681b      	ldr	r3, [r3, #0]
 8002a90:	4a11      	ldr	r2, [pc, #68]	; (8002ad8 <HAL_ADC_ConfigChannel+0x258>)
 8002a92:	4293      	cmp	r3, r2
 8002a94:	d111      	bne.n	8002aba <HAL_ADC_ConfigChannel+0x23a>
 8002a96:	4b11      	ldr	r3, [pc, #68]	; (8002adc <HAL_ADC_ConfigChannel+0x25c>)
 8002a98:	681b      	ldr	r3, [r3, #0]
 8002a9a:	4a11      	ldr	r2, [pc, #68]	; (8002ae0 <HAL_ADC_ConfigChannel+0x260>)
 8002a9c:	fba2 2303 	umull	r2, r3, r2, r3
 8002aa0:	0c9a      	lsrs	r2, r3, #18
 8002aa2:	4613      	mov	r3, r2
 8002aa4:	009b      	lsls	r3, r3, #2
 8002aa6:	4413      	add	r3, r2
 8002aa8:	005b      	lsls	r3, r3, #1
 8002aaa:	60bb      	str	r3, [r7, #8]
 8002aac:	e002      	b.n	8002ab4 <HAL_ADC_ConfigChannel+0x234>
 8002aae:	68bb      	ldr	r3, [r7, #8]
 8002ab0:	3b01      	subs	r3, #1
 8002ab2:	60bb      	str	r3, [r7, #8]
 8002ab4:	68bb      	ldr	r3, [r7, #8]
 8002ab6:	2b00      	cmp	r3, #0
 8002ab8:	d1f9      	bne.n	8002aae <HAL_ADC_ConfigChannel+0x22e>
 8002aba:	687b      	ldr	r3, [r7, #4]
 8002abc:	2200      	movs	r2, #0
 8002abe:	f883 203c 	strb.w	r2, [r3, #60]	; 0x3c
 8002ac2:	2300      	movs	r3, #0
 8002ac4:	4618      	mov	r0, r3
 8002ac6:	3714      	adds	r7, #20
 8002ac8:	46bd      	mov	sp, r7
 8002aca:	f85d 7b04 	ldr.w	r7, [sp], #4
 8002ace:	4770      	bx	lr
 8002ad0:	40012300 	.word	0x40012300
 8002ad4:	40012000 	.word	0x40012000
 8002ad8:	10000012 	.word	0x10000012
 8002adc:	2000002c 	.word	0x2000002c
 8002ae0:	431bde83 	.word	0x431bde83

08002ae4 <ADC_Init>:
 8002ae4:	b480      	push	{r7}
 8002ae6:	b085      	sub	sp, #20
 8002ae8:	af00      	add	r7, sp, #0
 8002aea:	6078      	str	r0, [r7, #4]
 8002aec:	4b79      	ldr	r3, [pc, #484]	; (8002cd4 <ADC_Init+0x1f0>)
 8002aee:	60fb      	str	r3, [r7, #12]
 8002af0:	68fb      	ldr	r3, [r7, #12]
 8002af2:	685b      	ldr	r3, [r3, #4]
 8002af4:	f423 3240 	bic.w	r2, r3, #196608	; 0x30000
 8002af8:	68fb      	ldr	r3, [r7, #12]
 8002afa:	605a      	str	r2, [r3, #4]
 8002afc:	68fb      	ldr	r3, [r7, #12]
 8002afe:	685a      	ldr	r2, [r3, #4]
 8002b00:	687b      	ldr	r3, [r7, #4]
 8002b02:	685b      	ldr	r3, [r3, #4]
 8002b04:	431a      	orrs	r2, r3
 8002b06:	68fb      	ldr	r3, [r7, #12]
 8002b08:	605a      	str	r2, [r3, #4]
 8002b0a:	687b      	ldr	r3, [r7, #4]
 8002b0c:	681b      	ldr	r3, [r3, #0]
 8002b0e:	685a      	ldr	r2, [r3, #4]
 8002b10:	687b      	ldr	r3, [r7, #4]
 8002b12:	681b      	ldr	r3, [r3, #0]
 8002b14:	f422 7280 	bic.w	r2, r2, #256	; 0x100
 8002b18:	605a      	str	r2, [r3, #4]
 8002b1a:	687b      	ldr	r3, [r7, #4]
 8002b1c:	681b      	ldr	r3, [r3, #0]
 8002b1e:	6859      	ldr	r1, [r3, #4]
 8002b20:	687b      	ldr	r3, [r7, #4]
 8002b22:	691b      	ldr	r3, [r3, #16]
 8002b24:	021a      	lsls	r2, r3, #8
 8002b26:	687b      	ldr	r3, [r7, #4]
 8002b28:	681b      	ldr	r3, [r3, #0]
 8002b2a:	430a      	orrs	r2, r1
 8002b2c:	605a      	str	r2, [r3, #4]
 8002b2e:	687b      	ldr	r3, [r7, #4]
 8002b30:	681b      	ldr	r3, [r3, #0]
 8002b32:	685a      	ldr	r2, [r3, #4]
 8002b34:	687b      	ldr	r3, [r7, #4]
 8002b36:	681b      	ldr	r3, [r3, #0]
 8002b38:	f022 7240 	bic.w	r2, r2, #50331648	; 0x3000000
 8002b3c:	605a      	str	r2, [r3, #4]
 8002b3e:	687b      	ldr	r3, [r7, #4]
 8002b40:	681b      	ldr	r3, [r3, #0]
 8002b42:	6859      	ldr	r1, [r3, #4]
 8002b44:	687b      	ldr	r3, [r7, #4]
 8002b46:	689a      	ldr	r2, [r3, #8]
 8002b48:	687b      	ldr	r3, [r7, #4]
 8002b4a:	681b      	ldr	r3, [r3, #0]
 8002b4c:	430a      	orrs	r2, r1
 8002b4e:	605a      	str	r2, [r3, #4]
 8002b50:	687b      	ldr	r3, [r7, #4]
 8002b52:	681b      	ldr	r3, [r3, #0]
 8002b54:	689a      	ldr	r2, [r3, #8]
 8002b56:	687b      	ldr	r3, [r7, #4]
 8002b58:	681b      	ldr	r3, [r3, #0]
 8002b5a:	f422 6200 	bic.w	r2, r2, #2048	; 0x800
 8002b5e:	609a      	str	r2, [r3, #8]
 8002b60:	687b      	ldr	r3, [r7, #4]
 8002b62:	681b      	ldr	r3, [r3, #0]
 8002b64:	6899      	ldr	r1, [r3, #8]
 8002b66:	687b      	ldr	r3, [r7, #4]
 8002b68:	68da      	ldr	r2, [r3, #12]
 8002b6a:	687b      	ldr	r3, [r7, #4]
 8002b6c:	681b      	ldr	r3, [r3, #0]
 8002b6e:	430a      	orrs	r2, r1
 8002b70:	609a      	str	r2, [r3, #8]
 8002b72:	687b      	ldr	r3, [r7, #4]
 8002b74:	6a9b      	ldr	r3, [r3, #40]	; 0x28
 8002b76:	4a58      	ldr	r2, [pc, #352]	; (8002cd8 <ADC_Init+0x1f4>)
 8002b78:	4293      	cmp	r3, r2
 8002b7a:	d022      	beq.n	8002bc2 <ADC_Init+0xde>
 8002b7c:	687b      	ldr	r3, [r7, #4]
 8002b7e:	681b      	ldr	r3, [r3, #0]
 8002b80:	689a      	ldr	r2, [r3, #8]
 8002b82:	687b      	ldr	r3, [r7, #4]
 8002b84:	681b      	ldr	r3, [r3, #0]
 8002b86:	f022 6270 	bic.w	r2, r2, #251658240	; 0xf000000
 8002b8a:	609a      	str	r2, [r3, #8]
 8002b8c:	687b      	ldr	r3, [r7, #4]
 8002b8e:	681b      	ldr	r3, [r3, #0]
 8002b90:	6899      	ldr	r1, [r3, #8]
 8002b92:	687b      	ldr	r3, [r7, #4]
 8002b94:	6a9a      	ldr	r2, [r3, #40]	; 0x28
 8002b96:	687b      	ldr	r3, [r7, #4]
 8002b98:	681b      	ldr	r3, [r3, #0]
 8002b9a:	430a      	orrs	r2, r1
 8002b9c:	609a      	str	r2, [r3, #8]
 8002b9e:	687b      	ldr	r3, [r7, #4]
 8002ba0:	681b      	ldr	r3, [r3, #0]
 8002ba2:	689a      	ldr	r2, [r3, #8]
 8002ba4:	687b      	ldr	r3, [r7, #4]
 8002ba6:	681b      	ldr	r3, [r3, #0]
 8002ba8:	f022 5240 	bic.w	r2, r2, #805306368	; 0x30000000
 8002bac:	609a      	str	r2, [r3, #8]
 8002bae:	687b      	ldr	r3, [r7, #4]
 8002bb0:	681b      	ldr	r3, [r3, #0]
 8002bb2:	6899      	ldr	r1, [r3, #8]
 8002bb4:	687b      	ldr	r3, [r7, #4]
 8002bb6:	6ada      	ldr	r2, [r3, #44]	; 0x2c
 8002bb8:	687b      	ldr	r3, [r7, #4]
 8002bba:	681b      	ldr	r3, [r3, #0]
 8002bbc:	430a      	orrs	r2, r1
 8002bbe:	609a      	str	r2, [r3, #8]
 8002bc0:	e00f      	b.n	8002be2 <ADC_Init+0xfe>
 8002bc2:	687b      	ldr	r3, [r7, #4]
 8002bc4:	681b      	ldr	r3, [r3, #0]
 8002bc6:	689a      	ldr	r2, [r3, #8]
 8002bc8:	687b      	ldr	r3, [r7, #4]
 8002bca:	681b      	ldr	r3, [r3, #0]
 8002bcc:	f022 6270 	bic.w	r2, r2, #251658240	; 0xf000000
 8002bd0:	609a      	str	r2, [r3, #8]
 8002bd2:	687b      	ldr	r3, [r7, #4]
 8002bd4:	681b      	ldr	r3, [r3, #0]
 8002bd6:	689a      	ldr	r2, [r3, #8]
 8002bd8:	687b      	ldr	r3, [r7, #4]
 8002bda:	681b      	ldr	r3, [r3, #0]
 8002bdc:	f022 5240 	bic.w	r2, r2, #805306368	; 0x30000000
 8002be0:	609a      	str	r2, [r3, #8]
 8002be2:	687b      	ldr	r3, [r7, #4]
 8002be4:	681b      	ldr	r3, [r3, #0]
 8002be6:	689a      	ldr	r2, [r3, #8]
 8002be8:	687b      	ldr	r3, [r7, #4]
 8002bea:	681b      	ldr	r3, [r3, #0]
 8002bec:	f022 0202 	bic.w	r2, r2, #2
 8002bf0:	609a      	str	r2, [r3, #8]
 8002bf2:	687b      	ldr	r3, [r7, #4]
 8002bf4:	681b      	ldr	r3, [r3, #0]
 8002bf6:	6899      	ldr	r1, [r3, #8]
 8002bf8:	687b      	ldr	r3, [r7, #4]
 8002bfa:	7e1b      	ldrb	r3, [r3, #24]
 8002bfc:	005a      	lsls	r2, r3, #1
 8002bfe:	687b      	ldr	r3, [r7, #4]
 8002c00:	681b      	ldr	r3, [r3, #0]
 8002c02:	430a      	orrs	r2, r1
 8002c04:	609a      	str	r2, [r3, #8]
 8002c06:	687b      	ldr	r3, [r7, #4]
 8002c08:	f893 3020 	ldrb.w	r3, [r3, #32]
 8002c0c:	2b00      	cmp	r3, #0
 8002c0e:	d01b      	beq.n	8002c48 <ADC_Init+0x164>
 8002c10:	687b      	ldr	r3, [r7, #4]
 8002c12:	681b      	ldr	r3, [r3, #0]
 8002c14:	685a      	ldr	r2, [r3, #4]
 8002c16:	687b      	ldr	r3, [r7, #4]
 8002c18:	681b      	ldr	r3, [r3, #0]
 8002c1a:	f442 6200 	orr.w	r2, r2, #2048	; 0x800
 8002c1e:	605a      	str	r2, [r3, #4]
 8002c20:	687b      	ldr	r3, [r7, #4]
 8002c22:	681b      	ldr	r3, [r3, #0]
 8002c24:	685a      	ldr	r2, [r3, #4]
 8002c26:	687b      	ldr	r3, [r7, #4]
 8002c28:	681b      	ldr	r3, [r3, #0]
 8002c2a:	f422 4260 	bic.w	r2, r2, #57344	; 0xe000
 8002c2e:	605a      	str	r2, [r3, #4]
 8002c30:	687b      	ldr	r3, [r7, #4]
 8002c32:	681b      	ldr	r3, [r3, #0]
 8002c34:	6859      	ldr	r1, [r3, #4]
 8002c36:	687b      	ldr	r3, [r7, #4]
 8002c38:	6a5b      	ldr	r3, [r3, #36]	; 0x24
 8002c3a:	3b01      	subs	r3, #1
 8002c3c:	035a      	lsls	r2, r3, #13
 8002c3e:	687b      	ldr	r3, [r7, #4]
 8002c40:	681b      	ldr	r3, [r3, #0]
 8002c42:	430a      	orrs	r2, r1
 8002c44:	605a      	str	r2, [r3, #4]
 8002c46:	e007      	b.n	8002c58 <ADC_Init+0x174>
 8002c48:	687b      	ldr	r3, [r7, #4]
 8002c4a:	681b      	ldr	r3, [r3, #0]
 8002c4c:	685a      	ldr	r2, [r3, #4]
 8002c4e:	687b      	ldr	r3, [r7, #4]
 8002c50:	681b      	ldr	r3, [r3, #0]
 8002c52:	f422 6200 	bic.w	r2, r2, #2048	; 0x800
 8002c56:	605a      	str	r2, [r3, #4]
 8002c58:	687b      	ldr	r3, [r7, #4]
 8002c5a:	681b      	ldr	r3, [r3, #0]
 8002c5c:	6ada      	ldr	r2, [r3, #44]	; 0x2c
 8002c5e:	687b      	ldr	r3, [r7, #4]
 8002c60:	681b      	ldr	r3, [r3, #0]
 8002c62:	f422 0270 	bic.w	r2, r2, #15728640	; 0xf00000
 8002c66:	62da      	str	r2, [r3, #44]	; 0x2c
 8002c68:	687b      	ldr	r3, [r7, #4]
 8002c6a:	681b      	ldr	r3, [r3, #0]
 8002c6c:	6ad9      	ldr	r1, [r3, #44]	; 0x2c
 8002c6e:	687b      	ldr	r3, [r7, #4]
 8002c70:	69db      	ldr	r3, [r3, #28]
 8002c72:	3b01      	subs	r3, #1
 8002c74:	051a      	lsls	r2, r3, #20
 8002c76:	687b      	ldr	r3, [r7, #4]
 8002c78:	681b      	ldr	r3, [r3, #0]
 8002c7a:	430a      	orrs	r2, r1
 8002c7c:	62da      	str	r2, [r3, #44]	; 0x2c
 8002c7e:	687b      	ldr	r3, [r7, #4]
 8002c80:	681b      	ldr	r3, [r3, #0]
 8002c82:	689a      	ldr	r2, [r3, #8]
 8002c84:	687b      	ldr	r3, [r7, #4]
 8002c86:	681b      	ldr	r3, [r3, #0]
 8002c88:	f422 7200 	bic.w	r2, r2, #512	; 0x200
 8002c8c:	609a      	str	r2, [r3, #8]
 8002c8e:	687b      	ldr	r3, [r7, #4]
 8002c90:	681b      	ldr	r3, [r3, #0]
 8002c92:	6899      	ldr	r1, [r3, #8]
 8002c94:	687b      	ldr	r3, [r7, #4]
 8002c96:	f893 3030 	ldrb.w	r3, [r3, #48]	; 0x30
 8002c9a:	025a      	lsls	r2, r3, #9
 8002c9c:	687b      	ldr	r3, [r7, #4]
 8002c9e:	681b      	ldr	r3, [r3, #0]
 8002ca0:	430a      	orrs	r2, r1
 8002ca2:	609a      	str	r2, [r3, #8]
 8002ca4:	687b      	ldr	r3, [r7, #4]
 8002ca6:	681b      	ldr	r3, [r3, #0]
 8002ca8:	689a      	ldr	r2, [r3, #8]
 8002caa:	687b      	ldr	r3, [r7, #4]
 8002cac:	681b      	ldr	r3, [r3, #0]
 8002cae:	f422 6280 	bic.w	r2, r2, #1024	; 0x400
 8002cb2:	609a      	str	r2, [r3, #8]
 8002cb4:	687b      	ldr	r3, [r7, #4]
 8002cb6:	681b      	ldr	r3, [r3, #0]
 8002cb8:	6899      	ldr	r1, [r3, #8]
 8002cba:	687b      	ldr	r3, [r7, #4]
 8002cbc:	695b      	ldr	r3, [r3, #20]
 8002cbe:	029a      	lsls	r2, r3, #10
 8002cc0:	687b      	ldr	r3, [r7, #4]
 8002cc2:	681b      	ldr	r3, [r3, #0]
 8002cc4:	430a      	orrs	r2, r1
 8002cc6:	609a      	str	r2, [r3, #8]
 8002cc8:	bf00      	nop
 8002cca:	3714      	adds	r7, #20
 8002ccc:	46bd      	mov	sp, r7
 8002cce:	f85d 7b04 	ldr.w	r7, [sp], #4
 8002cd2:	4770      	bx	lr
 8002cd4:	40012300 	.word	0x40012300
 8002cd8:	0f000001 	.word	0x0f000001

08002cdc <ADC_DMAConvCplt>:
 8002cdc:	b580      	push	{r7, lr}
 8002cde:	b084      	sub	sp, #16
 8002ce0:	af00      	add	r7, sp, #0
 8002ce2:	6078      	str	r0, [r7, #4]
 8002ce4:	687b      	ldr	r3, [r7, #4]
 8002ce6:	6b9b      	ldr	r3, [r3, #56]	; 0x38
 8002ce8:	60fb      	str	r3, [r7, #12]
 8002cea:	68fb      	ldr	r3, [r7, #12]
 8002cec:	6c1b      	ldr	r3, [r3, #64]	; 0x40
 8002cee:	f003 0350 	and.w	r3, r3, #80	; 0x50
 8002cf2:	2b00      	cmp	r3, #0
 8002cf4:	d13c      	bne.n	8002d70 <ADC_DMAConvCplt+0x94>
 8002cf6:	68fb      	ldr	r3, [r7, #12]
 8002cf8:	6c1b      	ldr	r3, [r3, #64]	; 0x40
 8002cfa:	f443 7200 	orr.w	r2, r3, #512	; 0x200
 8002cfe:	68fb      	ldr	r3, [r7, #12]
 8002d00:	641a      	str	r2, [r3, #64]	; 0x40
 8002d02:	68fb      	ldr	r3, [r7, #12]
 8002d04:	681b      	ldr	r3, [r3, #0]
 8002d06:	689b      	ldr	r3, [r3, #8]
 8002d08:	f003 5340 	and.w	r3, r3, #805306368	; 0x30000000
 8002d0c:	2b00      	cmp	r3, #0
 8002d0e:	d12b      	bne.n	8002d68 <ADC_DMAConvCplt+0x8c>
 8002d10:	68fb      	ldr	r3, [r7, #12]
 8002d12:	7e1b      	ldrb	r3, [r3, #24]
 8002d14:	2b00      	cmp	r3, #0
 8002d16:	d127      	bne.n	8002d68 <ADC_DMAConvCplt+0x8c>
 8002d18:	68fb      	ldr	r3, [r7, #12]
 8002d1a:	681b      	ldr	r3, [r3, #0]
 8002d1c:	6adb      	ldr	r3, [r3, #44]	; 0x2c
 8002d1e:	f403 0370 	and.w	r3, r3, #15728640	; 0xf00000
 8002d22:	2b00      	cmp	r3, #0
 8002d24:	d006      	beq.n	8002d34 <ADC_DMAConvCplt+0x58>
 8002d26:	68fb      	ldr	r3, [r7, #12]
 8002d28:	681b      	ldr	r3, [r3, #0]
 8002d2a:	689b      	ldr	r3, [r3, #8]
 8002d2c:	f403 6380 	and.w	r3, r3, #1024	; 0x400
 8002d30:	2b00      	cmp	r3, #0
 8002d32:	d119      	bne.n	8002d68 <ADC_DMAConvCplt+0x8c>
 8002d34:	68fb      	ldr	r3, [r7, #12]
 8002d36:	681b      	ldr	r3, [r3, #0]
 8002d38:	685a      	ldr	r2, [r3, #4]
 8002d3a:	68fb      	ldr	r3, [r7, #12]
 8002d3c:	681b      	ldr	r3, [r3, #0]
 8002d3e:	f022 0220 	bic.w	r2, r2, #32
 8002d42:	605a      	str	r2, [r3, #4]
 8002d44:	68fb      	ldr	r3, [r7, #12]
 8002d46:	6c1b      	ldr	r3, [r3, #64]	; 0x40
 8002d48:	f423 7280 	bic.w	r2, r3, #256	; 0x100
 8002d4c:	68fb      	ldr	r3, [r7, #12]
 8002d4e:	641a      	str	r2, [r3, #64]	; 0x40
 8002d50:	68fb      	ldr	r3, [r7, #12]
 8002d52:	6c1b      	ldr	r3, [r3, #64]	; 0x40
 8002d54:	f403 5380 	and.w	r3, r3, #4096	; 0x1000
 8002d58:	2b00      	cmp	r3, #0
 8002d5a:	d105      	bne.n	8002d68 <ADC_DMAConvCplt+0x8c>
 8002d5c:	68fb      	ldr	r3, [r7, #12]
 8002d5e:	6c1b      	ldr	r3, [r3, #64]	; 0x40
 8002d60:	f043 0201 	orr.w	r2, r3, #1
 8002d64:	68fb      	ldr	r3, [r7, #12]
 8002d66:	641a      	str	r2, [r3, #64]	; 0x40
 8002d68:	68f8      	ldr	r0, [r7, #12]
 8002d6a:	f7fd ff19 	bl	8000ba0 <HAL_ADC_ConvCpltCallback>
 8002d6e:	e00e      	b.n	8002d8e <ADC_DMAConvCplt+0xb2>
 8002d70:	68fb      	ldr	r3, [r7, #12]
 8002d72:	6c1b      	ldr	r3, [r3, #64]	; 0x40
 8002d74:	f003 0310 	and.w	r3, r3, #16
 8002d78:	2b00      	cmp	r3, #0
 8002d7a:	d003      	beq.n	8002d84 <ADC_DMAConvCplt+0xa8>
 8002d7c:	68f8      	ldr	r0, [r7, #12]
 8002d7e:	f7ff fd75 	bl	800286c <HAL_ADC_ErrorCallback>
 8002d82:	e004      	b.n	8002d8e <ADC_DMAConvCplt+0xb2>
 8002d84:	68fb      	ldr	r3, [r7, #12]
 8002d86:	6b9b      	ldr	r3, [r3, #56]	; 0x38
 8002d88:	6cdb      	ldr	r3, [r3, #76]	; 0x4c
 8002d8a:	6878      	ldr	r0, [r7, #4]
 8002d8c:	4798      	blx	r3
 8002d8e:	bf00      	nop
 8002d90:	3710      	adds	r7, #16
 8002d92:	46bd      	mov	sp, r7
 8002d94:	bd80      	pop	{r7, pc}

08002d96 <ADC_DMAHalfConvCplt>:
 8002d96:	b580      	push	{r7, lr}
 8002d98:	b084      	sub	sp, #16
 8002d9a:	af00      	add	r7, sp, #0
 8002d9c:	6078      	str	r0, [r7, #4]
 8002d9e:	687b      	ldr	r3, [r7, #4]
 8002da0:	6b9b      	ldr	r3, [r3, #56]	; 0x38
 8002da2:	60fb      	str	r3, [r7, #12]
 8002da4:	68f8      	ldr	r0, [r7, #12]
 8002da6:	f7ff fd4d 	bl	8002844 <HAL_ADC_ConvHalfCpltCallback>
 8002daa:	bf00      	nop
 8002dac:	3710      	adds	r7, #16
 8002dae:	46bd      	mov	sp, r7
 8002db0:	bd80      	pop	{r7, pc}

08002db2 <ADC_DMAError>:
 8002db2:	b580      	push	{r7, lr}
 8002db4:	b084      	sub	sp, #16
 8002db6:	af00      	add	r7, sp, #0
 8002db8:	6078      	str	r0, [r7, #4]
 8002dba:	687b      	ldr	r3, [r7, #4]
 8002dbc:	6b9b      	ldr	r3, [r3, #56]	; 0x38
 8002dbe:	60fb      	str	r3, [r7, #12]
 8002dc0:	68fb      	ldr	r3, [r7, #12]
 8002dc2:	2240      	movs	r2, #64	; 0x40
 8002dc4:	641a      	str	r2, [r3, #64]	; 0x40
 8002dc6:	68fb      	ldr	r3, [r7, #12]
 8002dc8:	6c5b      	ldr	r3, [r3, #68]	; 0x44
 8002dca:	f043 0204 	orr.w	r2, r3, #4
 8002dce:	68fb      	ldr	r3, [r7, #12]
 8002dd0:	645a      	str	r2, [r3, #68]	; 0x44
 8002dd2:	68f8      	ldr	r0, [r7, #12]
 8002dd4:	f7ff fd4a 	bl	800286c <HAL_ADC_ErrorCallback>
 8002dd8:	bf00      	nop
 8002dda:	3710      	adds	r7, #16
 8002ddc:	46bd      	mov	sp, r7
 8002dde:	bd80      	pop	{r7, pc}

08002de0 <HAL_ADCEx_InjectedConvCpltCallback>:
 8002de0:	b480      	push	{r7}
 8002de2:	b083      	sub	sp, #12
 8002de4:	af00      	add	r7, sp, #0
 8002de6:	6078      	str	r0, [r7, #4]
 8002de8:	bf00      	nop
 8002dea:	370c      	adds	r7, #12
 8002dec:	46bd      	mov	sp, r7
 8002dee:	f85d 7b04 	ldr.w	r7, [sp], #4
 8002df2:	4770      	bx	lr

08002df4 <__NVIC_SetPriorityGrouping>:
 8002df4:	b480      	push	{r7}
 8002df6:	b085      	sub	sp, #20
 8002df8:	af00      	add	r7, sp, #0
 8002dfa:	6078      	str	r0, [r7, #4]
 8002dfc:	687b      	ldr	r3, [r7, #4]
 8002dfe:	f003 0307 	and.w	r3, r3, #7
 8002e02:	60fb      	str	r3, [r7, #12]
 8002e04:	4b0c      	ldr	r3, [pc, #48]	; (8002e38 <__NVIC_SetPriorityGrouping+0x44>)
 8002e06:	68db      	ldr	r3, [r3, #12]
 8002e08:	60bb      	str	r3, [r7, #8]
 8002e0a:	68ba      	ldr	r2, [r7, #8]
 8002e0c:	f64f 03ff 	movw	r3, #63743	; 0xf8ff
 8002e10:	4013      	ands	r3, r2
 8002e12:	60bb      	str	r3, [r7, #8]
 8002e14:	68fb      	ldr	r3, [r7, #12]
 8002e16:	021a      	lsls	r2, r3, #8
 8002e18:	68bb      	ldr	r3, [r7, #8]
 8002e1a:	4313      	orrs	r3, r2
 8002e1c:	f043 63bf 	orr.w	r3, r3, #100139008	; 0x5f80000
 8002e20:	f443 3300 	orr.w	r3, r3, #131072	; 0x20000
 8002e24:	60bb      	str	r3, [r7, #8]
 8002e26:	4a04      	ldr	r2, [pc, #16]	; (8002e38 <__NVIC_SetPriorityGrouping+0x44>)
 8002e28:	68bb      	ldr	r3, [r7, #8]
 8002e2a:	60d3      	str	r3, [r2, #12]
 8002e2c:	bf00      	nop
 8002e2e:	3714      	adds	r7, #20
 8002e30:	46bd      	mov	sp, r7
 8002e32:	f85d 7b04 	ldr.w	r7, [sp], #4
 8002e36:	4770      	bx	lr
 8002e38:	e000ed00 	.word	0xe000ed00

08002e3c <__NVIC_GetPriorityGrouping>:
 8002e3c:	b480      	push	{r7}
 8002e3e:	af00      	add	r7, sp, #0
 8002e40:	4b04      	ldr	r3, [pc, #16]	; (8002e54 <__NVIC_GetPriorityGrouping+0x18>)
 8002e42:	68db      	ldr	r3, [r3, #12]
 8002e44:	0a1b      	lsrs	r3, r3, #8
 8002e46:	f003 0307 	and.w	r3, r3, #7
 8002e4a:	4618      	mov	r0, r3
 8002e4c:	46bd      	mov	sp, r7
 8002e4e:	f85d 7b04 	ldr.w	r7, [sp], #4
 8002e52:	4770      	bx	lr
 8002e54:	e000ed00 	.word	0xe000ed00

08002e58 <__NVIC_EnableIRQ>:
 8002e58:	b480      	push	{r7}
 8002e5a:	b083      	sub	sp, #12
 8002e5c:	af00      	add	r7, sp, #0
 8002e5e:	4603      	mov	r3, r0
 8002e60:	71fb      	strb	r3, [r7, #7]
 8002e62:	f997 3007 	ldrsb.w	r3, [r7, #7]
 8002e66:	2b00      	cmp	r3, #0
 8002e68:	db0b      	blt.n	8002e82 <__NVIC_EnableIRQ+0x2a>
 8002e6a:	79fb      	ldrb	r3, [r7, #7]
 8002e6c:	f003 021f 	and.w	r2, r3, #31
 8002e70:	4907      	ldr	r1, [pc, #28]	; (8002e90 <__NVIC_EnableIRQ+0x38>)
 8002e72:	f997 3007 	ldrsb.w	r3, [r7, #7]
 8002e76:	095b      	lsrs	r3, r3, #5
 8002e78:	2001      	movs	r0, #1
 8002e7a:	fa00 f202 	lsl.w	r2, r0, r2
 8002e7e:	f841 2023 	str.w	r2, [r1, r3, lsl #2]
 8002e82:	bf00      	nop
 8002e84:	370c      	adds	r7, #12
 8002e86:	46bd      	mov	sp, r7
 8002e88:	f85d 7b04 	ldr.w	r7, [sp], #4
 8002e8c:	4770      	bx	lr
 8002e8e:	bf00      	nop
 8002e90:	e000e100 	.word	0xe000e100

08002e94 <__NVIC_DisableIRQ>:
 8002e94:	b480      	push	{r7}
 8002e96:	b083      	sub	sp, #12
 8002e98:	af00      	add	r7, sp, #0
 8002e9a:	4603      	mov	r3, r0
 8002e9c:	71fb      	strb	r3, [r7, #7]
 8002e9e:	f997 3007 	ldrsb.w	r3, [r7, #7]
 8002ea2:	2b00      	cmp	r3, #0
 8002ea4:	db12      	blt.n	8002ecc <__NVIC_DisableIRQ+0x38>
 8002ea6:	79fb      	ldrb	r3, [r7, #7]
 8002ea8:	f003 021f 	and.w	r2, r3, #31
 8002eac:	490a      	ldr	r1, [pc, #40]	; (8002ed8 <__NVIC_DisableIRQ+0x44>)
 8002eae:	f997 3007 	ldrsb.w	r3, [r7, #7]
 8002eb2:	095b      	lsrs	r3, r3, #5
 8002eb4:	2001      	movs	r0, #1
 8002eb6:	fa00 f202 	lsl.w	r2, r0, r2
 8002eba:	3320      	adds	r3, #32
 8002ebc:	f841 2023 	str.w	r2, [r1, r3, lsl #2]
 8002ec0:	f3bf 8f4f 	dsb	sy
 8002ec4:	bf00      	nop
 8002ec6:	f3bf 8f6f 	isb	sy
 8002eca:	bf00      	nop
 8002ecc:	bf00      	nop
 8002ece:	370c      	adds	r7, #12
 8002ed0:	46bd      	mov	sp, r7
 8002ed2:	f85d 7b04 	ldr.w	r7, [sp], #4
 8002ed6:	4770      	bx	lr
 8002ed8:	e000e100 	.word	0xe000e100

08002edc <__NVIC_SetPriority>:
 8002edc:	b480      	push	{r7}
 8002ede:	b083      	sub	sp, #12
 8002ee0:	af00      	add	r7, sp, #0
 8002ee2:	4603      	mov	r3, r0
 8002ee4:	6039      	str	r1, [r7, #0]
 8002ee6:	71fb      	strb	r3, [r7, #7]
 8002ee8:	f997 3007 	ldrsb.w	r3, [r7, #7]
 8002eec:	2b00      	cmp	r3, #0
 8002eee:	db0a      	blt.n	8002f06 <__NVIC_SetPriority+0x2a>
 8002ef0:	683b      	ldr	r3, [r7, #0]
 8002ef2:	b2da      	uxtb	r2, r3
 8002ef4:	490c      	ldr	r1, [pc, #48]	; (8002f28 <__NVIC_SetPriority+0x4c>)
 8002ef6:	f997 3007 	ldrsb.w	r3, [r7, #7]
 8002efa:	0112      	lsls	r2, r2, #4
 8002efc:	b2d2      	uxtb	r2, r2
 8002efe:	440b      	add	r3, r1
 8002f00:	f883 2300 	strb.w	r2, [r3, #768]	; 0x300
 8002f04:	e00a      	b.n	8002f1c <__NVIC_SetPriority+0x40>
 8002f06:	683b      	ldr	r3, [r7, #0]
 8002f08:	b2da      	uxtb	r2, r3
 8002f0a:	4908      	ldr	r1, [pc, #32]	; (8002f2c <__NVIC_SetPriority+0x50>)
 8002f0c:	79fb      	ldrb	r3, [r7, #7]
 8002f0e:	f003 030f 	and.w	r3, r3, #15
 8002f12:	3b04      	subs	r3, #4
 8002f14:	0112      	lsls	r2, r2, #4
 8002f16:	b2d2      	uxtb	r2, r2
 8002f18:	440b      	add	r3, r1
 8002f1a:	761a      	strb	r2, [r3, #24]
 8002f1c:	bf00      	nop
 8002f1e:	370c      	adds	r7, #12
 8002f20:	46bd      	mov	sp, r7
 8002f22:	f85d 7b04 	ldr.w	r7, [sp], #4
 8002f26:	4770      	bx	lr
 8002f28:	e000e100 	.word	0xe000e100
 8002f2c:	e000ed00 	.word	0xe000ed00

08002f30 <NVIC_EncodePriority>:
 8002f30:	b480      	push	{r7}
 8002f32:	b089      	sub	sp, #36	; 0x24
 8002f34:	af00      	add	r7, sp, #0
 8002f36:	60f8      	str	r0, [r7, #12]
 8002f38:	60b9      	str	r1, [r7, #8]
 8002f3a:	607a      	str	r2, [r7, #4]
 8002f3c:	68fb      	ldr	r3, [r7, #12]
 8002f3e:	f003 0307 	and.w	r3, r3, #7
 8002f42:	61fb      	str	r3, [r7, #28]
 8002f44:	69fb      	ldr	r3, [r7, #28]
 8002f46:	f1c3 0307 	rsb	r3, r3, #7
 8002f4a:	2b04      	cmp	r3, #4
 8002f4c:	bf28      	it	cs
 8002f4e:	2304      	movcs	r3, #4
 8002f50:	61bb      	str	r3, [r7, #24]
 8002f52:	69fb      	ldr	r3, [r7, #28]
 8002f54:	3304      	adds	r3, #4
 8002f56:	2b06      	cmp	r3, #6
 8002f58:	d902      	bls.n	8002f60 <NVIC_EncodePriority+0x30>
 8002f5a:	69fb      	ldr	r3, [r7, #28]
 8002f5c:	3b03      	subs	r3, #3
 8002f5e:	e000      	b.n	8002f62 <NVIC_EncodePriority+0x32>
 8002f60:	2300      	movs	r3, #0
 8002f62:	617b      	str	r3, [r7, #20]
 8002f64:	f04f 32ff 	mov.w	r2, #4294967295
 8002f68:	69bb      	ldr	r3, [r7, #24]
 8002f6a:	fa02 f303 	lsl.w	r3, r2, r3
 8002f6e:	43da      	mvns	r2, r3
 8002f70:	68bb      	ldr	r3, [r7, #8]
 8002f72:	401a      	ands	r2, r3
 8002f74:	697b      	ldr	r3, [r7, #20]
 8002f76:	409a      	lsls	r2, r3
 8002f78:	f04f 31ff 	mov.w	r1, #4294967295
 8002f7c:	697b      	ldr	r3, [r7, #20]
 8002f7e:	fa01 f303 	lsl.w	r3, r1, r3
 8002f82:	43d9      	mvns	r1, r3
 8002f84:	687b      	ldr	r3, [r7, #4]
 8002f86:	400b      	ands	r3, r1
 8002f88:	4313      	orrs	r3, r2
 8002f8a:	4618      	mov	r0, r3
 8002f8c:	3724      	adds	r7, #36	; 0x24
 8002f8e:	46bd      	mov	sp, r7
 8002f90:	f85d 7b04 	ldr.w	r7, [sp], #4
 8002f94:	4770      	bx	lr
	...

08002f98 <SysTick_Config>:
 8002f98:	b580      	push	{r7, lr}
 8002f9a:	b082      	sub	sp, #8
 8002f9c:	af00      	add	r7, sp, #0
 8002f9e:	6078      	str	r0, [r7, #4]
 8002fa0:	687b      	ldr	r3, [r7, #4]
 8002fa2:	3b01      	subs	r3, #1
 8002fa4:	f1b3 7f80 	cmp.w	r3, #16777216	; 0x1000000
 8002fa8:	d301      	bcc.n	8002fae <SysTick_Config+0x16>
 8002faa:	2301      	movs	r3, #1
 8002fac:	e00f      	b.n	8002fce <SysTick_Config+0x36>
 8002fae:	4a0a      	ldr	r2, [pc, #40]	; (8002fd8 <SysTick_Config+0x40>)
 8002fb0:	687b      	ldr	r3, [r7, #4]
 8002fb2:	3b01      	subs	r3, #1
 8002fb4:	6053      	str	r3, [r2, #4]
 8002fb6:	210f      	movs	r1, #15
 8002fb8:	f04f 30ff 	mov.w	r0, #4294967295
 8002fbc:	f7ff ff8e 	bl	8002edc <__NVIC_SetPriority>
 8002fc0:	4b05      	ldr	r3, [pc, #20]	; (8002fd8 <SysTick_Config+0x40>)
 8002fc2:	2200      	movs	r2, #0
 8002fc4:	609a      	str	r2, [r3, #8]
 8002fc6:	4b04      	ldr	r3, [pc, #16]	; (8002fd8 <SysTick_Config+0x40>)
 8002fc8:	2207      	movs	r2, #7
 8002fca:	601a      	str	r2, [r3, #0]
 8002fcc:	2300      	movs	r3, #0
 8002fce:	4618      	mov	r0, r3
 8002fd0:	3708      	adds	r7, #8
 8002fd2:	46bd      	mov	sp, r7
 8002fd4:	bd80      	pop	{r7, pc}
 8002fd6:	bf00      	nop
 8002fd8:	e000e010 	.word	0xe000e010

08002fdc <HAL_NVIC_SetPriorityGrouping>:
 8002fdc:	b580      	push	{r7, lr}
 8002fde:	b082      	sub	sp, #8
 8002fe0:	af00      	add	r7, sp, #0
 8002fe2:	6078      	str	r0, [r7, #4]
 8002fe4:	6878      	ldr	r0, [r7, #4]
 8002fe6:	f7ff ff05 	bl	8002df4 <__NVIC_SetPriorityGrouping>
 8002fea:	bf00      	nop
 8002fec:	3708      	adds	r7, #8
 8002fee:	46bd      	mov	sp, r7
 8002ff0:	bd80      	pop	{r7, pc}

08002ff2 <HAL_NVIC_SetPriority>:
 8002ff2:	b580      	push	{r7, lr}
 8002ff4:	b086      	sub	sp, #24
 8002ff6:	af00      	add	r7, sp, #0
 8002ff8:	4603      	mov	r3, r0
 8002ffa:	60b9      	str	r1, [r7, #8]
 8002ffc:	607a      	str	r2, [r7, #4]
 8002ffe:	73fb      	strb	r3, [r7, #15]
 8003000:	2300      	movs	r3, #0
 8003002:	617b      	str	r3, [r7, #20]
 8003004:	f7ff ff1a 	bl	8002e3c <__NVIC_GetPriorityGrouping>
 8003008:	6178      	str	r0, [r7, #20]
 800300a:	687a      	ldr	r2, [r7, #4]
 800300c:	68b9      	ldr	r1, [r7, #8]
 800300e:	6978      	ldr	r0, [r7, #20]
 8003010:	f7ff ff8e 	bl	8002f30 <NVIC_EncodePriority>
 8003014:	4602      	mov	r2, r0
 8003016:	f997 300f 	ldrsb.w	r3, [r7, #15]
 800301a:	4611      	mov	r1, r2
 800301c:	4618      	mov	r0, r3
 800301e:	f7ff ff5d 	bl	8002edc <__NVIC_SetPriority>
 8003022:	bf00      	nop
 8003024:	3718      	adds	r7, #24
 8003026:	46bd      	mov	sp, r7
 8003028:	bd80      	pop	{r7, pc}

0800302a <HAL_NVIC_EnableIRQ>:
 800302a:	b580      	push	{r7, lr}
 800302c:	b082      	sub	sp, #8
 800302e:	af00      	add	r7, sp, #0
 8003030:	4603      	mov	r3, r0
 8003032:	71fb      	strb	r3, [r7, #7]
 8003034:	f997 3007 	ldrsb.w	r3, [r7, #7]
 8003038:	4618      	mov	r0, r3
 800303a:	f7ff ff0d 	bl	8002e58 <__NVIC_EnableIRQ>
 800303e:	bf00      	nop
 8003040:	3708      	adds	r7, #8
 8003042:	46bd      	mov	sp, r7
 8003044:	bd80      	pop	{r7, pc}

08003046 <HAL_NVIC_DisableIRQ>:
 8003046:	b580      	push	{r7, lr}
 8003048:	b082      	sub	sp, #8
 800304a:	af00      	add	r7, sp, #0
 800304c:	4603      	mov	r3, r0
 800304e:	71fb      	strb	r3, [r7, #7]
 8003050:	f997 3007 	ldrsb.w	r3, [r7, #7]
 8003054:	4618      	mov	r0, r3
 8003056:	f7ff ff1d 	bl	8002e94 <__NVIC_DisableIRQ>
 800305a:	bf00      	nop
 800305c:	3708      	adds	r7, #8
 800305e:	46bd      	mov	sp, r7
 8003060:	bd80      	pop	{r7, pc}

08003062 <HAL_SYSTICK_Config>:
 8003062:	b580      	push	{r7, lr}
 8003064:	b082      	sub	sp, #8
 8003066:	af00      	add	r7, sp, #0
 8003068:	6078      	str	r0, [r7, #4]
 800306a:	6878      	ldr	r0, [r7, #4]
 800306c:	f7ff ff94 	bl	8002f98 <SysTick_Config>
 8003070:	4603      	mov	r3, r0
 8003072:	4618      	mov	r0, r3
 8003074:	3708      	adds	r7, #8
 8003076:	46bd      	mov	sp, r7
 8003078:	bd80      	pop	{r7, pc}
	...

0800307c <HAL_DMA_Init>:
 800307c:	b580      	push	{r7, lr}
 800307e:	b086      	sub	sp, #24
 8003080:	af00      	add	r7, sp, #0
 8003082:	6078      	str	r0, [r7, #4]
 8003084:	2300      	movs	r3, #0
 8003086:	617b      	str	r3, [r7, #20]
 8003088:	f7ff f968 	bl	800235c <HAL_GetTick>
 800308c:	6138      	str	r0, [r7, #16]
 800308e:	687b      	ldr	r3, [r7, #4]
 8003090:	2b00      	cmp	r3, #0
 8003092:	d101      	bne.n	8003098 <HAL_DMA_Init+0x1c>
 8003094:	2301      	movs	r3, #1
 8003096:	e099      	b.n	80031cc <HAL_DMA_Init+0x150>
 8003098:	687b      	ldr	r3, [r7, #4]
 800309a:	2202      	movs	r2, #2
 800309c:	f883 2035 	strb.w	r2, [r3, #53]	; 0x35
 80030a0:	687b      	ldr	r3, [r7, #4]
 80030a2:	2200      	movs	r2, #0
 80030a4:	f883 2034 	strb.w	r2, [r3, #52]	; 0x34
 80030a8:	687b      	ldr	r3, [r7, #4]
 80030aa:	681b      	ldr	r3, [r3, #0]
 80030ac:	681a      	ldr	r2, [r3, #0]
 80030ae:	687b      	ldr	r3, [r7, #4]
 80030b0:	681b      	ldr	r3, [r3, #0]
 80030b2:	f022 0201 	bic.w	r2, r2, #1
 80030b6:	601a      	str	r2, [r3, #0]
 80030b8:	e00f      	b.n	80030da <HAL_DMA_Init+0x5e>
 80030ba:	f7ff f94f 	bl	800235c <HAL_GetTick>
 80030be:	4602      	mov	r2, r0
 80030c0:	693b      	ldr	r3, [r7, #16]
 80030c2:	1ad3      	subs	r3, r2, r3
 80030c4:	2b05      	cmp	r3, #5
 80030c6:	d908      	bls.n	80030da <HAL_DMA_Init+0x5e>
 80030c8:	687b      	ldr	r3, [r7, #4]
 80030ca:	2220      	movs	r2, #32
 80030cc:	655a      	str	r2, [r3, #84]	; 0x54
 80030ce:	687b      	ldr	r3, [r7, #4]
 80030d0:	2203      	movs	r2, #3
 80030d2:	f883 2035 	strb.w	r2, [r3, #53]	; 0x35
 80030d6:	2303      	movs	r3, #3
 80030d8:	e078      	b.n	80031cc <HAL_DMA_Init+0x150>
 80030da:	687b      	ldr	r3, [r7, #4]
 80030dc:	681b      	ldr	r3, [r3, #0]
 80030de:	681b      	ldr	r3, [r3, #0]
 80030e0:	f003 0301 	and.w	r3, r3, #1
 80030e4:	2b00      	cmp	r3, #0
 80030e6:	d1e8      	bne.n	80030ba <HAL_DMA_Init+0x3e>
 80030e8:	687b      	ldr	r3, [r7, #4]
 80030ea:	681b      	ldr	r3, [r3, #0]
 80030ec:	681b      	ldr	r3, [r3, #0]
 80030ee:	617b      	str	r3, [r7, #20]
 80030f0:	697a      	ldr	r2, [r7, #20]
 80030f2:	4b38      	ldr	r3, [pc, #224]	; (80031d4 <HAL_DMA_Init+0x158>)
 80030f4:	4013      	ands	r3, r2
 80030f6:	617b      	str	r3, [r7, #20]
 80030f8:	687b      	ldr	r3, [r7, #4]
 80030fa:	685a      	ldr	r2, [r3, #4]
 80030fc:	687b      	ldr	r3, [r7, #4]
 80030fe:	689b      	ldr	r3, [r3, #8]
 8003100:	431a      	orrs	r2, r3
 8003102:	687b      	ldr	r3, [r7, #4]
 8003104:	68db      	ldr	r3, [r3, #12]
 8003106:	431a      	orrs	r2, r3
 8003108:	687b      	ldr	r3, [r7, #4]
 800310a:	691b      	ldr	r3, [r3, #16]
 800310c:	431a      	orrs	r2, r3
 800310e:	687b      	ldr	r3, [r7, #4]
 8003110:	695b      	ldr	r3, [r3, #20]
 8003112:	431a      	orrs	r2, r3
 8003114:	687b      	ldr	r3, [r7, #4]
 8003116:	699b      	ldr	r3, [r3, #24]
 8003118:	431a      	orrs	r2, r3
 800311a:	687b      	ldr	r3, [r7, #4]
 800311c:	69db      	ldr	r3, [r3, #28]
 800311e:	431a      	orrs	r2, r3
 8003120:	687b      	ldr	r3, [r7, #4]
 8003122:	6a1b      	ldr	r3, [r3, #32]
 8003124:	4313      	orrs	r3, r2
 8003126:	697a      	ldr	r2, [r7, #20]
 8003128:	4313      	orrs	r3, r2
 800312a:	617b      	str	r3, [r7, #20]
 800312c:	687b      	ldr	r3, [r7, #4]
 800312e:	6a5b      	ldr	r3, [r3, #36]	; 0x24
 8003130:	2b04      	cmp	r3, #4
 8003132:	d107      	bne.n	8003144 <HAL_DMA_Init+0xc8>
 8003134:	687b      	ldr	r3, [r7, #4]
 8003136:	6ada      	ldr	r2, [r3, #44]	; 0x2c
 8003138:	687b      	ldr	r3, [r7, #4]
 800313a:	6b1b      	ldr	r3, [r3, #48]	; 0x30
 800313c:	4313      	orrs	r3, r2
 800313e:	697a      	ldr	r2, [r7, #20]
 8003140:	4313      	orrs	r3, r2
 8003142:	617b      	str	r3, [r7, #20]
 8003144:	687b      	ldr	r3, [r7, #4]
 8003146:	681b      	ldr	r3, [r3, #0]
 8003148:	697a      	ldr	r2, [r7, #20]
 800314a:	601a      	str	r2, [r3, #0]
 800314c:	687b      	ldr	r3, [r7, #4]
 800314e:	681b      	ldr	r3, [r3, #0]
 8003150:	695b      	ldr	r3, [r3, #20]
 8003152:	617b      	str	r3, [r7, #20]
 8003154:	697b      	ldr	r3, [r7, #20]
 8003156:	f023 0307 	bic.w	r3, r3, #7
 800315a:	617b      	str	r3, [r7, #20]
 800315c:	687b      	ldr	r3, [r7, #4]
 800315e:	6a5b      	ldr	r3, [r3, #36]	; 0x24
 8003160:	697a      	ldr	r2, [r7, #20]
 8003162:	4313      	orrs	r3, r2
 8003164:	617b      	str	r3, [r7, #20]
 8003166:	687b      	ldr	r3, [r7, #4]
 8003168:	6a5b      	ldr	r3, [r3, #36]	; 0x24
 800316a:	2b04      	cmp	r3, #4
 800316c:	d117      	bne.n	800319e <HAL_DMA_Init+0x122>
 800316e:	687b      	ldr	r3, [r7, #4]
 8003170:	6a9b      	ldr	r3, [r3, #40]	; 0x28
 8003172:	697a      	ldr	r2, [r7, #20]
 8003174:	4313      	orrs	r3, r2
 8003176:	617b      	str	r3, [r7, #20]
 8003178:	687b      	ldr	r3, [r7, #4]
 800317a:	6adb      	ldr	r3, [r3, #44]	; 0x2c
 800317c:	2b00      	cmp	r3, #0
 800317e:	d00e      	beq.n	800319e <HAL_DMA_Init+0x122>
 8003180:	6878      	ldr	r0, [r7, #4]
 8003182:	f000 fa6f 	bl	8003664 <DMA_CheckFifoParam>
 8003186:	4603      	mov	r3, r0
 8003188:	2b00      	cmp	r3, #0
 800318a:	d008      	beq.n	800319e <HAL_DMA_Init+0x122>
 800318c:	687b      	ldr	r3, [r7, #4]
 800318e:	2240      	movs	r2, #64	; 0x40
 8003190:	655a      	str	r2, [r3, #84]	; 0x54
 8003192:	687b      	ldr	r3, [r7, #4]
 8003194:	2201      	movs	r2, #1
 8003196:	f883 2035 	strb.w	r2, [r3, #53]	; 0x35
 800319a:	2301      	movs	r3, #1
 800319c:	e016      	b.n	80031cc <HAL_DMA_Init+0x150>
 800319e:	687b      	ldr	r3, [r7, #4]
 80031a0:	681b      	ldr	r3, [r3, #0]
 80031a2:	697a      	ldr	r2, [r7, #20]
 80031a4:	615a      	str	r2, [r3, #20]
 80031a6:	6878      	ldr	r0, [r7, #4]
 80031a8:	f000 fa26 	bl	80035f8 <DMA_CalcBaseAndBitshift>
 80031ac:	4603      	mov	r3, r0
 80031ae:	60fb      	str	r3, [r7, #12]
 80031b0:	687b      	ldr	r3, [r7, #4]
 80031b2:	6ddb      	ldr	r3, [r3, #92]	; 0x5c
 80031b4:	223f      	movs	r2, #63	; 0x3f
 80031b6:	409a      	lsls	r2, r3
 80031b8:	68fb      	ldr	r3, [r7, #12]
 80031ba:	609a      	str	r2, [r3, #8]
 80031bc:	687b      	ldr	r3, [r7, #4]
 80031be:	2200      	movs	r2, #0
 80031c0:	655a      	str	r2, [r3, #84]	; 0x54
 80031c2:	687b      	ldr	r3, [r7, #4]
 80031c4:	2201      	movs	r2, #1
 80031c6:	f883 2035 	strb.w	r2, [r3, #53]	; 0x35
 80031ca:	2300      	movs	r3, #0
 80031cc:	4618      	mov	r0, r3
 80031ce:	3718      	adds	r7, #24
 80031d0:	46bd      	mov	sp, r7
 80031d2:	bd80      	pop	{r7, pc}
 80031d4:	f010803f 	.word	0xf010803f

080031d8 <HAL_DMA_Start_IT>:
 80031d8:	b580      	push	{r7, lr}
 80031da:	b086      	sub	sp, #24
 80031dc:	af00      	add	r7, sp, #0
 80031de:	60f8      	str	r0, [r7, #12]
 80031e0:	60b9      	str	r1, [r7, #8]
 80031e2:	607a      	str	r2, [r7, #4]
 80031e4:	603b      	str	r3, [r7, #0]
 80031e6:	2300      	movs	r3, #0
 80031e8:	75fb      	strb	r3, [r7, #23]
 80031ea:	68fb      	ldr	r3, [r7, #12]
 80031ec:	6d9b      	ldr	r3, [r3, #88]	; 0x58
 80031ee:	613b      	str	r3, [r7, #16]
 80031f0:	68fb      	ldr	r3, [r7, #12]
 80031f2:	f893 3034 	ldrb.w	r3, [r3, #52]	; 0x34
 80031f6:	2b01      	cmp	r3, #1
 80031f8:	d101      	bne.n	80031fe <HAL_DMA_Start_IT+0x26>
 80031fa:	2302      	movs	r3, #2
 80031fc:	e040      	b.n	8003280 <HAL_DMA_Start_IT+0xa8>
 80031fe:	68fb      	ldr	r3, [r7, #12]
 8003200:	2201      	movs	r2, #1
 8003202:	f883 2034 	strb.w	r2, [r3, #52]	; 0x34
 8003206:	68fb      	ldr	r3, [r7, #12]
 8003208:	f893 3035 	ldrb.w	r3, [r3, #53]	; 0x35
 800320c:	b2db      	uxtb	r3, r3
 800320e:	2b01      	cmp	r3, #1
 8003210:	d12f      	bne.n	8003272 <HAL_DMA_Start_IT+0x9a>
 8003212:	68fb      	ldr	r3, [r7, #12]
 8003214:	2202      	movs	r2, #2
 8003216:	f883 2035 	strb.w	r2, [r3, #53]	; 0x35
 800321a:	68fb      	ldr	r3, [r7, #12]
 800321c:	2200      	movs	r2, #0
 800321e:	655a      	str	r2, [r3, #84]	; 0x54
 8003220:	683b      	ldr	r3, [r7, #0]
 8003222:	687a      	ldr	r2, [r7, #4]
 8003224:	68b9      	ldr	r1, [r7, #8]
 8003226:	68f8      	ldr	r0, [r7, #12]
 8003228:	f000 f9b8 	bl	800359c <DMA_SetConfig>
 800322c:	68fb      	ldr	r3, [r7, #12]
 800322e:	6ddb      	ldr	r3, [r3, #92]	; 0x5c
 8003230:	223f      	movs	r2, #63	; 0x3f
 8003232:	409a      	lsls	r2, r3
 8003234:	693b      	ldr	r3, [r7, #16]
 8003236:	609a      	str	r2, [r3, #8]
 8003238:	68fb      	ldr	r3, [r7, #12]
 800323a:	681b      	ldr	r3, [r3, #0]
 800323c:	681a      	ldr	r2, [r3, #0]
 800323e:	68fb      	ldr	r3, [r7, #12]
 8003240:	681b      	ldr	r3, [r3, #0]
 8003242:	f042 0216 	orr.w	r2, r2, #22
 8003246:	601a      	str	r2, [r3, #0]
 8003248:	68fb      	ldr	r3, [r7, #12]
 800324a:	6c1b      	ldr	r3, [r3, #64]	; 0x40
 800324c:	2b00      	cmp	r3, #0
 800324e:	d007      	beq.n	8003260 <HAL_DMA_Start_IT+0x88>
 8003250:	68fb      	ldr	r3, [r7, #12]
 8003252:	681b      	ldr	r3, [r3, #0]
 8003254:	681a      	ldr	r2, [r3, #0]
 8003256:	68fb      	ldr	r3, [r7, #12]
 8003258:	681b      	ldr	r3, [r3, #0]
 800325a:	f042 0208 	orr.w	r2, r2, #8
 800325e:	601a      	str	r2, [r3, #0]
 8003260:	68fb      	ldr	r3, [r7, #12]
 8003262:	681b      	ldr	r3, [r3, #0]
 8003264:	681a      	ldr	r2, [r3, #0]
 8003266:	68fb      	ldr	r3, [r7, #12]
 8003268:	681b      	ldr	r3, [r3, #0]
 800326a:	f042 0201 	orr.w	r2, r2, #1
 800326e:	601a      	str	r2, [r3, #0]
 8003270:	e005      	b.n	800327e <HAL_DMA_Start_IT+0xa6>
 8003272:	68fb      	ldr	r3, [r7, #12]
 8003274:	2200      	movs	r2, #0
 8003276:	f883 2034 	strb.w	r2, [r3, #52]	; 0x34
 800327a:	2302      	movs	r3, #2
 800327c:	75fb      	strb	r3, [r7, #23]
 800327e:	7dfb      	ldrb	r3, [r7, #23]
 8003280:	4618      	mov	r0, r3
 8003282:	3718      	adds	r7, #24
 8003284:	46bd      	mov	sp, r7
 8003286:	bd80      	pop	{r7, pc}

08003288 <HAL_DMA_IRQHandler>:
 8003288:	b580      	push	{r7, lr}
 800328a:	b086      	sub	sp, #24
 800328c:	af00      	add	r7, sp, #0
 800328e:	6078      	str	r0, [r7, #4]
 8003290:	2300      	movs	r3, #0
 8003292:	60bb      	str	r3, [r7, #8]
 8003294:	4b8e      	ldr	r3, [pc, #568]	; (80034d0 <HAL_DMA_IRQHandler+0x248>)
 8003296:	681b      	ldr	r3, [r3, #0]
 8003298:	4a8e      	ldr	r2, [pc, #568]	; (80034d4 <HAL_DMA_IRQHandler+0x24c>)
 800329a:	fba2 2303 	umull	r2, r3, r2, r3
 800329e:	0a9b      	lsrs	r3, r3, #10
 80032a0:	617b      	str	r3, [r7, #20]
 80032a2:	687b      	ldr	r3, [r7, #4]
 80032a4:	6d9b      	ldr	r3, [r3, #88]	; 0x58
 80032a6:	613b      	str	r3, [r7, #16]
 80032a8:	693b      	ldr	r3, [r7, #16]
 80032aa:	681b      	ldr	r3, [r3, #0]
 80032ac:	60fb      	str	r3, [r7, #12]
 80032ae:	687b      	ldr	r3, [r7, #4]
 80032b0:	6ddb      	ldr	r3, [r3, #92]	; 0x5c
 80032b2:	2208      	movs	r2, #8
 80032b4:	409a      	lsls	r2, r3
 80032b6:	68fb      	ldr	r3, [r7, #12]
 80032b8:	4013      	ands	r3, r2
 80032ba:	2b00      	cmp	r3, #0
 80032bc:	d01a      	beq.n	80032f4 <HAL_DMA_IRQHandler+0x6c>
 80032be:	687b      	ldr	r3, [r7, #4]
 80032c0:	681b      	ldr	r3, [r3, #0]
 80032c2:	681b      	ldr	r3, [r3, #0]
 80032c4:	f003 0304 	and.w	r3, r3, #4
 80032c8:	2b00      	cmp	r3, #0
 80032ca:	d013      	beq.n	80032f4 <HAL_DMA_IRQHandler+0x6c>
 80032cc:	687b      	ldr	r3, [r7, #4]
 80032ce:	681b      	ldr	r3, [r3, #0]
 80032d0:	681a      	ldr	r2, [r3, #0]
 80032d2:	687b      	ldr	r3, [r7, #4]
 80032d4:	681b      	ldr	r3, [r3, #0]
 80032d6:	f022 0204 	bic.w	r2, r2, #4
 80032da:	601a      	str	r2, [r3, #0]
 80032dc:	687b      	ldr	r3, [r7, #4]
 80032de:	6ddb      	ldr	r3, [r3, #92]	; 0x5c
 80032e0:	2208      	movs	r2, #8
 80032e2:	409a      	lsls	r2, r3
 80032e4:	693b      	ldr	r3, [r7, #16]
 80032e6:	609a      	str	r2, [r3, #8]
 80032e8:	687b      	ldr	r3, [r7, #4]
 80032ea:	6d5b      	ldr	r3, [r3, #84]	; 0x54
 80032ec:	f043 0201 	orr.w	r2, r3, #1
 80032f0:	687b      	ldr	r3, [r7, #4]
 80032f2:	655a      	str	r2, [r3, #84]	; 0x54
 80032f4:	687b      	ldr	r3, [r7, #4]
 80032f6:	6ddb      	ldr	r3, [r3, #92]	; 0x5c
 80032f8:	2201      	movs	r2, #1
 80032fa:	409a      	lsls	r2, r3
 80032fc:	68fb      	ldr	r3, [r7, #12]
 80032fe:	4013      	ands	r3, r2
 8003300:	2b00      	cmp	r3, #0
 8003302:	d012      	beq.n	800332a <HAL_DMA_IRQHandler+0xa2>
 8003304:	687b      	ldr	r3, [r7, #4]
 8003306:	681b      	ldr	r3, [r3, #0]
 8003308:	695b      	ldr	r3, [r3, #20]
 800330a:	f003 0380 	and.w	r3, r3, #128	; 0x80
 800330e:	2b00      	cmp	r3, #0
 8003310:	d00b      	beq.n	800332a <HAL_DMA_IRQHandler+0xa2>
 8003312:	687b      	ldr	r3, [r7, #4]
 8003314:	6ddb      	ldr	r3, [r3, #92]	; 0x5c
 8003316:	2201      	movs	r2, #1
 8003318:	409a      	lsls	r2, r3
 800331a:	693b      	ldr	r3, [r7, #16]
 800331c:	609a      	str	r2, [r3, #8]
 800331e:	687b      	ldr	r3, [r7, #4]
 8003320:	6d5b      	ldr	r3, [r3, #84]	; 0x54
 8003322:	f043 0202 	orr.w	r2, r3, #2
 8003326:	687b      	ldr	r3, [r7, #4]
 8003328:	655a      	str	r2, [r3, #84]	; 0x54
 800332a:	687b      	ldr	r3, [r7, #4]
 800332c:	6ddb      	ldr	r3, [r3, #92]	; 0x5c
 800332e:	2204      	movs	r2, #4
 8003330:	409a      	lsls	r2, r3
 8003332:	68fb      	ldr	r3, [r7, #12]
 8003334:	4013      	ands	r3, r2
 8003336:	2b00      	cmp	r3, #0
 8003338:	d012      	beq.n	8003360 <HAL_DMA_IRQHandler+0xd8>
 800333a:	687b      	ldr	r3, [r7, #4]
 800333c:	681b      	ldr	r3, [r3, #0]
 800333e:	681b      	ldr	r3, [r3, #0]
 8003340:	f003 0302 	and.w	r3, r3, #2
 8003344:	2b00      	cmp	r3, #0
 8003346:	d00b      	beq.n	8003360 <HAL_DMA_IRQHandler+0xd8>
 8003348:	687b      	ldr	r3, [r7, #4]
 800334a:	6ddb      	ldr	r3, [r3, #92]	; 0x5c
 800334c:	2204      	movs	r2, #4
 800334e:	409a      	lsls	r2, r3
 8003350:	693b      	ldr	r3, [r7, #16]
 8003352:	609a      	str	r2, [r3, #8]
 8003354:	687b      	ldr	r3, [r7, #4]
 8003356:	6d5b      	ldr	r3, [r3, #84]	; 0x54
 8003358:	f043 0204 	orr.w	r2, r3, #4
 800335c:	687b      	ldr	r3, [r7, #4]
 800335e:	655a      	str	r2, [r3, #84]	; 0x54
 8003360:	687b      	ldr	r3, [r7, #4]
 8003362:	6ddb      	ldr	r3, [r3, #92]	; 0x5c
 8003364:	2210      	movs	r2, #16
 8003366:	409a      	lsls	r2, r3
 8003368:	68fb      	ldr	r3, [r7, #12]
 800336a:	4013      	ands	r3, r2
 800336c:	2b00      	cmp	r3, #0
 800336e:	d043      	beq.n	80033f8 <HAL_DMA_IRQHandler+0x170>
 8003370:	687b      	ldr	r3, [r7, #4]
 8003372:	681b      	ldr	r3, [r3, #0]
 8003374:	681b      	ldr	r3, [r3, #0]
 8003376:	f003 0308 	and.w	r3, r3, #8
 800337a:	2b00      	cmp	r3, #0
 800337c:	d03c      	beq.n	80033f8 <HAL_DMA_IRQHandler+0x170>
 800337e:	687b      	ldr	r3, [r7, #4]
 8003380:	6ddb      	ldr	r3, [r3, #92]	; 0x5c
 8003382:	2210      	movs	r2, #16
 8003384:	409a      	lsls	r2, r3
 8003386:	693b      	ldr	r3, [r7, #16]
 8003388:	609a      	str	r2, [r3, #8]
 800338a:	687b      	ldr	r3, [r7, #4]
 800338c:	681b      	ldr	r3, [r3, #0]
 800338e:	681b      	ldr	r3, [r3, #0]
 8003390:	f403 2380 	and.w	r3, r3, #262144	; 0x40000
 8003394:	2b00      	cmp	r3, #0
 8003396:	d018      	beq.n	80033ca <HAL_DMA_IRQHandler+0x142>
 8003398:	687b      	ldr	r3, [r7, #4]
 800339a:	681b      	ldr	r3, [r3, #0]
 800339c:	681b      	ldr	r3, [r3, #0]
 800339e:	f403 2300 	and.w	r3, r3, #524288	; 0x80000
 80033a2:	2b00      	cmp	r3, #0
 80033a4:	d108      	bne.n	80033b8 <HAL_DMA_IRQHandler+0x130>
 80033a6:	687b      	ldr	r3, [r7, #4]
 80033a8:	6c1b      	ldr	r3, [r3, #64]	; 0x40
 80033aa:	2b00      	cmp	r3, #0
 80033ac:	d024      	beq.n	80033f8 <HAL_DMA_IRQHandler+0x170>
 80033ae:	687b      	ldr	r3, [r7, #4]
 80033b0:	6c1b      	ldr	r3, [r3, #64]	; 0x40
 80033b2:	6878      	ldr	r0, [r7, #4]
 80033b4:	4798      	blx	r3
 80033b6:	e01f      	b.n	80033f8 <HAL_DMA_IRQHandler+0x170>
 80033b8:	687b      	ldr	r3, [r7, #4]
 80033ba:	6c9b      	ldr	r3, [r3, #72]	; 0x48
 80033bc:	2b00      	cmp	r3, #0
 80033be:	d01b      	beq.n	80033f8 <HAL_DMA_IRQHandler+0x170>
 80033c0:	687b      	ldr	r3, [r7, #4]
 80033c2:	6c9b      	ldr	r3, [r3, #72]	; 0x48
 80033c4:	6878      	ldr	r0, [r7, #4]
 80033c6:	4798      	blx	r3
 80033c8:	e016      	b.n	80033f8 <HAL_DMA_IRQHandler+0x170>
 80033ca:	687b      	ldr	r3, [r7, #4]
 80033cc:	681b      	ldr	r3, [r3, #0]
 80033ce:	681b      	ldr	r3, [r3, #0]
 80033d0:	f403 7380 	and.w	r3, r3, #256	; 0x100
 80033d4:	2b00      	cmp	r3, #0
 80033d6:	d107      	bne.n	80033e8 <HAL_DMA_IRQHandler+0x160>
 80033d8:	687b      	ldr	r3, [r7, #4]
 80033da:	681b      	ldr	r3, [r3, #0]
 80033dc:	681a      	ldr	r2, [r3, #0]
 80033de:	687b      	ldr	r3, [r7, #4]
 80033e0:	681b      	ldr	r3, [r3, #0]
 80033e2:	f022 0208 	bic.w	r2, r2, #8
 80033e6:	601a      	str	r2, [r3, #0]
 80033e8:	687b      	ldr	r3, [r7, #4]
 80033ea:	6c1b      	ldr	r3, [r3, #64]	; 0x40
 80033ec:	2b00      	cmp	r3, #0
 80033ee:	d003      	beq.n	80033f8 <HAL_DMA_IRQHandler+0x170>
 80033f0:	687b      	ldr	r3, [r7, #4]
 80033f2:	6c1b      	ldr	r3, [r3, #64]	; 0x40
 80033f4:	6878      	ldr	r0, [r7, #4]
 80033f6:	4798      	blx	r3
 80033f8:	687b      	ldr	r3, [r7, #4]
 80033fa:	6ddb      	ldr	r3, [r3, #92]	; 0x5c
 80033fc:	2220      	movs	r2, #32
 80033fe:	409a      	lsls	r2, r3
 8003400:	68fb      	ldr	r3, [r7, #12]
 8003402:	4013      	ands	r3, r2
 8003404:	2b00      	cmp	r3, #0
 8003406:	f000 808f 	beq.w	8003528 <HAL_DMA_IRQHandler+0x2a0>
 800340a:	687b      	ldr	r3, [r7, #4]
 800340c:	681b      	ldr	r3, [r3, #0]
 800340e:	681b      	ldr	r3, [r3, #0]
 8003410:	f003 0310 	and.w	r3, r3, #16
 8003414:	2b00      	cmp	r3, #0
 8003416:	f000 8087 	beq.w	8003528 <HAL_DMA_IRQHandler+0x2a0>
 800341a:	687b      	ldr	r3, [r7, #4]
 800341c:	6ddb      	ldr	r3, [r3, #92]	; 0x5c
 800341e:	2220      	movs	r2, #32
 8003420:	409a      	lsls	r2, r3
 8003422:	693b      	ldr	r3, [r7, #16]
 8003424:	609a      	str	r2, [r3, #8]
 8003426:	687b      	ldr	r3, [r7, #4]
 8003428:	f893 3035 	ldrb.w	r3, [r3, #53]	; 0x35
 800342c:	b2db      	uxtb	r3, r3
 800342e:	2b05      	cmp	r3, #5
 8003430:	d136      	bne.n	80034a0 <HAL_DMA_IRQHandler+0x218>
 8003432:	687b      	ldr	r3, [r7, #4]
 8003434:	681b      	ldr	r3, [r3, #0]
 8003436:	681a      	ldr	r2, [r3, #0]
 8003438:	687b      	ldr	r3, [r7, #4]
 800343a:	681b      	ldr	r3, [r3, #0]
 800343c:	f022 0216 	bic.w	r2, r2, #22
 8003440:	601a      	str	r2, [r3, #0]
 8003442:	687b      	ldr	r3, [r7, #4]
 8003444:	681b      	ldr	r3, [r3, #0]
 8003446:	695a      	ldr	r2, [r3, #20]
 8003448:	687b      	ldr	r3, [r7, #4]
 800344a:	681b      	ldr	r3, [r3, #0]
 800344c:	f022 0280 	bic.w	r2, r2, #128	; 0x80
 8003450:	615a      	str	r2, [r3, #20]
 8003452:	687b      	ldr	r3, [r7, #4]
 8003454:	6c1b      	ldr	r3, [r3, #64]	; 0x40
 8003456:	2b00      	cmp	r3, #0
 8003458:	d103      	bne.n	8003462 <HAL_DMA_IRQHandler+0x1da>
 800345a:	687b      	ldr	r3, [r7, #4]
 800345c:	6c9b      	ldr	r3, [r3, #72]	; 0x48
 800345e:	2b00      	cmp	r3, #0
 8003460:	d007      	beq.n	8003472 <HAL_DMA_IRQHandler+0x1ea>
 8003462:	687b      	ldr	r3, [r7, #4]
 8003464:	681b      	ldr	r3, [r3, #0]
 8003466:	681a      	ldr	r2, [r3, #0]
 8003468:	687b      	ldr	r3, [r7, #4]
 800346a:	681b      	ldr	r3, [r3, #0]
 800346c:	f022 0208 	bic.w	r2, r2, #8
 8003470:	601a      	str	r2, [r3, #0]
 8003472:	687b      	ldr	r3, [r7, #4]
 8003474:	6ddb      	ldr	r3, [r3, #92]	; 0x5c
 8003476:	223f      	movs	r2, #63	; 0x3f
 8003478:	409a      	lsls	r2, r3
 800347a:	693b      	ldr	r3, [r7, #16]
 800347c:	609a      	str	r2, [r3, #8]
 800347e:	687b      	ldr	r3, [r7, #4]
 8003480:	2201      	movs	r2, #1
 8003482:	f883 2035 	strb.w	r2, [r3, #53]	; 0x35
 8003486:	687b      	ldr	r3, [r7, #4]
 8003488:	2200      	movs	r2, #0
 800348a:	f883 2034 	strb.w	r2, [r3, #52]	; 0x34
 800348e:	687b      	ldr	r3, [r7, #4]
 8003490:	6d1b      	ldr	r3, [r3, #80]	; 0x50
 8003492:	2b00      	cmp	r3, #0
 8003494:	d07e      	beq.n	8003594 <HAL_DMA_IRQHandler+0x30c>
 8003496:	687b      	ldr	r3, [r7, #4]
 8003498:	6d1b      	ldr	r3, [r3, #80]	; 0x50
 800349a:	6878      	ldr	r0, [r7, #4]
 800349c:	4798      	blx	r3
 800349e:	e079      	b.n	8003594 <HAL_DMA_IRQHandler+0x30c>
 80034a0:	687b      	ldr	r3, [r7, #4]
 80034a2:	681b      	ldr	r3, [r3, #0]
 80034a4:	681b      	ldr	r3, [r3, #0]
 80034a6:	f403 2380 	and.w	r3, r3, #262144	; 0x40000
 80034aa:	2b00      	cmp	r3, #0
 80034ac:	d01d      	beq.n	80034ea <HAL_DMA_IRQHandler+0x262>
 80034ae:	687b      	ldr	r3, [r7, #4]
 80034b0:	681b      	ldr	r3, [r3, #0]
 80034b2:	681b      	ldr	r3, [r3, #0]
 80034b4:	f403 2300 	and.w	r3, r3, #524288	; 0x80000
 80034b8:	2b00      	cmp	r3, #0
 80034ba:	d10d      	bne.n	80034d8 <HAL_DMA_IRQHandler+0x250>
 80034bc:	687b      	ldr	r3, [r7, #4]
 80034be:	6c5b      	ldr	r3, [r3, #68]	; 0x44
 80034c0:	2b00      	cmp	r3, #0
 80034c2:	d031      	beq.n	8003528 <HAL_DMA_IRQHandler+0x2a0>
 80034c4:	687b      	ldr	r3, [r7, #4]
 80034c6:	6c5b      	ldr	r3, [r3, #68]	; 0x44
 80034c8:	6878      	ldr	r0, [r7, #4]
 80034ca:	4798      	blx	r3
 80034cc:	e02c      	b.n	8003528 <HAL_DMA_IRQHandler+0x2a0>
 80034ce:	bf00      	nop
 80034d0:	2000002c 	.word	0x2000002c
 80034d4:	1b4e81b5 	.word	0x1b4e81b5
 80034d8:	687b      	ldr	r3, [r7, #4]
 80034da:	6bdb      	ldr	r3, [r3, #60]	; 0x3c
 80034dc:	2b00      	cmp	r3, #0
 80034de:	d023      	beq.n	8003528 <HAL_DMA_IRQHandler+0x2a0>
 80034e0:	687b      	ldr	r3, [r7, #4]
 80034e2:	6bdb      	ldr	r3, [r3, #60]	; 0x3c
 80034e4:	6878      	ldr	r0, [r7, #4]
 80034e6:	4798      	blx	r3
 80034e8:	e01e      	b.n	8003528 <HAL_DMA_IRQHandler+0x2a0>
 80034ea:	687b      	ldr	r3, [r7, #4]
 80034ec:	681b      	ldr	r3, [r3, #0]
 80034ee:	681b      	ldr	r3, [r3, #0]
 80034f0:	f403 7380 	and.w	r3, r3, #256	; 0x100
 80034f4:	2b00      	cmp	r3, #0
 80034f6:	d10f      	bne.n	8003518 <HAL_DMA_IRQHandler+0x290>
 80034f8:	687b      	ldr	r3, [r7, #4]
 80034fa:	681b      	ldr	r3, [r3, #0]
 80034fc:	681a      	ldr	r2, [r3, #0]
 80034fe:	687b      	ldr	r3, [r7, #4]
 8003500:	681b      	ldr	r3, [r3, #0]
 8003502:	f022 0210 	bic.w	r2, r2, #16
 8003506:	601a      	str	r2, [r3, #0]
 8003508:	687b      	ldr	r3, [r7, #4]
 800350a:	2201      	movs	r2, #1
 800350c:	f883 2035 	strb.w	r2, [r3, #53]	; 0x35
 8003510:	687b      	ldr	r3, [r7, #4]
 8003512:	2200      	movs	r2, #0
 8003514:	f883 2034 	strb.w	r2, [r3, #52]	; 0x34
 8003518:	687b      	ldr	r3, [r7, #4]
 800351a:	6bdb      	ldr	r3, [r3, #60]	; 0x3c
 800351c:	2b00      	cmp	r3, #0
 800351e:	d003      	beq.n	8003528 <HAL_DMA_IRQHandler+0x2a0>
 8003520:	687b      	ldr	r3, [r7, #4]
 8003522:	6bdb      	ldr	r3, [r3, #60]	; 0x3c
 8003524:	6878      	ldr	r0, [r7, #4]
 8003526:	4798      	blx	r3
 8003528:	687b      	ldr	r3, [r7, #4]
 800352a:	6d5b      	ldr	r3, [r3, #84]	; 0x54
 800352c:	2b00      	cmp	r3, #0
 800352e:	d032      	beq.n	8003596 <HAL_DMA_IRQHandler+0x30e>
 8003530:	687b      	ldr	r3, [r7, #4]
 8003532:	6d5b      	ldr	r3, [r3, #84]	; 0x54
 8003534:	f003 0301 	and.w	r3, r3, #1
 8003538:	2b00      	cmp	r3, #0
 800353a:	d022      	beq.n	8003582 <HAL_DMA_IRQHandler+0x2fa>
 800353c:	687b      	ldr	r3, [r7, #4]
 800353e:	2205      	movs	r2, #5
 8003540:	f883 2035 	strb.w	r2, [r3, #53]	; 0x35
 8003544:	687b      	ldr	r3, [r7, #4]
 8003546:	681b      	ldr	r3, [r3, #0]
 8003548:	681a      	ldr	r2, [r3, #0]
 800354a:	687b      	ldr	r3, [r7, #4]
 800354c:	681b      	ldr	r3, [r3, #0]
 800354e:	f022 0201 	bic.w	r2, r2, #1
 8003552:	601a      	str	r2, [r3, #0]
 8003554:	68bb      	ldr	r3, [r7, #8]
 8003556:	3301      	adds	r3, #1
 8003558:	60bb      	str	r3, [r7, #8]
 800355a:	697a      	ldr	r2, [r7, #20]
 800355c:	429a      	cmp	r2, r3
 800355e:	d307      	bcc.n	8003570 <HAL_DMA_IRQHandler+0x2e8>
 8003560:	687b      	ldr	r3, [r7, #4]
 8003562:	681b      	ldr	r3, [r3, #0]
 8003564:	681b      	ldr	r3, [r3, #0]
 8003566:	f003 0301 	and.w	r3, r3, #1
 800356a:	2b00      	cmp	r3, #0
 800356c:	d1f2      	bne.n	8003554 <HAL_DMA_IRQHandler+0x2cc>
 800356e:	e000      	b.n	8003572 <HAL_DMA_IRQHandler+0x2ea>
 8003570:	bf00      	nop
 8003572:	687b      	ldr	r3, [r7, #4]
 8003574:	2201      	movs	r2, #1
 8003576:	f883 2035 	strb.w	r2, [r3, #53]	; 0x35
 800357a:	687b      	ldr	r3, [r7, #4]
 800357c:	2200      	movs	r2, #0
 800357e:	f883 2034 	strb.w	r2, [r3, #52]	; 0x34
 8003582:	687b      	ldr	r3, [r7, #4]
 8003584:	6cdb      	ldr	r3, [r3, #76]	; 0x4c
 8003586:	2b00      	cmp	r3, #0
 8003588:	d005      	beq.n	8003596 <HAL_DMA_IRQHandler+0x30e>
 800358a:	687b      	ldr	r3, [r7, #4]
 800358c:	6cdb      	ldr	r3, [r3, #76]	; 0x4c
 800358e:	6878      	ldr	r0, [r7, #4]
 8003590:	4798      	blx	r3
 8003592:	e000      	b.n	8003596 <HAL_DMA_IRQHandler+0x30e>
 8003594:	bf00      	nop
 8003596:	3718      	adds	r7, #24
 8003598:	46bd      	mov	sp, r7
 800359a:	bd80      	pop	{r7, pc}

0800359c <DMA_SetConfig>:
 800359c:	b480      	push	{r7}
 800359e:	b085      	sub	sp, #20
 80035a0:	af00      	add	r7, sp, #0
 80035a2:	60f8      	str	r0, [r7, #12]
 80035a4:	60b9      	str	r1, [r7, #8]
 80035a6:	607a      	str	r2, [r7, #4]
 80035a8:	603b      	str	r3, [r7, #0]
 80035aa:	68fb      	ldr	r3, [r7, #12]
 80035ac:	681b      	ldr	r3, [r3, #0]
 80035ae:	681a      	ldr	r2, [r3, #0]
 80035b0:	68fb      	ldr	r3, [r7, #12]
 80035b2:	681b      	ldr	r3, [r3, #0]
 80035b4:	f422 2280 	bic.w	r2, r2, #262144	; 0x40000
 80035b8:	601a      	str	r2, [r3, #0]
 80035ba:	68fb      	ldr	r3, [r7, #12]
 80035bc:	681b      	ldr	r3, [r3, #0]
 80035be:	683a      	ldr	r2, [r7, #0]
 80035c0:	605a      	str	r2, [r3, #4]
 80035c2:	68fb      	ldr	r3, [r7, #12]
 80035c4:	689b      	ldr	r3, [r3, #8]
 80035c6:	2b40      	cmp	r3, #64	; 0x40
 80035c8:	d108      	bne.n	80035dc <DMA_SetConfig+0x40>
 80035ca:	68fb      	ldr	r3, [r7, #12]
 80035cc:	681b      	ldr	r3, [r3, #0]
 80035ce:	687a      	ldr	r2, [r7, #4]
 80035d0:	609a      	str	r2, [r3, #8]
 80035d2:	68fb      	ldr	r3, [r7, #12]
 80035d4:	681b      	ldr	r3, [r3, #0]
 80035d6:	68ba      	ldr	r2, [r7, #8]
 80035d8:	60da      	str	r2, [r3, #12]
 80035da:	e007      	b.n	80035ec <DMA_SetConfig+0x50>
 80035dc:	68fb      	ldr	r3, [r7, #12]
 80035de:	681b      	ldr	r3, [r3, #0]
 80035e0:	68ba      	ldr	r2, [r7, #8]
 80035e2:	609a      	str	r2, [r3, #8]
 80035e4:	68fb      	ldr	r3, [r7, #12]
 80035e6:	681b      	ldr	r3, [r3, #0]
 80035e8:	687a      	ldr	r2, [r7, #4]
 80035ea:	60da      	str	r2, [r3, #12]
 80035ec:	bf00      	nop
 80035ee:	3714      	adds	r7, #20
 80035f0:	46bd      	mov	sp, r7
 80035f2:	f85d 7b04 	ldr.w	r7, [sp], #4
 80035f6:	4770      	bx	lr

080035f8 <DMA_CalcBaseAndBitshift>:
 80035f8:	b480      	push	{r7}
 80035fa:	b085      	sub	sp, #20
 80035fc:	af00      	add	r7, sp, #0
 80035fe:	6078      	str	r0, [r7, #4]
 8003600:	687b      	ldr	r3, [r7, #4]
 8003602:	681b      	ldr	r3, [r3, #0]
 8003604:	b2db      	uxtb	r3, r3
 8003606:	3b10      	subs	r3, #16
 8003608:	4a14      	ldr	r2, [pc, #80]	; (800365c <DMA_CalcBaseAndBitshift+0x64>)
 800360a:	fba2 2303 	umull	r2, r3, r2, r3
 800360e:	091b      	lsrs	r3, r3, #4
 8003610:	60fb      	str	r3, [r7, #12]
 8003612:	4a13      	ldr	r2, [pc, #76]	; (8003660 <DMA_CalcBaseAndBitshift+0x68>)
 8003614:	68fb      	ldr	r3, [r7, #12]
 8003616:	4413      	add	r3, r2
 8003618:	781b      	ldrb	r3, [r3, #0]
 800361a:	461a      	mov	r2, r3
 800361c:	687b      	ldr	r3, [r7, #4]
 800361e:	65da      	str	r2, [r3, #92]	; 0x5c
 8003620:	68fb      	ldr	r3, [r7, #12]
 8003622:	2b03      	cmp	r3, #3
 8003624:	d909      	bls.n	800363a <DMA_CalcBaseAndBitshift+0x42>
 8003626:	687b      	ldr	r3, [r7, #4]
 8003628:	681b      	ldr	r3, [r3, #0]
 800362a:	f423 737f 	bic.w	r3, r3, #1020	; 0x3fc
 800362e:	f023 0303 	bic.w	r3, r3, #3
 8003632:	1d1a      	adds	r2, r3, #4
 8003634:	687b      	ldr	r3, [r7, #4]
 8003636:	659a      	str	r2, [r3, #88]	; 0x58
 8003638:	e007      	b.n	800364a <DMA_CalcBaseAndBitshift+0x52>
 800363a:	687b      	ldr	r3, [r7, #4]
 800363c:	681b      	ldr	r3, [r3, #0]
 800363e:	f423 737f 	bic.w	r3, r3, #1020	; 0x3fc
 8003642:	f023 0303 	bic.w	r3, r3, #3
 8003646:	687a      	ldr	r2, [r7, #4]
 8003648:	6593      	str	r3, [r2, #88]	; 0x58
 800364a:	687b      	ldr	r3, [r7, #4]
 800364c:	6d9b      	ldr	r3, [r3, #88]	; 0x58
 800364e:	4618      	mov	r0, r3
 8003650:	3714      	adds	r7, #20
 8003652:	46bd      	mov	sp, r7
 8003654:	f85d 7b04 	ldr.w	r7, [sp], #4
 8003658:	4770      	bx	lr
 800365a:	bf00      	nop
 800365c:	aaaaaaab 	.word	0xaaaaaaab
 8003660:	080068e4 	.word	0x080068e4

08003664 <DMA_CheckFifoParam>:
 8003664:	b480      	push	{r7}
 8003666:	b085      	sub	sp, #20
 8003668:	af00      	add	r7, sp, #0
 800366a:	6078      	str	r0, [r7, #4]
 800366c:	2300      	movs	r3, #0
 800366e:	73fb      	strb	r3, [r7, #15]
 8003670:	687b      	ldr	r3, [r7, #4]
 8003672:	6a9b      	ldr	r3, [r3, #40]	; 0x28
 8003674:	60bb      	str	r3, [r7, #8]
 8003676:	687b      	ldr	r3, [r7, #4]
 8003678:	699b      	ldr	r3, [r3, #24]
 800367a:	2b00      	cmp	r3, #0
 800367c:	d11f      	bne.n	80036be <DMA_CheckFifoParam+0x5a>
 800367e:	68bb      	ldr	r3, [r7, #8]
 8003680:	2b03      	cmp	r3, #3
 8003682:	d856      	bhi.n	8003732 <DMA_CheckFifoParam+0xce>
 8003684:	a201      	add	r2, pc, #4	; (adr r2, 800368c <DMA_CheckFifoParam+0x28>)
 8003686:	f852 f023 	ldr.w	pc, [r2, r3, lsl #2]
 800368a:	bf00      	nop
 800368c:	0800369d 	.word	0x0800369d
 8003690:	080036af 	.word	0x080036af
 8003694:	0800369d 	.word	0x0800369d
 8003698:	08003733 	.word	0x08003733
 800369c:	687b      	ldr	r3, [r7, #4]
 800369e:	6adb      	ldr	r3, [r3, #44]	; 0x2c
 80036a0:	f003 7380 	and.w	r3, r3, #16777216	; 0x1000000
 80036a4:	2b00      	cmp	r3, #0
 80036a6:	d046      	beq.n	8003736 <DMA_CheckFifoParam+0xd2>
 80036a8:	2301      	movs	r3, #1
 80036aa:	73fb      	strb	r3, [r7, #15]
 80036ac:	e043      	b.n	8003736 <DMA_CheckFifoParam+0xd2>
 80036ae:	687b      	ldr	r3, [r7, #4]
 80036b0:	6adb      	ldr	r3, [r3, #44]	; 0x2c
 80036b2:	f1b3 7fc0 	cmp.w	r3, #25165824	; 0x1800000
 80036b6:	d140      	bne.n	800373a <DMA_CheckFifoParam+0xd6>
 80036b8:	2301      	movs	r3, #1
 80036ba:	73fb      	strb	r3, [r7, #15]
 80036bc:	e03d      	b.n	800373a <DMA_CheckFifoParam+0xd6>
 80036be:	687b      	ldr	r3, [r7, #4]
 80036c0:	699b      	ldr	r3, [r3, #24]
 80036c2:	f5b3 5f00 	cmp.w	r3, #8192	; 0x2000
 80036c6:	d121      	bne.n	800370c <DMA_CheckFifoParam+0xa8>
 80036c8:	68bb      	ldr	r3, [r7, #8]
 80036ca:	2b03      	cmp	r3, #3
 80036cc:	d837      	bhi.n	800373e <DMA_CheckFifoParam+0xda>
 80036ce:	a201      	add	r2, pc, #4	; (adr r2, 80036d4 <DMA_CheckFifoParam+0x70>)
 80036d0:	f852 f023 	ldr.w	pc, [r2, r3, lsl #2]
 80036d4:	080036e5 	.word	0x080036e5
 80036d8:	080036eb 	.word	0x080036eb
 80036dc:	080036e5 	.word	0x080036e5
 80036e0:	080036fd 	.word	0x080036fd
 80036e4:	2301      	movs	r3, #1
 80036e6:	73fb      	strb	r3, [r7, #15]
 80036e8:	e030      	b.n	800374c <DMA_CheckFifoParam+0xe8>
 80036ea:	687b      	ldr	r3, [r7, #4]
 80036ec:	6adb      	ldr	r3, [r3, #44]	; 0x2c
 80036ee:	f003 7380 	and.w	r3, r3, #16777216	; 0x1000000
 80036f2:	2b00      	cmp	r3, #0
 80036f4:	d025      	beq.n	8003742 <DMA_CheckFifoParam+0xde>
 80036f6:	2301      	movs	r3, #1
 80036f8:	73fb      	strb	r3, [r7, #15]
 80036fa:	e022      	b.n	8003742 <DMA_CheckFifoParam+0xde>
 80036fc:	687b      	ldr	r3, [r7, #4]
 80036fe:	6adb      	ldr	r3, [r3, #44]	; 0x2c
 8003700:	f1b3 7fc0 	cmp.w	r3, #25165824	; 0x1800000
 8003704:	d11f      	bne.n	8003746 <DMA_CheckFifoParam+0xe2>
 8003706:	2301      	movs	r3, #1
 8003708:	73fb      	strb	r3, [r7, #15]
 800370a:	e01c      	b.n	8003746 <DMA_CheckFifoParam+0xe2>
 800370c:	68bb      	ldr	r3, [r7, #8]
 800370e:	2b02      	cmp	r3, #2
 8003710:	d903      	bls.n	800371a <DMA_CheckFifoParam+0xb6>
 8003712:	68bb      	ldr	r3, [r7, #8]
 8003714:	2b03      	cmp	r3, #3
 8003716:	d003      	beq.n	8003720 <DMA_CheckFifoParam+0xbc>
 8003718:	e018      	b.n	800374c <DMA_CheckFifoParam+0xe8>
 800371a:	2301      	movs	r3, #1
 800371c:	73fb      	strb	r3, [r7, #15]
 800371e:	e015      	b.n	800374c <DMA_CheckFifoParam+0xe8>
 8003720:	687b      	ldr	r3, [r7, #4]
 8003722:	6adb      	ldr	r3, [r3, #44]	; 0x2c
 8003724:	f003 7380 	and.w	r3, r3, #16777216	; 0x1000000
 8003728:	2b00      	cmp	r3, #0
 800372a:	d00e      	beq.n	800374a <DMA_CheckFifoParam+0xe6>
 800372c:	2301      	movs	r3, #1
 800372e:	73fb      	strb	r3, [r7, #15]
 8003730:	e00b      	b.n	800374a <DMA_CheckFifoParam+0xe6>
 8003732:	bf00      	nop
 8003734:	e00a      	b.n	800374c <DMA_CheckFifoParam+0xe8>
 8003736:	bf00      	nop
 8003738:	e008      	b.n	800374c <DMA_CheckFifoParam+0xe8>
 800373a:	bf00      	nop
 800373c:	e006      	b.n	800374c <DMA_CheckFifoParam+0xe8>
 800373e:	bf00      	nop
 8003740:	e004      	b.n	800374c <DMA_CheckFifoParam+0xe8>
 8003742:	bf00      	nop
 8003744:	e002      	b.n	800374c <DMA_CheckFifoParam+0xe8>
 8003746:	bf00      	nop
 8003748:	e000      	b.n	800374c <DMA_CheckFifoParam+0xe8>
 800374a:	bf00      	nop
 800374c:	7bfb      	ldrb	r3, [r7, #15]
 800374e:	4618      	mov	r0, r3
 8003750:	3714      	adds	r7, #20
 8003752:	46bd      	mov	sp, r7
 8003754:	f85d 7b04 	ldr.w	r7, [sp], #4
 8003758:	4770      	bx	lr
 800375a:	bf00      	nop

0800375c <HAL_GPIO_Init>:
 800375c:	b480      	push	{r7}
 800375e:	b089      	sub	sp, #36	; 0x24
 8003760:	af00      	add	r7, sp, #0
 8003762:	6078      	str	r0, [r7, #4]
 8003764:	6039      	str	r1, [r7, #0]
 8003766:	2300      	movs	r3, #0
 8003768:	617b      	str	r3, [r7, #20]
 800376a:	2300      	movs	r3, #0
 800376c:	613b      	str	r3, [r7, #16]
 800376e:	2300      	movs	r3, #0
 8003770:	61bb      	str	r3, [r7, #24]
 8003772:	2300      	movs	r3, #0
 8003774:	61fb      	str	r3, [r7, #28]
 8003776:	e159      	b.n	8003a2c <HAL_GPIO_Init+0x2d0>
 8003778:	2201      	movs	r2, #1
 800377a:	69fb      	ldr	r3, [r7, #28]
 800377c:	fa02 f303 	lsl.w	r3, r2, r3
 8003780:	617b      	str	r3, [r7, #20]
 8003782:	683b      	ldr	r3, [r7, #0]
 8003784:	681b      	ldr	r3, [r3, #0]
 8003786:	697a      	ldr	r2, [r7, #20]
 8003788:	4013      	ands	r3, r2
 800378a:	613b      	str	r3, [r7, #16]
 800378c:	693a      	ldr	r2, [r7, #16]
 800378e:	697b      	ldr	r3, [r7, #20]
 8003790:	429a      	cmp	r2, r3
 8003792:	f040 8148 	bne.w	8003a26 <HAL_GPIO_Init+0x2ca>
 8003796:	683b      	ldr	r3, [r7, #0]
 8003798:	685b      	ldr	r3, [r3, #4]
 800379a:	f003 0303 	and.w	r3, r3, #3
 800379e:	2b01      	cmp	r3, #1
 80037a0:	d005      	beq.n	80037ae <HAL_GPIO_Init+0x52>
 80037a2:	683b      	ldr	r3, [r7, #0]
 80037a4:	685b      	ldr	r3, [r3, #4]
 80037a6:	f003 0303 	and.w	r3, r3, #3
 80037aa:	2b02      	cmp	r3, #2
 80037ac:	d130      	bne.n	8003810 <HAL_GPIO_Init+0xb4>
 80037ae:	687b      	ldr	r3, [r7, #4]
 80037b0:	689b      	ldr	r3, [r3, #8]
 80037b2:	61bb      	str	r3, [r7, #24]
 80037b4:	69fb      	ldr	r3, [r7, #28]
 80037b6:	005b      	lsls	r3, r3, #1
 80037b8:	2203      	movs	r2, #3
 80037ba:	fa02 f303 	lsl.w	r3, r2, r3
 80037be:	43db      	mvns	r3, r3
 80037c0:	69ba      	ldr	r2, [r7, #24]
 80037c2:	4013      	ands	r3, r2
 80037c4:	61bb      	str	r3, [r7, #24]
 80037c6:	683b      	ldr	r3, [r7, #0]
 80037c8:	68da      	ldr	r2, [r3, #12]
 80037ca:	69fb      	ldr	r3, [r7, #28]
 80037cc:	005b      	lsls	r3, r3, #1
 80037ce:	fa02 f303 	lsl.w	r3, r2, r3
 80037d2:	69ba      	ldr	r2, [r7, #24]
 80037d4:	4313      	orrs	r3, r2
 80037d6:	61bb      	str	r3, [r7, #24]
 80037d8:	687b      	ldr	r3, [r7, #4]
 80037da:	69ba      	ldr	r2, [r7, #24]
 80037dc:	609a      	str	r2, [r3, #8]
 80037de:	687b      	ldr	r3, [r7, #4]
 80037e0:	685b      	ldr	r3, [r3, #4]
 80037e2:	61bb      	str	r3, [r7, #24]
 80037e4:	2201      	movs	r2, #1
 80037e6:	69fb      	ldr	r3, [r7, #28]
 80037e8:	fa02 f303 	lsl.w	r3, r2, r3
 80037ec:	43db      	mvns	r3, r3
 80037ee:	69ba      	ldr	r2, [r7, #24]
 80037f0:	4013      	ands	r3, r2
 80037f2:	61bb      	str	r3, [r7, #24]
 80037f4:	683b      	ldr	r3, [r7, #0]
 80037f6:	685b      	ldr	r3, [r3, #4]
 80037f8:	091b      	lsrs	r3, r3, #4
 80037fa:	f003 0201 	and.w	r2, r3, #1
 80037fe:	69fb      	ldr	r3, [r7, #28]
 8003800:	fa02 f303 	lsl.w	r3, r2, r3
 8003804:	69ba      	ldr	r2, [r7, #24]
 8003806:	4313      	orrs	r3, r2
 8003808:	61bb      	str	r3, [r7, #24]
 800380a:	687b      	ldr	r3, [r7, #4]
 800380c:	69ba      	ldr	r2, [r7, #24]
 800380e:	605a      	str	r2, [r3, #4]
 8003810:	683b      	ldr	r3, [r7, #0]
 8003812:	685b      	ldr	r3, [r3, #4]
 8003814:	f003 0303 	and.w	r3, r3, #3
 8003818:	2b03      	cmp	r3, #3
 800381a:	d017      	beq.n	800384c <HAL_GPIO_Init+0xf0>
 800381c:	687b      	ldr	r3, [r7, #4]
 800381e:	68db      	ldr	r3, [r3, #12]
 8003820:	61bb      	str	r3, [r7, #24]
 8003822:	69fb      	ldr	r3, [r7, #28]
 8003824:	005b      	lsls	r3, r3, #1
 8003826:	2203      	movs	r2, #3
 8003828:	fa02 f303 	lsl.w	r3, r2, r3
 800382c:	43db      	mvns	r3, r3
 800382e:	69ba      	ldr	r2, [r7, #24]
 8003830:	4013      	ands	r3, r2
 8003832:	61bb      	str	r3, [r7, #24]
 8003834:	683b      	ldr	r3, [r7, #0]
 8003836:	689a      	ldr	r2, [r3, #8]
 8003838:	69fb      	ldr	r3, [r7, #28]
 800383a:	005b      	lsls	r3, r3, #1
 800383c:	fa02 f303 	lsl.w	r3, r2, r3
 8003840:	69ba      	ldr	r2, [r7, #24]
 8003842:	4313      	orrs	r3, r2
 8003844:	61bb      	str	r3, [r7, #24]
 8003846:	687b      	ldr	r3, [r7, #4]
 8003848:	69ba      	ldr	r2, [r7, #24]
 800384a:	60da      	str	r2, [r3, #12]
 800384c:	683b      	ldr	r3, [r7, #0]
 800384e:	685b      	ldr	r3, [r3, #4]
 8003850:	f003 0303 	and.w	r3, r3, #3
 8003854:	2b02      	cmp	r3, #2
 8003856:	d123      	bne.n	80038a0 <HAL_GPIO_Init+0x144>
 8003858:	69fb      	ldr	r3, [r7, #28]
 800385a:	08da      	lsrs	r2, r3, #3
 800385c:	687b      	ldr	r3, [r7, #4]
 800385e:	3208      	adds	r2, #8
 8003860:	f853 3022 	ldr.w	r3, [r3, r2, lsl #2]
 8003864:	61bb      	str	r3, [r7, #24]
 8003866:	69fb      	ldr	r3, [r7, #28]
 8003868:	f003 0307 	and.w	r3, r3, #7
 800386c:	009b      	lsls	r3, r3, #2
 800386e:	220f      	movs	r2, #15
 8003870:	fa02 f303 	lsl.w	r3, r2, r3
 8003874:	43db      	mvns	r3, r3
 8003876:	69ba      	ldr	r2, [r7, #24]
 8003878:	4013      	ands	r3, r2
 800387a:	61bb      	str	r3, [r7, #24]
 800387c:	683b      	ldr	r3, [r7, #0]
 800387e:	691a      	ldr	r2, [r3, #16]
 8003880:	69fb      	ldr	r3, [r7, #28]
 8003882:	f003 0307 	and.w	r3, r3, #7
 8003886:	009b      	lsls	r3, r3, #2
 8003888:	fa02 f303 	lsl.w	r3, r2, r3
 800388c:	69ba      	ldr	r2, [r7, #24]
 800388e:	4313      	orrs	r3, r2
 8003890:	61bb      	str	r3, [r7, #24]
 8003892:	69fb      	ldr	r3, [r7, #28]
 8003894:	08da      	lsrs	r2, r3, #3
 8003896:	687b      	ldr	r3, [r7, #4]
 8003898:	3208      	adds	r2, #8
 800389a:	69b9      	ldr	r1, [r7, #24]
 800389c:	f843 1022 	str.w	r1, [r3, r2, lsl #2]
 80038a0:	687b      	ldr	r3, [r7, #4]
 80038a2:	681b      	ldr	r3, [r3, #0]
 80038a4:	61bb      	str	r3, [r7, #24]
 80038a6:	69fb      	ldr	r3, [r7, #28]
 80038a8:	005b      	lsls	r3, r3, #1
 80038aa:	2203      	movs	r2, #3
 80038ac:	fa02 f303 	lsl.w	r3, r2, r3
 80038b0:	43db      	mvns	r3, r3
 80038b2:	69ba      	ldr	r2, [r7, #24]
 80038b4:	4013      	ands	r3, r2
 80038b6:	61bb      	str	r3, [r7, #24]
 80038b8:	683b      	ldr	r3, [r7, #0]
 80038ba:	685b      	ldr	r3, [r3, #4]
 80038bc:	f003 0203 	and.w	r2, r3, #3
 80038c0:	69fb      	ldr	r3, [r7, #28]
 80038c2:	005b      	lsls	r3, r3, #1
 80038c4:	fa02 f303 	lsl.w	r3, r2, r3
 80038c8:	69ba      	ldr	r2, [r7, #24]
 80038ca:	4313      	orrs	r3, r2
 80038cc:	61bb      	str	r3, [r7, #24]
 80038ce:	687b      	ldr	r3, [r7, #4]
 80038d0:	69ba      	ldr	r2, [r7, #24]
 80038d2:	601a      	str	r2, [r3, #0]
 80038d4:	683b      	ldr	r3, [r7, #0]
 80038d6:	685b      	ldr	r3, [r3, #4]
 80038d8:	f403 3340 	and.w	r3, r3, #196608	; 0x30000
 80038dc:	2b00      	cmp	r3, #0
 80038de:	f000 80a2 	beq.w	8003a26 <HAL_GPIO_Init+0x2ca>
 80038e2:	2300      	movs	r3, #0
 80038e4:	60fb      	str	r3, [r7, #12]
 80038e6:	4b57      	ldr	r3, [pc, #348]	; (8003a44 <HAL_GPIO_Init+0x2e8>)
 80038e8:	6c5b      	ldr	r3, [r3, #68]	; 0x44
 80038ea:	4a56      	ldr	r2, [pc, #344]	; (8003a44 <HAL_GPIO_Init+0x2e8>)
 80038ec:	f443 4380 	orr.w	r3, r3, #16384	; 0x4000
 80038f0:	6453      	str	r3, [r2, #68]	; 0x44
 80038f2:	4b54      	ldr	r3, [pc, #336]	; (8003a44 <HAL_GPIO_Init+0x2e8>)
 80038f4:	6c5b      	ldr	r3, [r3, #68]	; 0x44
 80038f6:	f403 4380 	and.w	r3, r3, #16384	; 0x4000
 80038fa:	60fb      	str	r3, [r7, #12]
 80038fc:	68fb      	ldr	r3, [r7, #12]
 80038fe:	4a52      	ldr	r2, [pc, #328]	; (8003a48 <HAL_GPIO_Init+0x2ec>)
 8003900:	69fb      	ldr	r3, [r7, #28]
 8003902:	089b      	lsrs	r3, r3, #2
 8003904:	3302      	adds	r3, #2
 8003906:	f852 3023 	ldr.w	r3, [r2, r3, lsl #2]
 800390a:	61bb      	str	r3, [r7, #24]
 800390c:	69fb      	ldr	r3, [r7, #28]
 800390e:	f003 0303 	and.w	r3, r3, #3
 8003912:	009b      	lsls	r3, r3, #2
 8003914:	220f      	movs	r2, #15
 8003916:	fa02 f303 	lsl.w	r3, r2, r3
 800391a:	43db      	mvns	r3, r3
 800391c:	69ba      	ldr	r2, [r7, #24]
 800391e:	4013      	ands	r3, r2
 8003920:	61bb      	str	r3, [r7, #24]
 8003922:	687b      	ldr	r3, [r7, #4]
 8003924:	4a49      	ldr	r2, [pc, #292]	; (8003a4c <HAL_GPIO_Init+0x2f0>)
 8003926:	4293      	cmp	r3, r2
 8003928:	d019      	beq.n	800395e <HAL_GPIO_Init+0x202>
 800392a:	687b      	ldr	r3, [r7, #4]
 800392c:	4a48      	ldr	r2, [pc, #288]	; (8003a50 <HAL_GPIO_Init+0x2f4>)
 800392e:	4293      	cmp	r3, r2
 8003930:	d013      	beq.n	800395a <HAL_GPIO_Init+0x1fe>
 8003932:	687b      	ldr	r3, [r7, #4]
 8003934:	4a47      	ldr	r2, [pc, #284]	; (8003a54 <HAL_GPIO_Init+0x2f8>)
 8003936:	4293      	cmp	r3, r2
 8003938:	d00d      	beq.n	8003956 <HAL_GPIO_Init+0x1fa>
 800393a:	687b      	ldr	r3, [r7, #4]
 800393c:	4a46      	ldr	r2, [pc, #280]	; (8003a58 <HAL_GPIO_Init+0x2fc>)
 800393e:	4293      	cmp	r3, r2
 8003940:	d007      	beq.n	8003952 <HAL_GPIO_Init+0x1f6>
 8003942:	687b      	ldr	r3, [r7, #4]
 8003944:	4a45      	ldr	r2, [pc, #276]	; (8003a5c <HAL_GPIO_Init+0x300>)
 8003946:	4293      	cmp	r3, r2
 8003948:	d101      	bne.n	800394e <HAL_GPIO_Init+0x1f2>
 800394a:	2304      	movs	r3, #4
 800394c:	e008      	b.n	8003960 <HAL_GPIO_Init+0x204>
 800394e:	2307      	movs	r3, #7
 8003950:	e006      	b.n	8003960 <HAL_GPIO_Init+0x204>
 8003952:	2303      	movs	r3, #3
 8003954:	e004      	b.n	8003960 <HAL_GPIO_Init+0x204>
 8003956:	2302      	movs	r3, #2
 8003958:	e002      	b.n	8003960 <HAL_GPIO_Init+0x204>
 800395a:	2301      	movs	r3, #1
 800395c:	e000      	b.n	8003960 <HAL_GPIO_Init+0x204>
 800395e:	2300      	movs	r3, #0
 8003960:	69fa      	ldr	r2, [r7, #28]
 8003962:	f002 0203 	and.w	r2, r2, #3
 8003966:	0092      	lsls	r2, r2, #2
 8003968:	4093      	lsls	r3, r2
 800396a:	69ba      	ldr	r2, [r7, #24]
 800396c:	4313      	orrs	r3, r2
 800396e:	61bb      	str	r3, [r7, #24]
 8003970:	4935      	ldr	r1, [pc, #212]	; (8003a48 <HAL_GPIO_Init+0x2ec>)
 8003972:	69fb      	ldr	r3, [r7, #28]
 8003974:	089b      	lsrs	r3, r3, #2
 8003976:	3302      	adds	r3, #2
 8003978:	69ba      	ldr	r2, [r7, #24]
 800397a:	f841 2023 	str.w	r2, [r1, r3, lsl #2]
 800397e:	4b38      	ldr	r3, [pc, #224]	; (8003a60 <HAL_GPIO_Init+0x304>)
 8003980:	689b      	ldr	r3, [r3, #8]
 8003982:	61bb      	str	r3, [r7, #24]
 8003984:	693b      	ldr	r3, [r7, #16]
 8003986:	43db      	mvns	r3, r3
 8003988:	69ba      	ldr	r2, [r7, #24]
 800398a:	4013      	ands	r3, r2
 800398c:	61bb      	str	r3, [r7, #24]
 800398e:	683b      	ldr	r3, [r7, #0]
 8003990:	685b      	ldr	r3, [r3, #4]
 8003992:	f403 1380 	and.w	r3, r3, #1048576	; 0x100000
 8003996:	2b00      	cmp	r3, #0
 8003998:	d003      	beq.n	80039a2 <HAL_GPIO_Init+0x246>
 800399a:	69ba      	ldr	r2, [r7, #24]
 800399c:	693b      	ldr	r3, [r7, #16]
 800399e:	4313      	orrs	r3, r2
 80039a0:	61bb      	str	r3, [r7, #24]
 80039a2:	4a2f      	ldr	r2, [pc, #188]	; (8003a60 <HAL_GPIO_Init+0x304>)
 80039a4:	69bb      	ldr	r3, [r7, #24]
 80039a6:	6093      	str	r3, [r2, #8]
 80039a8:	4b2d      	ldr	r3, [pc, #180]	; (8003a60 <HAL_GPIO_Init+0x304>)
 80039aa:	68db      	ldr	r3, [r3, #12]
 80039ac:	61bb      	str	r3, [r7, #24]
 80039ae:	693b      	ldr	r3, [r7, #16]
 80039b0:	43db      	mvns	r3, r3
 80039b2:	69ba      	ldr	r2, [r7, #24]
 80039b4:	4013      	ands	r3, r2
 80039b6:	61bb      	str	r3, [r7, #24]
 80039b8:	683b      	ldr	r3, [r7, #0]
 80039ba:	685b      	ldr	r3, [r3, #4]
 80039bc:	f403 1300 	and.w	r3, r3, #2097152	; 0x200000
 80039c0:	2b00      	cmp	r3, #0
 80039c2:	d003      	beq.n	80039cc <HAL_GPIO_Init+0x270>
 80039c4:	69ba      	ldr	r2, [r7, #24]
 80039c6:	693b      	ldr	r3, [r7, #16]
 80039c8:	4313      	orrs	r3, r2
 80039ca:	61bb      	str	r3, [r7, #24]
 80039cc:	4a24      	ldr	r2, [pc, #144]	; (8003a60 <HAL_GPIO_Init+0x304>)
 80039ce:	69bb      	ldr	r3, [r7, #24]
 80039d0:	60d3      	str	r3, [r2, #12]
 80039d2:	4b23      	ldr	r3, [pc, #140]	; (8003a60 <HAL_GPIO_Init+0x304>)
 80039d4:	685b      	ldr	r3, [r3, #4]
 80039d6:	61bb      	str	r3, [r7, #24]
 80039d8:	693b      	ldr	r3, [r7, #16]
 80039da:	43db      	mvns	r3, r3
 80039dc:	69ba      	ldr	r2, [r7, #24]
 80039de:	4013      	ands	r3, r2
 80039e0:	61bb      	str	r3, [r7, #24]
 80039e2:	683b      	ldr	r3, [r7, #0]
 80039e4:	685b      	ldr	r3, [r3, #4]
 80039e6:	f403 3300 	and.w	r3, r3, #131072	; 0x20000
 80039ea:	2b00      	cmp	r3, #0
 80039ec:	d003      	beq.n	80039f6 <HAL_GPIO_Init+0x29a>
 80039ee:	69ba      	ldr	r2, [r7, #24]
 80039f0:	693b      	ldr	r3, [r7, #16]
 80039f2:	4313      	orrs	r3, r2
 80039f4:	61bb      	str	r3, [r7, #24]
 80039f6:	4a1a      	ldr	r2, [pc, #104]	; (8003a60 <HAL_GPIO_Init+0x304>)
 80039f8:	69bb      	ldr	r3, [r7, #24]
 80039fa:	6053      	str	r3, [r2, #4]
 80039fc:	4b18      	ldr	r3, [pc, #96]	; (8003a60 <HAL_GPIO_Init+0x304>)
 80039fe:	681b      	ldr	r3, [r3, #0]
 8003a00:	61bb      	str	r3, [r7, #24]
 8003a02:	693b      	ldr	r3, [r7, #16]
 8003a04:	43db      	mvns	r3, r3
 8003a06:	69ba      	ldr	r2, [r7, #24]
 8003a08:	4013      	ands	r3, r2
 8003a0a:	61bb      	str	r3, [r7, #24]
 8003a0c:	683b      	ldr	r3, [r7, #0]
 8003a0e:	685b      	ldr	r3, [r3, #4]
 8003a10:	f403 3380 	and.w	r3, r3, #65536	; 0x10000
 8003a14:	2b00      	cmp	r3, #0
 8003a16:	d003      	beq.n	8003a20 <HAL_GPIO_Init+0x2c4>
 8003a18:	69ba      	ldr	r2, [r7, #24]
 8003a1a:	693b      	ldr	r3, [r7, #16]
 8003a1c:	4313      	orrs	r3, r2
 8003a1e:	61bb      	str	r3, [r7, #24]
 8003a20:	4a0f      	ldr	r2, [pc, #60]	; (8003a60 <HAL_GPIO_Init+0x304>)
 8003a22:	69bb      	ldr	r3, [r7, #24]
 8003a24:	6013      	str	r3, [r2, #0]
 8003a26:	69fb      	ldr	r3, [r7, #28]
 8003a28:	3301      	adds	r3, #1
 8003a2a:	61fb      	str	r3, [r7, #28]
 8003a2c:	69fb      	ldr	r3, [r7, #28]
 8003a2e:	2b0f      	cmp	r3, #15
 8003a30:	f67f aea2 	bls.w	8003778 <HAL_GPIO_Init+0x1c>
 8003a34:	bf00      	nop
 8003a36:	bf00      	nop
 8003a38:	3724      	adds	r7, #36	; 0x24
 8003a3a:	46bd      	mov	sp, r7
 8003a3c:	f85d 7b04 	ldr.w	r7, [sp], #4
 8003a40:	4770      	bx	lr
 8003a42:	bf00      	nop
 8003a44:	40023800 	.word	0x40023800
 8003a48:	40013800 	.word	0x40013800
 8003a4c:	40020000 	.word	0x40020000
 8003a50:	40020400 	.word	0x40020400
 8003a54:	40020800 	.word	0x40020800
 8003a58:	40020c00 	.word	0x40020c00
 8003a5c:	40021000 	.word	0x40021000
 8003a60:	40013c00 	.word	0x40013c00

08003a64 <HAL_GPIO_WritePin>:
 8003a64:	b480      	push	{r7}
 8003a66:	b083      	sub	sp, #12
 8003a68:	af00      	add	r7, sp, #0
 8003a6a:	6078      	str	r0, [r7, #4]
 8003a6c:	460b      	mov	r3, r1
 8003a6e:	807b      	strh	r3, [r7, #2]
 8003a70:	4613      	mov	r3, r2
 8003a72:	707b      	strb	r3, [r7, #1]
 8003a74:	787b      	ldrb	r3, [r7, #1]
 8003a76:	2b00      	cmp	r3, #0
 8003a78:	d003      	beq.n	8003a82 <HAL_GPIO_WritePin+0x1e>
 8003a7a:	887a      	ldrh	r2, [r7, #2]
 8003a7c:	687b      	ldr	r3, [r7, #4]
 8003a7e:	619a      	str	r2, [r3, #24]
 8003a80:	e003      	b.n	8003a8a <HAL_GPIO_WritePin+0x26>
 8003a82:	887b      	ldrh	r3, [r7, #2]
 8003a84:	041a      	lsls	r2, r3, #16
 8003a86:	687b      	ldr	r3, [r7, #4]
 8003a88:	619a      	str	r2, [r3, #24]
 8003a8a:	bf00      	nop
 8003a8c:	370c      	adds	r7, #12
 8003a8e:	46bd      	mov	sp, r7
 8003a90:	f85d 7b04 	ldr.w	r7, [sp], #4
 8003a94:	4770      	bx	lr
	...

08003a98 <HAL_GPIO_EXTI_IRQHandler>:
 8003a98:	b580      	push	{r7, lr}
 8003a9a:	b082      	sub	sp, #8
 8003a9c:	af00      	add	r7, sp, #0
 8003a9e:	4603      	mov	r3, r0
 8003aa0:	80fb      	strh	r3, [r7, #6]
 8003aa2:	4b08      	ldr	r3, [pc, #32]	; (8003ac4 <HAL_GPIO_EXTI_IRQHandler+0x2c>)
 8003aa4:	695a      	ldr	r2, [r3, #20]
 8003aa6:	88fb      	ldrh	r3, [r7, #6]
 8003aa8:	4013      	ands	r3, r2
 8003aaa:	2b00      	cmp	r3, #0
 8003aac:	d006      	beq.n	8003abc <HAL_GPIO_EXTI_IRQHandler+0x24>
 8003aae:	4a05      	ldr	r2, [pc, #20]	; (8003ac4 <HAL_GPIO_EXTI_IRQHandler+0x2c>)
 8003ab0:	88fb      	ldrh	r3, [r7, #6]
 8003ab2:	6153      	str	r3, [r2, #20]
 8003ab4:	88fb      	ldrh	r3, [r7, #6]
 8003ab6:	4618      	mov	r0, r3
 8003ab8:	f7fd f8ee 	bl	8000c98 <HAL_GPIO_EXTI_Callback>
 8003abc:	bf00      	nop
 8003abe:	3708      	adds	r7, #8
 8003ac0:	46bd      	mov	sp, r7
 8003ac2:	bd80      	pop	{r7, pc}
 8003ac4:	40013c00 	.word	0x40013c00

08003ac8 <HAL_I2C_Init>:
 8003ac8:	b580      	push	{r7, lr}
 8003aca:	b084      	sub	sp, #16
 8003acc:	af00      	add	r7, sp, #0
 8003ace:	6078      	str	r0, [r7, #4]
 8003ad0:	687b      	ldr	r3, [r7, #4]
 8003ad2:	2b00      	cmp	r3, #0
 8003ad4:	d101      	bne.n	8003ada <HAL_I2C_Init+0x12>
 8003ad6:	2301      	movs	r3, #1
 8003ad8:	e12b      	b.n	8003d32 <HAL_I2C_Init+0x26a>
 8003ada:	687b      	ldr	r3, [r7, #4]
 8003adc:	f893 303d 	ldrb.w	r3, [r3, #61]	; 0x3d
 8003ae0:	b2db      	uxtb	r3, r3
 8003ae2:	2b00      	cmp	r3, #0
 8003ae4:	d106      	bne.n	8003af4 <HAL_I2C_Init+0x2c>
 8003ae6:	687b      	ldr	r3, [r7, #4]
 8003ae8:	2200      	movs	r2, #0
 8003aea:	f883 203c 	strb.w	r2, [r3, #60]	; 0x3c
 8003aee:	6878      	ldr	r0, [r7, #4]
 8003af0:	f7fe fa3c 	bl	8001f6c <HAL_I2C_MspInit>
 8003af4:	687b      	ldr	r3, [r7, #4]
 8003af6:	2224      	movs	r2, #36	; 0x24
 8003af8:	f883 203d 	strb.w	r2, [r3, #61]	; 0x3d
 8003afc:	687b      	ldr	r3, [r7, #4]
 8003afe:	681b      	ldr	r3, [r3, #0]
 8003b00:	681a      	ldr	r2, [r3, #0]
 8003b02:	687b      	ldr	r3, [r7, #4]
 8003b04:	681b      	ldr	r3, [r3, #0]
 8003b06:	f022 0201 	bic.w	r2, r2, #1
 8003b0a:	601a      	str	r2, [r3, #0]
 8003b0c:	687b      	ldr	r3, [r7, #4]
 8003b0e:	681b      	ldr	r3, [r3, #0]
 8003b10:	681a      	ldr	r2, [r3, #0]
 8003b12:	687b      	ldr	r3, [r7, #4]
 8003b14:	681b      	ldr	r3, [r3, #0]
 8003b16:	f442 4200 	orr.w	r2, r2, #32768	; 0x8000
 8003b1a:	601a      	str	r2, [r3, #0]
 8003b1c:	687b      	ldr	r3, [r7, #4]
 8003b1e:	681b      	ldr	r3, [r3, #0]
 8003b20:	681a      	ldr	r2, [r3, #0]
 8003b22:	687b      	ldr	r3, [r7, #4]
 8003b24:	681b      	ldr	r3, [r3, #0]
 8003b26:	f422 4200 	bic.w	r2, r2, #32768	; 0x8000
 8003b2a:	601a      	str	r2, [r3, #0]
 8003b2c:	f001 f888 	bl	8004c40 <HAL_RCC_GetPCLK1Freq>
 8003b30:	60f8      	str	r0, [r7, #12]
 8003b32:	687b      	ldr	r3, [r7, #4]
 8003b34:	685b      	ldr	r3, [r3, #4]
 8003b36:	4a81      	ldr	r2, [pc, #516]	; (8003d3c <HAL_I2C_Init+0x274>)
 8003b38:	4293      	cmp	r3, r2
 8003b3a:	d807      	bhi.n	8003b4c <HAL_I2C_Init+0x84>
 8003b3c:	68fb      	ldr	r3, [r7, #12]
 8003b3e:	4a80      	ldr	r2, [pc, #512]	; (8003d40 <HAL_I2C_Init+0x278>)
 8003b40:	4293      	cmp	r3, r2
 8003b42:	bf94      	ite	ls
 8003b44:	2301      	movls	r3, #1
 8003b46:	2300      	movhi	r3, #0
 8003b48:	b2db      	uxtb	r3, r3
 8003b4a:	e006      	b.n	8003b5a <HAL_I2C_Init+0x92>
 8003b4c:	68fb      	ldr	r3, [r7, #12]
 8003b4e:	4a7d      	ldr	r2, [pc, #500]	; (8003d44 <HAL_I2C_Init+0x27c>)
 8003b50:	4293      	cmp	r3, r2
 8003b52:	bf94      	ite	ls
 8003b54:	2301      	movls	r3, #1
 8003b56:	2300      	movhi	r3, #0
 8003b58:	b2db      	uxtb	r3, r3
 8003b5a:	2b00      	cmp	r3, #0
 8003b5c:	d001      	beq.n	8003b62 <HAL_I2C_Init+0x9a>
 8003b5e:	2301      	movs	r3, #1
 8003b60:	e0e7      	b.n	8003d32 <HAL_I2C_Init+0x26a>
 8003b62:	68fb      	ldr	r3, [r7, #12]
 8003b64:	4a78      	ldr	r2, [pc, #480]	; (8003d48 <HAL_I2C_Init+0x280>)
 8003b66:	fba2 2303 	umull	r2, r3, r2, r3
 8003b6a:	0c9b      	lsrs	r3, r3, #18
 8003b6c:	60bb      	str	r3, [r7, #8]
 8003b6e:	687b      	ldr	r3, [r7, #4]
 8003b70:	681b      	ldr	r3, [r3, #0]
 8003b72:	685b      	ldr	r3, [r3, #4]
 8003b74:	f023 013f 	bic.w	r1, r3, #63	; 0x3f
 8003b78:	687b      	ldr	r3, [r7, #4]
 8003b7a:	681b      	ldr	r3, [r3, #0]
 8003b7c:	68ba      	ldr	r2, [r7, #8]
 8003b7e:	430a      	orrs	r2, r1
 8003b80:	605a      	str	r2, [r3, #4]
 8003b82:	687b      	ldr	r3, [r7, #4]
 8003b84:	681b      	ldr	r3, [r3, #0]
 8003b86:	6a1b      	ldr	r3, [r3, #32]
 8003b88:	f023 013f 	bic.w	r1, r3, #63	; 0x3f
 8003b8c:	687b      	ldr	r3, [r7, #4]
 8003b8e:	685b      	ldr	r3, [r3, #4]
 8003b90:	4a6a      	ldr	r2, [pc, #424]	; (8003d3c <HAL_I2C_Init+0x274>)
 8003b92:	4293      	cmp	r3, r2
 8003b94:	d802      	bhi.n	8003b9c <HAL_I2C_Init+0xd4>
 8003b96:	68bb      	ldr	r3, [r7, #8]
 8003b98:	3301      	adds	r3, #1
 8003b9a:	e009      	b.n	8003bb0 <HAL_I2C_Init+0xe8>
 8003b9c:	68bb      	ldr	r3, [r7, #8]
 8003b9e:	f44f 7296 	mov.w	r2, #300	; 0x12c
 8003ba2:	fb02 f303 	mul.w	r3, r2, r3
 8003ba6:	4a69      	ldr	r2, [pc, #420]	; (8003d4c <HAL_I2C_Init+0x284>)
 8003ba8:	fba2 2303 	umull	r2, r3, r2, r3
 8003bac:	099b      	lsrs	r3, r3, #6
 8003bae:	3301      	adds	r3, #1
 8003bb0:	687a      	ldr	r2, [r7, #4]
 8003bb2:	6812      	ldr	r2, [r2, #0]
 8003bb4:	430b      	orrs	r3, r1
 8003bb6:	6213      	str	r3, [r2, #32]
 8003bb8:	687b      	ldr	r3, [r7, #4]
 8003bba:	681b      	ldr	r3, [r3, #0]
 8003bbc:	69db      	ldr	r3, [r3, #28]
 8003bbe:	f423 424f 	bic.w	r2, r3, #52992	; 0xcf00
 8003bc2:	f022 02ff 	bic.w	r2, r2, #255	; 0xff
 8003bc6:	687b      	ldr	r3, [r7, #4]
 8003bc8:	685b      	ldr	r3, [r3, #4]
 8003bca:	495c      	ldr	r1, [pc, #368]	; (8003d3c <HAL_I2C_Init+0x274>)
 8003bcc:	428b      	cmp	r3, r1
 8003bce:	d819      	bhi.n	8003c04 <HAL_I2C_Init+0x13c>
 8003bd0:	68fb      	ldr	r3, [r7, #12]
 8003bd2:	1e59      	subs	r1, r3, #1
 8003bd4:	687b      	ldr	r3, [r7, #4]
 8003bd6:	685b      	ldr	r3, [r3, #4]
 8003bd8:	005b      	lsls	r3, r3, #1
 8003bda:	fbb1 f3f3 	udiv	r3, r1, r3
 8003bde:	1c59      	adds	r1, r3, #1
 8003be0:	f640 73fc 	movw	r3, #4092	; 0xffc
 8003be4:	400b      	ands	r3, r1
 8003be6:	2b00      	cmp	r3, #0
 8003be8:	d00a      	beq.n	8003c00 <HAL_I2C_Init+0x138>
 8003bea:	68fb      	ldr	r3, [r7, #12]
 8003bec:	1e59      	subs	r1, r3, #1
 8003bee:	687b      	ldr	r3, [r7, #4]
 8003bf0:	685b      	ldr	r3, [r3, #4]
 8003bf2:	005b      	lsls	r3, r3, #1
 8003bf4:	fbb1 f3f3 	udiv	r3, r1, r3
 8003bf8:	3301      	adds	r3, #1
 8003bfa:	f3c3 030b 	ubfx	r3, r3, #0, #12
 8003bfe:	e051      	b.n	8003ca4 <HAL_I2C_Init+0x1dc>
 8003c00:	2304      	movs	r3, #4
 8003c02:	e04f      	b.n	8003ca4 <HAL_I2C_Init+0x1dc>
 8003c04:	687b      	ldr	r3, [r7, #4]
 8003c06:	689b      	ldr	r3, [r3, #8]
 8003c08:	2b00      	cmp	r3, #0
 8003c0a:	d111      	bne.n	8003c30 <HAL_I2C_Init+0x168>
 8003c0c:	68fb      	ldr	r3, [r7, #12]
 8003c0e:	1e58      	subs	r0, r3, #1
 8003c10:	687b      	ldr	r3, [r7, #4]
 8003c12:	6859      	ldr	r1, [r3, #4]
 8003c14:	460b      	mov	r3, r1
 8003c16:	005b      	lsls	r3, r3, #1
 8003c18:	440b      	add	r3, r1
 8003c1a:	fbb0 f3f3 	udiv	r3, r0, r3
 8003c1e:	3301      	adds	r3, #1
 8003c20:	f3c3 030b 	ubfx	r3, r3, #0, #12
 8003c24:	2b00      	cmp	r3, #0
 8003c26:	bf0c      	ite	eq
 8003c28:	2301      	moveq	r3, #1
 8003c2a:	2300      	movne	r3, #0
 8003c2c:	b2db      	uxtb	r3, r3
 8003c2e:	e012      	b.n	8003c56 <HAL_I2C_Init+0x18e>
 8003c30:	68fb      	ldr	r3, [r7, #12]
 8003c32:	1e58      	subs	r0, r3, #1
 8003c34:	687b      	ldr	r3, [r7, #4]
 8003c36:	6859      	ldr	r1, [r3, #4]
 8003c38:	460b      	mov	r3, r1
 8003c3a:	009b      	lsls	r3, r3, #2
 8003c3c:	440b      	add	r3, r1
 8003c3e:	0099      	lsls	r1, r3, #2
 8003c40:	440b      	add	r3, r1
 8003c42:	fbb0 f3f3 	udiv	r3, r0, r3
 8003c46:	3301      	adds	r3, #1
 8003c48:	f3c3 030b 	ubfx	r3, r3, #0, #12
 8003c4c:	2b00      	cmp	r3, #0
 8003c4e:	bf0c      	ite	eq
 8003c50:	2301      	moveq	r3, #1
 8003c52:	2300      	movne	r3, #0
 8003c54:	b2db      	uxtb	r3, r3
 8003c56:	2b00      	cmp	r3, #0
 8003c58:	d001      	beq.n	8003c5e <HAL_I2C_Init+0x196>
 8003c5a:	2301      	movs	r3, #1
 8003c5c:	e022      	b.n	8003ca4 <HAL_I2C_Init+0x1dc>
 8003c5e:	687b      	ldr	r3, [r7, #4]
 8003c60:	689b      	ldr	r3, [r3, #8]
 8003c62:	2b00      	cmp	r3, #0
 8003c64:	d10e      	bne.n	8003c84 <HAL_I2C_Init+0x1bc>
 8003c66:	68fb      	ldr	r3, [r7, #12]
 8003c68:	1e58      	subs	r0, r3, #1
 8003c6a:	687b      	ldr	r3, [r7, #4]
 8003c6c:	6859      	ldr	r1, [r3, #4]
 8003c6e:	460b      	mov	r3, r1
 8003c70:	005b      	lsls	r3, r3, #1
 8003c72:	440b      	add	r3, r1
 8003c74:	fbb0 f3f3 	udiv	r3, r0, r3
 8003c78:	3301      	adds	r3, #1
 8003c7a:	f3c3 030b 	ubfx	r3, r3, #0, #12
 8003c7e:	f443 4300 	orr.w	r3, r3, #32768	; 0x8000
 8003c82:	e00f      	b.n	8003ca4 <HAL_I2C_Init+0x1dc>
 8003c84:	68fb      	ldr	r3, [r7, #12]
 8003c86:	1e58      	subs	r0, r3, #1
 8003c88:	687b      	ldr	r3, [r7, #4]
 8003c8a:	6859      	ldr	r1, [r3, #4]
 8003c8c:	460b      	mov	r3, r1
 8003c8e:	009b      	lsls	r3, r3, #2
 8003c90:	440b      	add	r3, r1
 8003c92:	0099      	lsls	r1, r3, #2
 8003c94:	440b      	add	r3, r1
 8003c96:	fbb0 f3f3 	udiv	r3, r0, r3
 8003c9a:	3301      	adds	r3, #1
 8003c9c:	f3c3 030b 	ubfx	r3, r3, #0, #12
 8003ca0:	f443 4340 	orr.w	r3, r3, #49152	; 0xc000
 8003ca4:	6879      	ldr	r1, [r7, #4]
 8003ca6:	6809      	ldr	r1, [r1, #0]
 8003ca8:	4313      	orrs	r3, r2
 8003caa:	61cb      	str	r3, [r1, #28]
 8003cac:	687b      	ldr	r3, [r7, #4]
 8003cae:	681b      	ldr	r3, [r3, #0]
 8003cb0:	681b      	ldr	r3, [r3, #0]
 8003cb2:	f023 01c0 	bic.w	r1, r3, #192	; 0xc0
 8003cb6:	687b      	ldr	r3, [r7, #4]
 8003cb8:	69da      	ldr	r2, [r3, #28]
 8003cba:	687b      	ldr	r3, [r7, #4]
 8003cbc:	6a1b      	ldr	r3, [r3, #32]
 8003cbe:	431a      	orrs	r2, r3
 8003cc0:	687b      	ldr	r3, [r7, #4]
 8003cc2:	681b      	ldr	r3, [r3, #0]
 8003cc4:	430a      	orrs	r2, r1
 8003cc6:	601a      	str	r2, [r3, #0]
 8003cc8:	687b      	ldr	r3, [r7, #4]
 8003cca:	681b      	ldr	r3, [r3, #0]
 8003ccc:	689b      	ldr	r3, [r3, #8]
 8003cce:	f423 4303 	bic.w	r3, r3, #33536	; 0x8300
 8003cd2:	f023 03ff 	bic.w	r3, r3, #255	; 0xff
 8003cd6:	687a      	ldr	r2, [r7, #4]
 8003cd8:	6911      	ldr	r1, [r2, #16]
 8003cda:	687a      	ldr	r2, [r7, #4]
 8003cdc:	68d2      	ldr	r2, [r2, #12]
 8003cde:	4311      	orrs	r1, r2
 8003ce0:	687a      	ldr	r2, [r7, #4]
 8003ce2:	6812      	ldr	r2, [r2, #0]
 8003ce4:	430b      	orrs	r3, r1
 8003ce6:	6093      	str	r3, [r2, #8]
 8003ce8:	687b      	ldr	r3, [r7, #4]
 8003cea:	681b      	ldr	r3, [r3, #0]
 8003cec:	68db      	ldr	r3, [r3, #12]
 8003cee:	f023 01ff 	bic.w	r1, r3, #255	; 0xff
 8003cf2:	687b      	ldr	r3, [r7, #4]
 8003cf4:	695a      	ldr	r2, [r3, #20]
 8003cf6:	687b      	ldr	r3, [r7, #4]
 8003cf8:	699b      	ldr	r3, [r3, #24]
 8003cfa:	431a      	orrs	r2, r3
 8003cfc:	687b      	ldr	r3, [r7, #4]
 8003cfe:	681b      	ldr	r3, [r3, #0]
 8003d00:	430a      	orrs	r2, r1
 8003d02:	60da      	str	r2, [r3, #12]
 8003d04:	687b      	ldr	r3, [r7, #4]
 8003d06:	681b      	ldr	r3, [r3, #0]
 8003d08:	681a      	ldr	r2, [r3, #0]
 8003d0a:	687b      	ldr	r3, [r7, #4]
 8003d0c:	681b      	ldr	r3, [r3, #0]
 8003d0e:	f042 0201 	orr.w	r2, r2, #1
 8003d12:	601a      	str	r2, [r3, #0]
 8003d14:	687b      	ldr	r3, [r7, #4]
 8003d16:	2200      	movs	r2, #0
 8003d18:	641a      	str	r2, [r3, #64]	; 0x40
 8003d1a:	687b      	ldr	r3, [r7, #4]
 8003d1c:	2220      	movs	r2, #32
 8003d1e:	f883 203d 	strb.w	r2, [r3, #61]	; 0x3d
 8003d22:	687b      	ldr	r3, [r7, #4]
 8003d24:	2200      	movs	r2, #0
 8003d26:	631a      	str	r2, [r3, #48]	; 0x30
 8003d28:	687b      	ldr	r3, [r7, #4]
 8003d2a:	2200      	movs	r2, #0
 8003d2c:	f883 203e 	strb.w	r2, [r3, #62]	; 0x3e
 8003d30:	2300      	movs	r3, #0
 8003d32:	4618      	mov	r0, r3
 8003d34:	3710      	adds	r7, #16
 8003d36:	46bd      	mov	sp, r7
 8003d38:	bd80      	pop	{r7, pc}
 8003d3a:	bf00      	nop
 8003d3c:	000186a0 	.word	0x000186a0
 8003d40:	001e847f 	.word	0x001e847f
 8003d44:	003d08ff 	.word	0x003d08ff
 8003d48:	431bde83 	.word	0x431bde83
 8003d4c:	10624dd3 	.word	0x10624dd3

08003d50 <HAL_I2C_Master_Transmit>:
 8003d50:	b580      	push	{r7, lr}
 8003d52:	b088      	sub	sp, #32
 8003d54:	af02      	add	r7, sp, #8
 8003d56:	60f8      	str	r0, [r7, #12]
 8003d58:	607a      	str	r2, [r7, #4]
 8003d5a:	461a      	mov	r2, r3
 8003d5c:	460b      	mov	r3, r1
 8003d5e:	817b      	strh	r3, [r7, #10]
 8003d60:	4613      	mov	r3, r2
 8003d62:	813b      	strh	r3, [r7, #8]
 8003d64:	f7fe fafa 	bl	800235c <HAL_GetTick>
 8003d68:	6178      	str	r0, [r7, #20]
 8003d6a:	68fb      	ldr	r3, [r7, #12]
 8003d6c:	f893 303d 	ldrb.w	r3, [r3, #61]	; 0x3d
 8003d70:	b2db      	uxtb	r3, r3
 8003d72:	2b20      	cmp	r3, #32
 8003d74:	f040 80e0 	bne.w	8003f38 <HAL_I2C_Master_Transmit+0x1e8>
 8003d78:	697b      	ldr	r3, [r7, #20]
 8003d7a:	9300      	str	r3, [sp, #0]
 8003d7c:	2319      	movs	r3, #25
 8003d7e:	2201      	movs	r2, #1
 8003d80:	4970      	ldr	r1, [pc, #448]	; (8003f44 <HAL_I2C_Master_Transmit+0x1f4>)
 8003d82:	68f8      	ldr	r0, [r7, #12]
 8003d84:	f000 f964 	bl	8004050 <I2C_WaitOnFlagUntilTimeout>
 8003d88:	4603      	mov	r3, r0
 8003d8a:	2b00      	cmp	r3, #0
 8003d8c:	d001      	beq.n	8003d92 <HAL_I2C_Master_Transmit+0x42>
 8003d8e:	2302      	movs	r3, #2
 8003d90:	e0d3      	b.n	8003f3a <HAL_I2C_Master_Transmit+0x1ea>
 8003d92:	68fb      	ldr	r3, [r7, #12]
 8003d94:	f893 303c 	ldrb.w	r3, [r3, #60]	; 0x3c
 8003d98:	2b01      	cmp	r3, #1
 8003d9a:	d101      	bne.n	8003da0 <HAL_I2C_Master_Transmit+0x50>
 8003d9c:	2302      	movs	r3, #2
 8003d9e:	e0cc      	b.n	8003f3a <HAL_I2C_Master_Transmit+0x1ea>
 8003da0:	68fb      	ldr	r3, [r7, #12]
 8003da2:	2201      	movs	r2, #1
 8003da4:	f883 203c 	strb.w	r2, [r3, #60]	; 0x3c
 8003da8:	68fb      	ldr	r3, [r7, #12]
 8003daa:	681b      	ldr	r3, [r3, #0]
 8003dac:	681b      	ldr	r3, [r3, #0]
 8003dae:	f003 0301 	and.w	r3, r3, #1
 8003db2:	2b01      	cmp	r3, #1
 8003db4:	d007      	beq.n	8003dc6 <HAL_I2C_Master_Transmit+0x76>
 8003db6:	68fb      	ldr	r3, [r7, #12]
 8003db8:	681b      	ldr	r3, [r3, #0]
 8003dba:	681a      	ldr	r2, [r3, #0]
 8003dbc:	68fb      	ldr	r3, [r7, #12]
 8003dbe:	681b      	ldr	r3, [r3, #0]
 8003dc0:	f042 0201 	orr.w	r2, r2, #1
 8003dc4:	601a      	str	r2, [r3, #0]
 8003dc6:	68fb      	ldr	r3, [r7, #12]
 8003dc8:	681b      	ldr	r3, [r3, #0]
 8003dca:	681a      	ldr	r2, [r3, #0]
 8003dcc:	68fb      	ldr	r3, [r7, #12]
 8003dce:	681b      	ldr	r3, [r3, #0]
 8003dd0:	f422 6200 	bic.w	r2, r2, #2048	; 0x800
 8003dd4:	601a      	str	r2, [r3, #0]
 8003dd6:	68fb      	ldr	r3, [r7, #12]
 8003dd8:	2221      	movs	r2, #33	; 0x21
 8003dda:	f883 203d 	strb.w	r2, [r3, #61]	; 0x3d
 8003dde:	68fb      	ldr	r3, [r7, #12]
 8003de0:	2210      	movs	r2, #16
 8003de2:	f883 203e 	strb.w	r2, [r3, #62]	; 0x3e
 8003de6:	68fb      	ldr	r3, [r7, #12]
 8003de8:	2200      	movs	r2, #0
 8003dea:	641a      	str	r2, [r3, #64]	; 0x40
 8003dec:	68fb      	ldr	r3, [r7, #12]
 8003dee:	687a      	ldr	r2, [r7, #4]
 8003df0:	625a      	str	r2, [r3, #36]	; 0x24
 8003df2:	68fb      	ldr	r3, [r7, #12]
 8003df4:	893a      	ldrh	r2, [r7, #8]
 8003df6:	855a      	strh	r2, [r3, #42]	; 0x2a
 8003df8:	68fb      	ldr	r3, [r7, #12]
 8003dfa:	8d5b      	ldrh	r3, [r3, #42]	; 0x2a
 8003dfc:	b29a      	uxth	r2, r3
 8003dfe:	68fb      	ldr	r3, [r7, #12]
 8003e00:	851a      	strh	r2, [r3, #40]	; 0x28
 8003e02:	68fb      	ldr	r3, [r7, #12]
 8003e04:	4a50      	ldr	r2, [pc, #320]	; (8003f48 <HAL_I2C_Master_Transmit+0x1f8>)
 8003e06:	62da      	str	r2, [r3, #44]	; 0x2c
 8003e08:	8979      	ldrh	r1, [r7, #10]
 8003e0a:	697b      	ldr	r3, [r7, #20]
 8003e0c:	6a3a      	ldr	r2, [r7, #32]
 8003e0e:	68f8      	ldr	r0, [r7, #12]
 8003e10:	f000 f89c 	bl	8003f4c <I2C_MasterRequestWrite>
 8003e14:	4603      	mov	r3, r0
 8003e16:	2b00      	cmp	r3, #0
 8003e18:	d001      	beq.n	8003e1e <HAL_I2C_Master_Transmit+0xce>
 8003e1a:	2301      	movs	r3, #1
 8003e1c:	e08d      	b.n	8003f3a <HAL_I2C_Master_Transmit+0x1ea>
 8003e1e:	2300      	movs	r3, #0
 8003e20:	613b      	str	r3, [r7, #16]
 8003e22:	68fb      	ldr	r3, [r7, #12]
 8003e24:	681b      	ldr	r3, [r3, #0]
 8003e26:	695b      	ldr	r3, [r3, #20]
 8003e28:	613b      	str	r3, [r7, #16]
 8003e2a:	68fb      	ldr	r3, [r7, #12]
 8003e2c:	681b      	ldr	r3, [r3, #0]
 8003e2e:	699b      	ldr	r3, [r3, #24]
 8003e30:	613b      	str	r3, [r7, #16]
 8003e32:	693b      	ldr	r3, [r7, #16]
 8003e34:	e066      	b.n	8003f04 <HAL_I2C_Master_Transmit+0x1b4>
 8003e36:	697a      	ldr	r2, [r7, #20]
 8003e38:	6a39      	ldr	r1, [r7, #32]
 8003e3a:	68f8      	ldr	r0, [r7, #12]
 8003e3c:	f000 f9de 	bl	80041fc <I2C_WaitOnTXEFlagUntilTimeout>
 8003e40:	4603      	mov	r3, r0
 8003e42:	2b00      	cmp	r3, #0
 8003e44:	d00d      	beq.n	8003e62 <HAL_I2C_Master_Transmit+0x112>
 8003e46:	68fb      	ldr	r3, [r7, #12]
 8003e48:	6c1b      	ldr	r3, [r3, #64]	; 0x40
 8003e4a:	2b04      	cmp	r3, #4
 8003e4c:	d107      	bne.n	8003e5e <HAL_I2C_Master_Transmit+0x10e>
 8003e4e:	68fb      	ldr	r3, [r7, #12]
 8003e50:	681b      	ldr	r3, [r3, #0]
 8003e52:	681a      	ldr	r2, [r3, #0]
 8003e54:	68fb      	ldr	r3, [r7, #12]
 8003e56:	681b      	ldr	r3, [r3, #0]
 8003e58:	f442 7200 	orr.w	r2, r2, #512	; 0x200
 8003e5c:	601a      	str	r2, [r3, #0]
 8003e5e:	2301      	movs	r3, #1
 8003e60:	e06b      	b.n	8003f3a <HAL_I2C_Master_Transmit+0x1ea>
 8003e62:	68fb      	ldr	r3, [r7, #12]
 8003e64:	6a5b      	ldr	r3, [r3, #36]	; 0x24
 8003e66:	781a      	ldrb	r2, [r3, #0]
 8003e68:	68fb      	ldr	r3, [r7, #12]
 8003e6a:	681b      	ldr	r3, [r3, #0]
 8003e6c:	611a      	str	r2, [r3, #16]
 8003e6e:	68fb      	ldr	r3, [r7, #12]
 8003e70:	6a5b      	ldr	r3, [r3, #36]	; 0x24
 8003e72:	1c5a      	adds	r2, r3, #1
 8003e74:	68fb      	ldr	r3, [r7, #12]
 8003e76:	625a      	str	r2, [r3, #36]	; 0x24
 8003e78:	68fb      	ldr	r3, [r7, #12]
 8003e7a:	8d5b      	ldrh	r3, [r3, #42]	; 0x2a
 8003e7c:	b29b      	uxth	r3, r3
 8003e7e:	3b01      	subs	r3, #1
 8003e80:	b29a      	uxth	r2, r3
 8003e82:	68fb      	ldr	r3, [r7, #12]
 8003e84:	855a      	strh	r2, [r3, #42]	; 0x2a
 8003e86:	68fb      	ldr	r3, [r7, #12]
 8003e88:	8d1b      	ldrh	r3, [r3, #40]	; 0x28
 8003e8a:	3b01      	subs	r3, #1
 8003e8c:	b29a      	uxth	r2, r3
 8003e8e:	68fb      	ldr	r3, [r7, #12]
 8003e90:	851a      	strh	r2, [r3, #40]	; 0x28
 8003e92:	68fb      	ldr	r3, [r7, #12]
 8003e94:	681b      	ldr	r3, [r3, #0]
 8003e96:	695b      	ldr	r3, [r3, #20]
 8003e98:	f003 0304 	and.w	r3, r3, #4
 8003e9c:	2b04      	cmp	r3, #4
 8003e9e:	d11b      	bne.n	8003ed8 <HAL_I2C_Master_Transmit+0x188>
 8003ea0:	68fb      	ldr	r3, [r7, #12]
 8003ea2:	8d1b      	ldrh	r3, [r3, #40]	; 0x28
 8003ea4:	2b00      	cmp	r3, #0
 8003ea6:	d017      	beq.n	8003ed8 <HAL_I2C_Master_Transmit+0x188>
 8003ea8:	68fb      	ldr	r3, [r7, #12]
 8003eaa:	6a5b      	ldr	r3, [r3, #36]	; 0x24
 8003eac:	781a      	ldrb	r2, [r3, #0]
 8003eae:	68fb      	ldr	r3, [r7, #12]
 8003eb0:	681b      	ldr	r3, [r3, #0]
 8003eb2:	611a      	str	r2, [r3, #16]
 8003eb4:	68fb      	ldr	r3, [r7, #12]
 8003eb6:	6a5b      	ldr	r3, [r3, #36]	; 0x24
 8003eb8:	1c5a      	adds	r2, r3, #1
 8003eba:	68fb      	ldr	r3, [r7, #12]
 8003ebc:	625a      	str	r2, [r3, #36]	; 0x24
 8003ebe:	68fb      	ldr	r3, [r7, #12]
 8003ec0:	8d5b      	ldrh	r3, [r3, #42]	; 0x2a
 8003ec2:	b29b      	uxth	r3, r3
 8003ec4:	3b01      	subs	r3, #1
 8003ec6:	b29a      	uxth	r2, r3
 8003ec8:	68fb      	ldr	r3, [r7, #12]
 8003eca:	855a      	strh	r2, [r3, #42]	; 0x2a
 8003ecc:	68fb      	ldr	r3, [r7, #12]
 8003ece:	8d1b      	ldrh	r3, [r3, #40]	; 0x28
 8003ed0:	3b01      	subs	r3, #1
 8003ed2:	b29a      	uxth	r2, r3
 8003ed4:	68fb      	ldr	r3, [r7, #12]
 8003ed6:	851a      	strh	r2, [r3, #40]	; 0x28
 8003ed8:	697a      	ldr	r2, [r7, #20]
 8003eda:	6a39      	ldr	r1, [r7, #32]
 8003edc:	68f8      	ldr	r0, [r7, #12]
 8003ede:	f000 f9ce 	bl	800427e <I2C_WaitOnBTFFlagUntilTimeout>
 8003ee2:	4603      	mov	r3, r0
 8003ee4:	2b00      	cmp	r3, #0
 8003ee6:	d00d      	beq.n	8003f04 <HAL_I2C_Master_Transmit+0x1b4>
 8003ee8:	68fb      	ldr	r3, [r7, #12]
 8003eea:	6c1b      	ldr	r3, [r3, #64]	; 0x40
 8003eec:	2b04      	cmp	r3, #4
 8003eee:	d107      	bne.n	8003f00 <HAL_I2C_Master_Transmit+0x1b0>
 8003ef0:	68fb      	ldr	r3, [r7, #12]
 8003ef2:	681b      	ldr	r3, [r3, #0]
 8003ef4:	681a      	ldr	r2, [r3, #0]
 8003ef6:	68fb      	ldr	r3, [r7, #12]
 8003ef8:	681b      	ldr	r3, [r3, #0]
 8003efa:	f442 7200 	orr.w	r2, r2, #512	; 0x200
 8003efe:	601a      	str	r2, [r3, #0]
 8003f00:	2301      	movs	r3, #1
 8003f02:	e01a      	b.n	8003f3a <HAL_I2C_Master_Transmit+0x1ea>
 8003f04:	68fb      	ldr	r3, [r7, #12]
 8003f06:	8d1b      	ldrh	r3, [r3, #40]	; 0x28
 8003f08:	2b00      	cmp	r3, #0
 8003f0a:	d194      	bne.n	8003e36 <HAL_I2C_Master_Transmit+0xe6>
 8003f0c:	68fb      	ldr	r3, [r7, #12]
 8003f0e:	681b      	ldr	r3, [r3, #0]
 8003f10:	681a      	ldr	r2, [r3, #0]
 8003f12:	68fb      	ldr	r3, [r7, #12]
 8003f14:	681b      	ldr	r3, [r3, #0]
 8003f16:	f442 7200 	orr.w	r2, r2, #512	; 0x200
 8003f1a:	601a      	str	r2, [r3, #0]
 8003f1c:	68fb      	ldr	r3, [r7, #12]
 8003f1e:	2220      	movs	r2, #32
 8003f20:	f883 203d 	strb.w	r2, [r3, #61]	; 0x3d
 8003f24:	68fb      	ldr	r3, [r7, #12]
 8003f26:	2200      	movs	r2, #0
 8003f28:	f883 203e 	strb.w	r2, [r3, #62]	; 0x3e
 8003f2c:	68fb      	ldr	r3, [r7, #12]
 8003f2e:	2200      	movs	r2, #0
 8003f30:	f883 203c 	strb.w	r2, [r3, #60]	; 0x3c
 8003f34:	2300      	movs	r3, #0
 8003f36:	e000      	b.n	8003f3a <HAL_I2C_Master_Transmit+0x1ea>
 8003f38:	2302      	movs	r3, #2
 8003f3a:	4618      	mov	r0, r3
 8003f3c:	3718      	adds	r7, #24
 8003f3e:	46bd      	mov	sp, r7
 8003f40:	bd80      	pop	{r7, pc}
 8003f42:	bf00      	nop
 8003f44:	00100002 	.word	0x00100002
 8003f48:	ffff0000 	.word	0xffff0000

08003f4c <I2C_MasterRequestWrite>:
 8003f4c:	b580      	push	{r7, lr}
 8003f4e:	b088      	sub	sp, #32
 8003f50:	af02      	add	r7, sp, #8
 8003f52:	60f8      	str	r0, [r7, #12]
 8003f54:	607a      	str	r2, [r7, #4]
 8003f56:	603b      	str	r3, [r7, #0]
 8003f58:	460b      	mov	r3, r1
 8003f5a:	817b      	strh	r3, [r7, #10]
 8003f5c:	68fb      	ldr	r3, [r7, #12]
 8003f5e:	6adb      	ldr	r3, [r3, #44]	; 0x2c
 8003f60:	617b      	str	r3, [r7, #20]
 8003f62:	697b      	ldr	r3, [r7, #20]
 8003f64:	2b08      	cmp	r3, #8
 8003f66:	d006      	beq.n	8003f76 <I2C_MasterRequestWrite+0x2a>
 8003f68:	697b      	ldr	r3, [r7, #20]
 8003f6a:	2b01      	cmp	r3, #1
 8003f6c:	d003      	beq.n	8003f76 <I2C_MasterRequestWrite+0x2a>
 8003f6e:	697b      	ldr	r3, [r7, #20]
 8003f70:	f513 3f80 	cmn.w	r3, #65536	; 0x10000
 8003f74:	d108      	bne.n	8003f88 <I2C_MasterRequestWrite+0x3c>
 8003f76:	68fb      	ldr	r3, [r7, #12]
 8003f78:	681b      	ldr	r3, [r3, #0]
 8003f7a:	681a      	ldr	r2, [r3, #0]
 8003f7c:	68fb      	ldr	r3, [r7, #12]
 8003f7e:	681b      	ldr	r3, [r3, #0]
 8003f80:	f442 7280 	orr.w	r2, r2, #256	; 0x100
 8003f84:	601a      	str	r2, [r3, #0]
 8003f86:	e00b      	b.n	8003fa0 <I2C_MasterRequestWrite+0x54>
 8003f88:	68fb      	ldr	r3, [r7, #12]
 8003f8a:	6b1b      	ldr	r3, [r3, #48]	; 0x30
 8003f8c:	2b12      	cmp	r3, #18
 8003f8e:	d107      	bne.n	8003fa0 <I2C_MasterRequestWrite+0x54>
 8003f90:	68fb      	ldr	r3, [r7, #12]
 8003f92:	681b      	ldr	r3, [r3, #0]
 8003f94:	681a      	ldr	r2, [r3, #0]
 8003f96:	68fb      	ldr	r3, [r7, #12]
 8003f98:	681b      	ldr	r3, [r3, #0]
 8003f9a:	f442 7280 	orr.w	r2, r2, #256	; 0x100
 8003f9e:	601a      	str	r2, [r3, #0]
 8003fa0:	683b      	ldr	r3, [r7, #0]
 8003fa2:	9300      	str	r3, [sp, #0]
 8003fa4:	687b      	ldr	r3, [r7, #4]
 8003fa6:	2200      	movs	r2, #0
 8003fa8:	f04f 1101 	mov.w	r1, #65537	; 0x10001
 8003fac:	68f8      	ldr	r0, [r7, #12]
 8003fae:	f000 f84f 	bl	8004050 <I2C_WaitOnFlagUntilTimeout>
 8003fb2:	4603      	mov	r3, r0
 8003fb4:	2b00      	cmp	r3, #0
 8003fb6:	d00d      	beq.n	8003fd4 <I2C_MasterRequestWrite+0x88>
 8003fb8:	68fb      	ldr	r3, [r7, #12]
 8003fba:	681b      	ldr	r3, [r3, #0]
 8003fbc:	681b      	ldr	r3, [r3, #0]
 8003fbe:	f403 7380 	and.w	r3, r3, #256	; 0x100
 8003fc2:	f5b3 7f80 	cmp.w	r3, #256	; 0x100
 8003fc6:	d103      	bne.n	8003fd0 <I2C_MasterRequestWrite+0x84>
 8003fc8:	68fb      	ldr	r3, [r7, #12]
 8003fca:	f44f 7200 	mov.w	r2, #512	; 0x200
 8003fce:	641a      	str	r2, [r3, #64]	; 0x40
 8003fd0:	2303      	movs	r3, #3
 8003fd2:	e035      	b.n	8004040 <I2C_MasterRequestWrite+0xf4>
 8003fd4:	68fb      	ldr	r3, [r7, #12]
 8003fd6:	691b      	ldr	r3, [r3, #16]
 8003fd8:	f5b3 4f80 	cmp.w	r3, #16384	; 0x4000
 8003fdc:	d108      	bne.n	8003ff0 <I2C_MasterRequestWrite+0xa4>
 8003fde:	897b      	ldrh	r3, [r7, #10]
 8003fe0:	b2db      	uxtb	r3, r3
 8003fe2:	461a      	mov	r2, r3
 8003fe4:	68fb      	ldr	r3, [r7, #12]
 8003fe6:	681b      	ldr	r3, [r3, #0]
 8003fe8:	f002 02fe 	and.w	r2, r2, #254	; 0xfe
 8003fec:	611a      	str	r2, [r3, #16]
 8003fee:	e01b      	b.n	8004028 <I2C_MasterRequestWrite+0xdc>
 8003ff0:	897b      	ldrh	r3, [r7, #10]
 8003ff2:	11db      	asrs	r3, r3, #7
 8003ff4:	b2db      	uxtb	r3, r3
 8003ff6:	f003 0306 	and.w	r3, r3, #6
 8003ffa:	b2db      	uxtb	r3, r3
 8003ffc:	f063 030f 	orn	r3, r3, #15
 8004000:	b2da      	uxtb	r2, r3
 8004002:	68fb      	ldr	r3, [r7, #12]
 8004004:	681b      	ldr	r3, [r3, #0]
 8004006:	611a      	str	r2, [r3, #16]
 8004008:	683b      	ldr	r3, [r7, #0]
 800400a:	687a      	ldr	r2, [r7, #4]
 800400c:	490e      	ldr	r1, [pc, #56]	; (8004048 <I2C_MasterRequestWrite+0xfc>)
 800400e:	68f8      	ldr	r0, [r7, #12]
 8004010:	f000 f875 	bl	80040fe <I2C_WaitOnMasterAddressFlagUntilTimeout>
 8004014:	4603      	mov	r3, r0
 8004016:	2b00      	cmp	r3, #0
 8004018:	d001      	beq.n	800401e <I2C_MasterRequestWrite+0xd2>
 800401a:	2301      	movs	r3, #1
 800401c:	e010      	b.n	8004040 <I2C_MasterRequestWrite+0xf4>
 800401e:	897b      	ldrh	r3, [r7, #10]
 8004020:	b2da      	uxtb	r2, r3
 8004022:	68fb      	ldr	r3, [r7, #12]
 8004024:	681b      	ldr	r3, [r3, #0]
 8004026:	611a      	str	r2, [r3, #16]
 8004028:	683b      	ldr	r3, [r7, #0]
 800402a:	687a      	ldr	r2, [r7, #4]
 800402c:	4907      	ldr	r1, [pc, #28]	; (800404c <I2C_MasterRequestWrite+0x100>)
 800402e:	68f8      	ldr	r0, [r7, #12]
 8004030:	f000 f865 	bl	80040fe <I2C_WaitOnMasterAddressFlagUntilTimeout>
 8004034:	4603      	mov	r3, r0
 8004036:	2b00      	cmp	r3, #0
 8004038:	d001      	beq.n	800403e <I2C_MasterRequestWrite+0xf2>
 800403a:	2301      	movs	r3, #1
 800403c:	e000      	b.n	8004040 <I2C_MasterRequestWrite+0xf4>
 800403e:	2300      	movs	r3, #0
 8004040:	4618      	mov	r0, r3
 8004042:	3718      	adds	r7, #24
 8004044:	46bd      	mov	sp, r7
 8004046:	bd80      	pop	{r7, pc}
 8004048:	00010008 	.word	0x00010008
 800404c:	00010002 	.word	0x00010002

08004050 <I2C_WaitOnFlagUntilTimeout>:
 8004050:	b580      	push	{r7, lr}
 8004052:	b084      	sub	sp, #16
 8004054:	af00      	add	r7, sp, #0
 8004056:	60f8      	str	r0, [r7, #12]
 8004058:	60b9      	str	r1, [r7, #8]
 800405a:	603b      	str	r3, [r7, #0]
 800405c:	4613      	mov	r3, r2
 800405e:	71fb      	strb	r3, [r7, #7]
 8004060:	e025      	b.n	80040ae <I2C_WaitOnFlagUntilTimeout+0x5e>
 8004062:	683b      	ldr	r3, [r7, #0]
 8004064:	f1b3 3fff 	cmp.w	r3, #4294967295
 8004068:	d021      	beq.n	80040ae <I2C_WaitOnFlagUntilTimeout+0x5e>
 800406a:	f7fe f977 	bl	800235c <HAL_GetTick>
 800406e:	4602      	mov	r2, r0
 8004070:	69bb      	ldr	r3, [r7, #24]
 8004072:	1ad3      	subs	r3, r2, r3
 8004074:	683a      	ldr	r2, [r7, #0]
 8004076:	429a      	cmp	r2, r3
 8004078:	d302      	bcc.n	8004080 <I2C_WaitOnFlagUntilTimeout+0x30>
 800407a:	683b      	ldr	r3, [r7, #0]
 800407c:	2b00      	cmp	r3, #0
 800407e:	d116      	bne.n	80040ae <I2C_WaitOnFlagUntilTimeout+0x5e>
 8004080:	68fb      	ldr	r3, [r7, #12]
 8004082:	2200      	movs	r2, #0
 8004084:	631a      	str	r2, [r3, #48]	; 0x30
 8004086:	68fb      	ldr	r3, [r7, #12]
 8004088:	2220      	movs	r2, #32
 800408a:	f883 203d 	strb.w	r2, [r3, #61]	; 0x3d
 800408e:	68fb      	ldr	r3, [r7, #12]
 8004090:	2200      	movs	r2, #0
 8004092:	f883 203e 	strb.w	r2, [r3, #62]	; 0x3e
 8004096:	68fb      	ldr	r3, [r7, #12]
 8004098:	6c1b      	ldr	r3, [r3, #64]	; 0x40
 800409a:	f043 0220 	orr.w	r2, r3, #32
 800409e:	68fb      	ldr	r3, [r7, #12]
 80040a0:	641a      	str	r2, [r3, #64]	; 0x40
 80040a2:	68fb      	ldr	r3, [r7, #12]
 80040a4:	2200      	movs	r2, #0
 80040a6:	f883 203c 	strb.w	r2, [r3, #60]	; 0x3c
 80040aa:	2301      	movs	r3, #1
 80040ac:	e023      	b.n	80040f6 <I2C_WaitOnFlagUntilTimeout+0xa6>
 80040ae:	68bb      	ldr	r3, [r7, #8]
 80040b0:	0c1b      	lsrs	r3, r3, #16
 80040b2:	b2db      	uxtb	r3, r3
 80040b4:	2b01      	cmp	r3, #1
 80040b6:	d10d      	bne.n	80040d4 <I2C_WaitOnFlagUntilTimeout+0x84>
 80040b8:	68fb      	ldr	r3, [r7, #12]
 80040ba:	681b      	ldr	r3, [r3, #0]
 80040bc:	695b      	ldr	r3, [r3, #20]
 80040be:	43da      	mvns	r2, r3
 80040c0:	68bb      	ldr	r3, [r7, #8]
 80040c2:	4013      	ands	r3, r2
 80040c4:	b29b      	uxth	r3, r3
 80040c6:	2b00      	cmp	r3, #0
 80040c8:	bf0c      	ite	eq
 80040ca:	2301      	moveq	r3, #1
 80040cc:	2300      	movne	r3, #0
 80040ce:	b2db      	uxtb	r3, r3
 80040d0:	461a      	mov	r2, r3
 80040d2:	e00c      	b.n	80040ee <I2C_WaitOnFlagUntilTimeout+0x9e>
 80040d4:	68fb      	ldr	r3, [r7, #12]
 80040d6:	681b      	ldr	r3, [r3, #0]
 80040d8:	699b      	ldr	r3, [r3, #24]
 80040da:	43da      	mvns	r2, r3
 80040dc:	68bb      	ldr	r3, [r7, #8]
 80040de:	4013      	ands	r3, r2
 80040e0:	b29b      	uxth	r3, r3
 80040e2:	2b00      	cmp	r3, #0
 80040e4:	bf0c      	ite	eq
 80040e6:	2301      	moveq	r3, #1
 80040e8:	2300      	movne	r3, #0
 80040ea:	b2db      	uxtb	r3, r3
 80040ec:	461a      	mov	r2, r3
 80040ee:	79fb      	ldrb	r3, [r7, #7]
 80040f0:	429a      	cmp	r2, r3
 80040f2:	d0b6      	beq.n	8004062 <I2C_WaitOnFlagUntilTimeout+0x12>
 80040f4:	2300      	movs	r3, #0
 80040f6:	4618      	mov	r0, r3
 80040f8:	3710      	adds	r7, #16
 80040fa:	46bd      	mov	sp, r7
 80040fc:	bd80      	pop	{r7, pc}

080040fe <I2C_WaitOnMasterAddressFlagUntilTimeout>:
 80040fe:	b580      	push	{r7, lr}
 8004100:	b084      	sub	sp, #16
 8004102:	af00      	add	r7, sp, #0
 8004104:	60f8      	str	r0, [r7, #12]
 8004106:	60b9      	str	r1, [r7, #8]
 8004108:	607a      	str	r2, [r7, #4]
 800410a:	603b      	str	r3, [r7, #0]
 800410c:	e051      	b.n	80041b2 <I2C_WaitOnMasterAddressFlagUntilTimeout+0xb4>
 800410e:	68fb      	ldr	r3, [r7, #12]
 8004110:	681b      	ldr	r3, [r3, #0]
 8004112:	695b      	ldr	r3, [r3, #20]
 8004114:	f403 6380 	and.w	r3, r3, #1024	; 0x400
 8004118:	f5b3 6f80 	cmp.w	r3, #1024	; 0x400
 800411c:	d123      	bne.n	8004166 <I2C_WaitOnMasterAddressFlagUntilTimeout+0x68>
 800411e:	68fb      	ldr	r3, [r7, #12]
 8004120:	681b      	ldr	r3, [r3, #0]
 8004122:	681a      	ldr	r2, [r3, #0]
 8004124:	68fb      	ldr	r3, [r7, #12]
 8004126:	681b      	ldr	r3, [r3, #0]
 8004128:	f442 7200 	orr.w	r2, r2, #512	; 0x200
 800412c:	601a      	str	r2, [r3, #0]
 800412e:	68fb      	ldr	r3, [r7, #12]
 8004130:	681b      	ldr	r3, [r3, #0]
 8004132:	f46f 6280 	mvn.w	r2, #1024	; 0x400
 8004136:	615a      	str	r2, [r3, #20]
 8004138:	68fb      	ldr	r3, [r7, #12]
 800413a:	2200      	movs	r2, #0
 800413c:	631a      	str	r2, [r3, #48]	; 0x30
 800413e:	68fb      	ldr	r3, [r7, #12]
 8004140:	2220      	movs	r2, #32
 8004142:	f883 203d 	strb.w	r2, [r3, #61]	; 0x3d
 8004146:	68fb      	ldr	r3, [r7, #12]
 8004148:	2200      	movs	r2, #0
 800414a:	f883 203e 	strb.w	r2, [r3, #62]	; 0x3e
 800414e:	68fb      	ldr	r3, [r7, #12]
 8004150:	6c1b      	ldr	r3, [r3, #64]	; 0x40
 8004152:	f043 0204 	orr.w	r2, r3, #4
 8004156:	68fb      	ldr	r3, [r7, #12]
 8004158:	641a      	str	r2, [r3, #64]	; 0x40
 800415a:	68fb      	ldr	r3, [r7, #12]
 800415c:	2200      	movs	r2, #0
 800415e:	f883 203c 	strb.w	r2, [r3, #60]	; 0x3c
 8004162:	2301      	movs	r3, #1
 8004164:	e046      	b.n	80041f4 <I2C_WaitOnMasterAddressFlagUntilTimeout+0xf6>
 8004166:	687b      	ldr	r3, [r7, #4]
 8004168:	f1b3 3fff 	cmp.w	r3, #4294967295
 800416c:	d021      	beq.n	80041b2 <I2C_WaitOnMasterAddressFlagUntilTimeout+0xb4>
 800416e:	f7fe f8f5 	bl	800235c <HAL_GetTick>
 8004172:	4602      	mov	r2, r0
 8004174:	683b      	ldr	r3, [r7, #0]
 8004176:	1ad3      	subs	r3, r2, r3
 8004178:	687a      	ldr	r2, [r7, #4]
 800417a:	429a      	cmp	r2, r3
 800417c:	d302      	bcc.n	8004184 <I2C_WaitOnMasterAddressFlagUntilTimeout+0x86>
 800417e:	687b      	ldr	r3, [r7, #4]
 8004180:	2b00      	cmp	r3, #0
 8004182:	d116      	bne.n	80041b2 <I2C_WaitOnMasterAddressFlagUntilTimeout+0xb4>
 8004184:	68fb      	ldr	r3, [r7, #12]
 8004186:	2200      	movs	r2, #0
 8004188:	631a      	str	r2, [r3, #48]	; 0x30
 800418a:	68fb      	ldr	r3, [r7, #12]
 800418c:	2220      	movs	r2, #32
 800418e:	f883 203d 	strb.w	r2, [r3, #61]	; 0x3d
 8004192:	68fb      	ldr	r3, [r7, #12]
 8004194:	2200      	movs	r2, #0
 8004196:	f883 203e 	strb.w	r2, [r3, #62]	; 0x3e
 800419a:	68fb      	ldr	r3, [r7, #12]
 800419c:	6c1b      	ldr	r3, [r3, #64]	; 0x40
 800419e:	f043 0220 	orr.w	r2, r3, #32
 80041a2:	68fb      	ldr	r3, [r7, #12]
 80041a4:	641a      	str	r2, [r3, #64]	; 0x40
 80041a6:	68fb      	ldr	r3, [r7, #12]
 80041a8:	2200      	movs	r2, #0
 80041aa:	f883 203c 	strb.w	r2, [r3, #60]	; 0x3c
 80041ae:	2301      	movs	r3, #1
 80041b0:	e020      	b.n	80041f4 <I2C_WaitOnMasterAddressFlagUntilTimeout+0xf6>
 80041b2:	68bb      	ldr	r3, [r7, #8]
 80041b4:	0c1b      	lsrs	r3, r3, #16
 80041b6:	b2db      	uxtb	r3, r3
 80041b8:	2b01      	cmp	r3, #1
 80041ba:	d10c      	bne.n	80041d6 <I2C_WaitOnMasterAddressFlagUntilTimeout+0xd8>
 80041bc:	68fb      	ldr	r3, [r7, #12]
 80041be:	681b      	ldr	r3, [r3, #0]
 80041c0:	695b      	ldr	r3, [r3, #20]
 80041c2:	43da      	mvns	r2, r3
 80041c4:	68bb      	ldr	r3, [r7, #8]
 80041c6:	4013      	ands	r3, r2
 80041c8:	b29b      	uxth	r3, r3
 80041ca:	2b00      	cmp	r3, #0
 80041cc:	bf14      	ite	ne
 80041ce:	2301      	movne	r3, #1
 80041d0:	2300      	moveq	r3, #0
 80041d2:	b2db      	uxtb	r3, r3
 80041d4:	e00b      	b.n	80041ee <I2C_WaitOnMasterAddressFlagUntilTimeout+0xf0>
 80041d6:	68fb      	ldr	r3, [r7, #12]
 80041d8:	681b      	ldr	r3, [r3, #0]
 80041da:	699b      	ldr	r3, [r3, #24]
 80041dc:	43da      	mvns	r2, r3
 80041de:	68bb      	ldr	r3, [r7, #8]
 80041e0:	4013      	ands	r3, r2
 80041e2:	b29b      	uxth	r3, r3
 80041e4:	2b00      	cmp	r3, #0
 80041e6:	bf14      	ite	ne
 80041e8:	2301      	movne	r3, #1
 80041ea:	2300      	moveq	r3, #0
 80041ec:	b2db      	uxtb	r3, r3
 80041ee:	2b00      	cmp	r3, #0
 80041f0:	d18d      	bne.n	800410e <I2C_WaitOnMasterAddressFlagUntilTimeout+0x10>
 80041f2:	2300      	movs	r3, #0
 80041f4:	4618      	mov	r0, r3
 80041f6:	3710      	adds	r7, #16
 80041f8:	46bd      	mov	sp, r7
 80041fa:	bd80      	pop	{r7, pc}

080041fc <I2C_WaitOnTXEFlagUntilTimeout>:
 80041fc:	b580      	push	{r7, lr}
 80041fe:	b084      	sub	sp, #16
 8004200:	af00      	add	r7, sp, #0
 8004202:	60f8      	str	r0, [r7, #12]
 8004204:	60b9      	str	r1, [r7, #8]
 8004206:	607a      	str	r2, [r7, #4]
 8004208:	e02d      	b.n	8004266 <I2C_WaitOnTXEFlagUntilTimeout+0x6a>
 800420a:	68f8      	ldr	r0, [r7, #12]
 800420c:	f000 f878 	bl	8004300 <I2C_IsAcknowledgeFailed>
 8004210:	4603      	mov	r3, r0
 8004212:	2b00      	cmp	r3, #0
 8004214:	d001      	beq.n	800421a <I2C_WaitOnTXEFlagUntilTimeout+0x1e>
 8004216:	2301      	movs	r3, #1
 8004218:	e02d      	b.n	8004276 <I2C_WaitOnTXEFlagUntilTimeout+0x7a>
 800421a:	68bb      	ldr	r3, [r7, #8]
 800421c:	f1b3 3fff 	cmp.w	r3, #4294967295
 8004220:	d021      	beq.n	8004266 <I2C_WaitOnTXEFlagUntilTimeout+0x6a>
 8004222:	f7fe f89b 	bl	800235c <HAL_GetTick>
 8004226:	4602      	mov	r2, r0
 8004228:	687b      	ldr	r3, [r7, #4]
 800422a:	1ad3      	subs	r3, r2, r3
 800422c:	68ba      	ldr	r2, [r7, #8]
 800422e:	429a      	cmp	r2, r3
 8004230:	d302      	bcc.n	8004238 <I2C_WaitOnTXEFlagUntilTimeout+0x3c>
 8004232:	68bb      	ldr	r3, [r7, #8]
 8004234:	2b00      	cmp	r3, #0
 8004236:	d116      	bne.n	8004266 <I2C_WaitOnTXEFlagUntilTimeout+0x6a>
 8004238:	68fb      	ldr	r3, [r7, #12]
 800423a:	2200      	movs	r2, #0
 800423c:	631a      	str	r2, [r3, #48]	; 0x30
 800423e:	68fb      	ldr	r3, [r7, #12]
 8004240:	2220      	movs	r2, #32
 8004242:	f883 203d 	strb.w	r2, [r3, #61]	; 0x3d
 8004246:	68fb      	ldr	r3, [r7, #12]
 8004248:	2200      	movs	r2, #0
 800424a:	f883 203e 	strb.w	r2, [r3, #62]	; 0x3e
 800424e:	68fb      	ldr	r3, [r7, #12]
 8004250:	6c1b      	ldr	r3, [r3, #64]	; 0x40
 8004252:	f043 0220 	orr.w	r2, r3, #32
 8004256:	68fb      	ldr	r3, [r7, #12]
 8004258:	641a      	str	r2, [r3, #64]	; 0x40
 800425a:	68fb      	ldr	r3, [r7, #12]
 800425c:	2200      	movs	r2, #0
 800425e:	f883 203c 	strb.w	r2, [r3, #60]	; 0x3c
 8004262:	2301      	movs	r3, #1
 8004264:	e007      	b.n	8004276 <I2C_WaitOnTXEFlagUntilTimeout+0x7a>
 8004266:	68fb      	ldr	r3, [r7, #12]
 8004268:	681b      	ldr	r3, [r3, #0]
 800426a:	695b      	ldr	r3, [r3, #20]
 800426c:	f003 0380 	and.w	r3, r3, #128	; 0x80
 8004270:	2b80      	cmp	r3, #128	; 0x80
 8004272:	d1ca      	bne.n	800420a <I2C_WaitOnTXEFlagUntilTimeout+0xe>
 8004274:	2300      	movs	r3, #0
 8004276:	4618      	mov	r0, r3
 8004278:	3710      	adds	r7, #16
 800427a:	46bd      	mov	sp, r7
 800427c:	bd80      	pop	{r7, pc}

0800427e <I2C_WaitOnBTFFlagUntilTimeout>:
 800427e:	b580      	push	{r7, lr}
 8004280:	b084      	sub	sp, #16
 8004282:	af00      	add	r7, sp, #0
 8004284:	60f8      	str	r0, [r7, #12]
 8004286:	60b9      	str	r1, [r7, #8]
 8004288:	607a      	str	r2, [r7, #4]
 800428a:	e02d      	b.n	80042e8 <I2C_WaitOnBTFFlagUntilTimeout+0x6a>
 800428c:	68f8      	ldr	r0, [r7, #12]
 800428e:	f000 f837 	bl	8004300 <I2C_IsAcknowledgeFailed>
 8004292:	4603      	mov	r3, r0
 8004294:	2b00      	cmp	r3, #0
 8004296:	d001      	beq.n	800429c <I2C_WaitOnBTFFlagUntilTimeout+0x1e>
 8004298:	2301      	movs	r3, #1
 800429a:	e02d      	b.n	80042f8 <I2C_WaitOnBTFFlagUntilTimeout+0x7a>
 800429c:	68bb      	ldr	r3, [r7, #8]
 800429e:	f1b3 3fff 	cmp.w	r3, #4294967295
 80042a2:	d021      	beq.n	80042e8 <I2C_WaitOnBTFFlagUntilTimeout+0x6a>
 80042a4:	f7fe f85a 	bl	800235c <HAL_GetTick>
 80042a8:	4602      	mov	r2, r0
 80042aa:	687b      	ldr	r3, [r7, #4]
 80042ac:	1ad3      	subs	r3, r2, r3
 80042ae:	68ba      	ldr	r2, [r7, #8]
 80042b0:	429a      	cmp	r2, r3
 80042b2:	d302      	bcc.n	80042ba <I2C_WaitOnBTFFlagUntilTimeout+0x3c>
 80042b4:	68bb      	ldr	r3, [r7, #8]
 80042b6:	2b00      	cmp	r3, #0
 80042b8:	d116      	bne.n	80042e8 <I2C_WaitOnBTFFlagUntilTimeout+0x6a>
 80042ba:	68fb      	ldr	r3, [r7, #12]
 80042bc:	2200      	movs	r2, #0
 80042be:	631a      	str	r2, [r3, #48]	; 0x30
 80042c0:	68fb      	ldr	r3, [r7, #12]
 80042c2:	2220      	movs	r2, #32
 80042c4:	f883 203d 	strb.w	r2, [r3, #61]	; 0x3d
 80042c8:	68fb      	ldr	r3, [r7, #12]
 80042ca:	2200      	movs	r2, #0
 80042cc:	f883 203e 	strb.w	r2, [r3, #62]	; 0x3e
 80042d0:	68fb      	ldr	r3, [r7, #12]
 80042d2:	6c1b      	ldr	r3, [r3, #64]	; 0x40
 80042d4:	f043 0220 	orr.w	r2, r3, #32
 80042d8:	68fb      	ldr	r3, [r7, #12]
 80042da:	641a      	str	r2, [r3, #64]	; 0x40
 80042dc:	68fb      	ldr	r3, [r7, #12]
 80042de:	2200      	movs	r2, #0
 80042e0:	f883 203c 	strb.w	r2, [r3, #60]	; 0x3c
 80042e4:	2301      	movs	r3, #1
 80042e6:	e007      	b.n	80042f8 <I2C_WaitOnBTFFlagUntilTimeout+0x7a>
 80042e8:	68fb      	ldr	r3, [r7, #12]
 80042ea:	681b      	ldr	r3, [r3, #0]
 80042ec:	695b      	ldr	r3, [r3, #20]
 80042ee:	f003 0304 	and.w	r3, r3, #4
 80042f2:	2b04      	cmp	r3, #4
 80042f4:	d1ca      	bne.n	800428c <I2C_WaitOnBTFFlagUntilTimeout+0xe>
 80042f6:	2300      	movs	r3, #0
 80042f8:	4618      	mov	r0, r3
 80042fa:	3710      	adds	r7, #16
 80042fc:	46bd      	mov	sp, r7
 80042fe:	bd80      	pop	{r7, pc}

08004300 <I2C_IsAcknowledgeFailed>:
 8004300:	b480      	push	{r7}
 8004302:	b083      	sub	sp, #12
 8004304:	af00      	add	r7, sp, #0
 8004306:	6078      	str	r0, [r7, #4]
 8004308:	687b      	ldr	r3, [r7, #4]
 800430a:	681b      	ldr	r3, [r3, #0]
 800430c:	695b      	ldr	r3, [r3, #20]
 800430e:	f403 6380 	and.w	r3, r3, #1024	; 0x400
 8004312:	f5b3 6f80 	cmp.w	r3, #1024	; 0x400
 8004316:	d11b      	bne.n	8004350 <I2C_IsAcknowledgeFailed+0x50>
 8004318:	687b      	ldr	r3, [r7, #4]
 800431a:	681b      	ldr	r3, [r3, #0]
 800431c:	f46f 6280 	mvn.w	r2, #1024	; 0x400
 8004320:	615a      	str	r2, [r3, #20]
 8004322:	687b      	ldr	r3, [r7, #4]
 8004324:	2200      	movs	r2, #0
 8004326:	631a      	str	r2, [r3, #48]	; 0x30
 8004328:	687b      	ldr	r3, [r7, #4]
 800432a:	2220      	movs	r2, #32
 800432c:	f883 203d 	strb.w	r2, [r3, #61]	; 0x3d
 8004330:	687b      	ldr	r3, [r7, #4]
 8004332:	2200      	movs	r2, #0
 8004334:	f883 203e 	strb.w	r2, [r3, #62]	; 0x3e
 8004338:	687b      	ldr	r3, [r7, #4]
 800433a:	6c1b      	ldr	r3, [r3, #64]	; 0x40
 800433c:	f043 0204 	orr.w	r2, r3, #4
 8004340:	687b      	ldr	r3, [r7, #4]
 8004342:	641a      	str	r2, [r3, #64]	; 0x40
 8004344:	687b      	ldr	r3, [r7, #4]
 8004346:	2200      	movs	r2, #0
 8004348:	f883 203c 	strb.w	r2, [r3, #60]	; 0x3c
 800434c:	2301      	movs	r3, #1
 800434e:	e000      	b.n	8004352 <I2C_IsAcknowledgeFailed+0x52>
 8004350:	2300      	movs	r3, #0
 8004352:	4618      	mov	r0, r3
 8004354:	370c      	adds	r7, #12
 8004356:	46bd      	mov	sp, r7
 8004358:	f85d 7b04 	ldr.w	r7, [sp], #4
 800435c:	4770      	bx	lr
	...

08004360 <HAL_RCC_OscConfig>:
 8004360:	b580      	push	{r7, lr}
 8004362:	b086      	sub	sp, #24
 8004364:	af00      	add	r7, sp, #0
 8004366:	6078      	str	r0, [r7, #4]
 8004368:	687b      	ldr	r3, [r7, #4]
 800436a:	2b00      	cmp	r3, #0
 800436c:	d101      	bne.n	8004372 <HAL_RCC_OscConfig+0x12>
 800436e:	2301      	movs	r3, #1
 8004370:	e267      	b.n	8004842 <HAL_RCC_OscConfig+0x4e2>
 8004372:	687b      	ldr	r3, [r7, #4]
 8004374:	681b      	ldr	r3, [r3, #0]
 8004376:	f003 0301 	and.w	r3, r3, #1
 800437a:	2b00      	cmp	r3, #0
 800437c:	d075      	beq.n	800446a <HAL_RCC_OscConfig+0x10a>
 800437e:	4b88      	ldr	r3, [pc, #544]	; (80045a0 <HAL_RCC_OscConfig+0x240>)
 8004380:	689b      	ldr	r3, [r3, #8]
 8004382:	f003 030c 	and.w	r3, r3, #12
 8004386:	2b04      	cmp	r3, #4
 8004388:	d00c      	beq.n	80043a4 <HAL_RCC_OscConfig+0x44>
 800438a:	4b85      	ldr	r3, [pc, #532]	; (80045a0 <HAL_RCC_OscConfig+0x240>)
 800438c:	689b      	ldr	r3, [r3, #8]
 800438e:	f003 030c 	and.w	r3, r3, #12
 8004392:	2b08      	cmp	r3, #8
 8004394:	d112      	bne.n	80043bc <HAL_RCC_OscConfig+0x5c>
 8004396:	4b82      	ldr	r3, [pc, #520]	; (80045a0 <HAL_RCC_OscConfig+0x240>)
 8004398:	685b      	ldr	r3, [r3, #4]
 800439a:	f403 0380 	and.w	r3, r3, #4194304	; 0x400000
 800439e:	f5b3 0f80 	cmp.w	r3, #4194304	; 0x400000
 80043a2:	d10b      	bne.n	80043bc <HAL_RCC_OscConfig+0x5c>
 80043a4:	4b7e      	ldr	r3, [pc, #504]	; (80045a0 <HAL_RCC_OscConfig+0x240>)
 80043a6:	681b      	ldr	r3, [r3, #0]
 80043a8:	f403 3300 	and.w	r3, r3, #131072	; 0x20000
 80043ac:	2b00      	cmp	r3, #0
 80043ae:	d05b      	beq.n	8004468 <HAL_RCC_OscConfig+0x108>
 80043b0:	687b      	ldr	r3, [r7, #4]
 80043b2:	685b      	ldr	r3, [r3, #4]
 80043b4:	2b00      	cmp	r3, #0
 80043b6:	d157      	bne.n	8004468 <HAL_RCC_OscConfig+0x108>
 80043b8:	2301      	movs	r3, #1
 80043ba:	e242      	b.n	8004842 <HAL_RCC_OscConfig+0x4e2>
 80043bc:	687b      	ldr	r3, [r7, #4]
 80043be:	685b      	ldr	r3, [r3, #4]
 80043c0:	f5b3 3f80 	cmp.w	r3, #65536	; 0x10000
 80043c4:	d106      	bne.n	80043d4 <HAL_RCC_OscConfig+0x74>
 80043c6:	4b76      	ldr	r3, [pc, #472]	; (80045a0 <HAL_RCC_OscConfig+0x240>)
 80043c8:	681b      	ldr	r3, [r3, #0]
 80043ca:	4a75      	ldr	r2, [pc, #468]	; (80045a0 <HAL_RCC_OscConfig+0x240>)
 80043cc:	f443 3380 	orr.w	r3, r3, #65536	; 0x10000
 80043d0:	6013      	str	r3, [r2, #0]
 80043d2:	e01d      	b.n	8004410 <HAL_RCC_OscConfig+0xb0>
 80043d4:	687b      	ldr	r3, [r7, #4]
 80043d6:	685b      	ldr	r3, [r3, #4]
 80043d8:	f5b3 2fa0 	cmp.w	r3, #327680	; 0x50000
 80043dc:	d10c      	bne.n	80043f8 <HAL_RCC_OscConfig+0x98>
 80043de:	4b70      	ldr	r3, [pc, #448]	; (80045a0 <HAL_RCC_OscConfig+0x240>)
 80043e0:	681b      	ldr	r3, [r3, #0]
 80043e2:	4a6f      	ldr	r2, [pc, #444]	; (80045a0 <HAL_RCC_OscConfig+0x240>)
 80043e4:	f443 2380 	orr.w	r3, r3, #262144	; 0x40000
 80043e8:	6013      	str	r3, [r2, #0]
 80043ea:	4b6d      	ldr	r3, [pc, #436]	; (80045a0 <HAL_RCC_OscConfig+0x240>)
 80043ec:	681b      	ldr	r3, [r3, #0]
 80043ee:	4a6c      	ldr	r2, [pc, #432]	; (80045a0 <HAL_RCC_OscConfig+0x240>)
 80043f0:	f443 3380 	orr.w	r3, r3, #65536	; 0x10000
 80043f4:	6013      	str	r3, [r2, #0]
 80043f6:	e00b      	b.n	8004410 <HAL_RCC_OscConfig+0xb0>
 80043f8:	4b69      	ldr	r3, [pc, #420]	; (80045a0 <HAL_RCC_OscConfig+0x240>)
 80043fa:	681b      	ldr	r3, [r3, #0]
 80043fc:	4a68      	ldr	r2, [pc, #416]	; (80045a0 <HAL_RCC_OscConfig+0x240>)
 80043fe:	f423 3380 	bic.w	r3, r3, #65536	; 0x10000
 8004402:	6013      	str	r3, [r2, #0]
 8004404:	4b66      	ldr	r3, [pc, #408]	; (80045a0 <HAL_RCC_OscConfig+0x240>)
 8004406:	681b      	ldr	r3, [r3, #0]
 8004408:	4a65      	ldr	r2, [pc, #404]	; (80045a0 <HAL_RCC_OscConfig+0x240>)
 800440a:	f423 2380 	bic.w	r3, r3, #262144	; 0x40000
 800440e:	6013      	str	r3, [r2, #0]
 8004410:	687b      	ldr	r3, [r7, #4]
 8004412:	685b      	ldr	r3, [r3, #4]
 8004414:	2b00      	cmp	r3, #0
 8004416:	d013      	beq.n	8004440 <HAL_RCC_OscConfig+0xe0>
 8004418:	f7fd ffa0 	bl	800235c <HAL_GetTick>
 800441c:	6138      	str	r0, [r7, #16]
 800441e:	e008      	b.n	8004432 <HAL_RCC_OscConfig+0xd2>
 8004420:	f7fd ff9c 	bl	800235c <HAL_GetTick>
 8004424:	4602      	mov	r2, r0
 8004426:	693b      	ldr	r3, [r7, #16]
 8004428:	1ad3      	subs	r3, r2, r3
 800442a:	2b64      	cmp	r3, #100	; 0x64
 800442c:	d901      	bls.n	8004432 <HAL_RCC_OscConfig+0xd2>
 800442e:	2303      	movs	r3, #3
 8004430:	e207      	b.n	8004842 <HAL_RCC_OscConfig+0x4e2>
 8004432:	4b5b      	ldr	r3, [pc, #364]	; (80045a0 <HAL_RCC_OscConfig+0x240>)
 8004434:	681b      	ldr	r3, [r3, #0]
 8004436:	f403 3300 	and.w	r3, r3, #131072	; 0x20000
 800443a:	2b00      	cmp	r3, #0
 800443c:	d0f0      	beq.n	8004420 <HAL_RCC_OscConfig+0xc0>
 800443e:	e014      	b.n	800446a <HAL_RCC_OscConfig+0x10a>
 8004440:	f7fd ff8c 	bl	800235c <HAL_GetTick>
 8004444:	6138      	str	r0, [r7, #16]
 8004446:	e008      	b.n	800445a <HAL_RCC_OscConfig+0xfa>
 8004448:	f7fd ff88 	bl	800235c <HAL_GetTick>
 800444c:	4602      	mov	r2, r0
 800444e:	693b      	ldr	r3, [r7, #16]
 8004450:	1ad3      	subs	r3, r2, r3
 8004452:	2b64      	cmp	r3, #100	; 0x64
 8004454:	d901      	bls.n	800445a <HAL_RCC_OscConfig+0xfa>
 8004456:	2303      	movs	r3, #3
 8004458:	e1f3      	b.n	8004842 <HAL_RCC_OscConfig+0x4e2>
 800445a:	4b51      	ldr	r3, [pc, #324]	; (80045a0 <HAL_RCC_OscConfig+0x240>)
 800445c:	681b      	ldr	r3, [r3, #0]
 800445e:	f403 3300 	and.w	r3, r3, #131072	; 0x20000
 8004462:	2b00      	cmp	r3, #0
 8004464:	d1f0      	bne.n	8004448 <HAL_RCC_OscConfig+0xe8>
 8004466:	e000      	b.n	800446a <HAL_RCC_OscConfig+0x10a>
 8004468:	bf00      	nop
 800446a:	687b      	ldr	r3, [r7, #4]
 800446c:	681b      	ldr	r3, [r3, #0]
 800446e:	f003 0302 	and.w	r3, r3, #2
 8004472:	2b00      	cmp	r3, #0
 8004474:	d063      	beq.n	800453e <HAL_RCC_OscConfig+0x1de>
 8004476:	4b4a      	ldr	r3, [pc, #296]	; (80045a0 <HAL_RCC_OscConfig+0x240>)
 8004478:	689b      	ldr	r3, [r3, #8]
 800447a:	f003 030c 	and.w	r3, r3, #12
 800447e:	2b00      	cmp	r3, #0
 8004480:	d00b      	beq.n	800449a <HAL_RCC_OscConfig+0x13a>
 8004482:	4b47      	ldr	r3, [pc, #284]	; (80045a0 <HAL_RCC_OscConfig+0x240>)
 8004484:	689b      	ldr	r3, [r3, #8]
 8004486:	f003 030c 	and.w	r3, r3, #12
 800448a:	2b08      	cmp	r3, #8
 800448c:	d11c      	bne.n	80044c8 <HAL_RCC_OscConfig+0x168>
 800448e:	4b44      	ldr	r3, [pc, #272]	; (80045a0 <HAL_RCC_OscConfig+0x240>)
 8004490:	685b      	ldr	r3, [r3, #4]
 8004492:	f403 0380 	and.w	r3, r3, #4194304	; 0x400000
 8004496:	2b00      	cmp	r3, #0
 8004498:	d116      	bne.n	80044c8 <HAL_RCC_OscConfig+0x168>
 800449a:	4b41      	ldr	r3, [pc, #260]	; (80045a0 <HAL_RCC_OscConfig+0x240>)
 800449c:	681b      	ldr	r3, [r3, #0]
 800449e:	f003 0302 	and.w	r3, r3, #2
 80044a2:	2b00      	cmp	r3, #0
 80044a4:	d005      	beq.n	80044b2 <HAL_RCC_OscConfig+0x152>
 80044a6:	687b      	ldr	r3, [r7, #4]
 80044a8:	68db      	ldr	r3, [r3, #12]
 80044aa:	2b01      	cmp	r3, #1
 80044ac:	d001      	beq.n	80044b2 <HAL_RCC_OscConfig+0x152>
 80044ae:	2301      	movs	r3, #1
 80044b0:	e1c7      	b.n	8004842 <HAL_RCC_OscConfig+0x4e2>
 80044b2:	4b3b      	ldr	r3, [pc, #236]	; (80045a0 <HAL_RCC_OscConfig+0x240>)
 80044b4:	681b      	ldr	r3, [r3, #0]
 80044b6:	f023 02f8 	bic.w	r2, r3, #248	; 0xf8
 80044ba:	687b      	ldr	r3, [r7, #4]
 80044bc:	691b      	ldr	r3, [r3, #16]
 80044be:	00db      	lsls	r3, r3, #3
 80044c0:	4937      	ldr	r1, [pc, #220]	; (80045a0 <HAL_RCC_OscConfig+0x240>)
 80044c2:	4313      	orrs	r3, r2
 80044c4:	600b      	str	r3, [r1, #0]
 80044c6:	e03a      	b.n	800453e <HAL_RCC_OscConfig+0x1de>
 80044c8:	687b      	ldr	r3, [r7, #4]
 80044ca:	68db      	ldr	r3, [r3, #12]
 80044cc:	2b00      	cmp	r3, #0
 80044ce:	d020      	beq.n	8004512 <HAL_RCC_OscConfig+0x1b2>
 80044d0:	4b34      	ldr	r3, [pc, #208]	; (80045a4 <HAL_RCC_OscConfig+0x244>)
 80044d2:	2201      	movs	r2, #1
 80044d4:	601a      	str	r2, [r3, #0]
 80044d6:	f7fd ff41 	bl	800235c <HAL_GetTick>
 80044da:	6138      	str	r0, [r7, #16]
 80044dc:	e008      	b.n	80044f0 <HAL_RCC_OscConfig+0x190>
 80044de:	f7fd ff3d 	bl	800235c <HAL_GetTick>
 80044e2:	4602      	mov	r2, r0
 80044e4:	693b      	ldr	r3, [r7, #16]
 80044e6:	1ad3      	subs	r3, r2, r3
 80044e8:	2b02      	cmp	r3, #2
 80044ea:	d901      	bls.n	80044f0 <HAL_RCC_OscConfig+0x190>
 80044ec:	2303      	movs	r3, #3
 80044ee:	e1a8      	b.n	8004842 <HAL_RCC_OscConfig+0x4e2>
 80044f0:	4b2b      	ldr	r3, [pc, #172]	; (80045a0 <HAL_RCC_OscConfig+0x240>)
 80044f2:	681b      	ldr	r3, [r3, #0]
 80044f4:	f003 0302 	and.w	r3, r3, #2
 80044f8:	2b00      	cmp	r3, #0
 80044fa:	d0f0      	beq.n	80044de <HAL_RCC_OscConfig+0x17e>
 80044fc:	4b28      	ldr	r3, [pc, #160]	; (80045a0 <HAL_RCC_OscConfig+0x240>)
 80044fe:	681b      	ldr	r3, [r3, #0]
 8004500:	f023 02f8 	bic.w	r2, r3, #248	; 0xf8
 8004504:	687b      	ldr	r3, [r7, #4]
 8004506:	691b      	ldr	r3, [r3, #16]
 8004508:	00db      	lsls	r3, r3, #3
 800450a:	4925      	ldr	r1, [pc, #148]	; (80045a0 <HAL_RCC_OscConfig+0x240>)
 800450c:	4313      	orrs	r3, r2
 800450e:	600b      	str	r3, [r1, #0]
 8004510:	e015      	b.n	800453e <HAL_RCC_OscConfig+0x1de>
 8004512:	4b24      	ldr	r3, [pc, #144]	; (80045a4 <HAL_RCC_OscConfig+0x244>)
 8004514:	2200      	movs	r2, #0
 8004516:	601a      	str	r2, [r3, #0]
 8004518:	f7fd ff20 	bl	800235c <HAL_GetTick>
 800451c:	6138      	str	r0, [r7, #16]
 800451e:	e008      	b.n	8004532 <HAL_RCC_OscConfig+0x1d2>
 8004520:	f7fd ff1c 	bl	800235c <HAL_GetTick>
 8004524:	4602      	mov	r2, r0
 8004526:	693b      	ldr	r3, [r7, #16]
 8004528:	1ad3      	subs	r3, r2, r3
 800452a:	2b02      	cmp	r3, #2
 800452c:	d901      	bls.n	8004532 <HAL_RCC_OscConfig+0x1d2>
 800452e:	2303      	movs	r3, #3
 8004530:	e187      	b.n	8004842 <HAL_RCC_OscConfig+0x4e2>
 8004532:	4b1b      	ldr	r3, [pc, #108]	; (80045a0 <HAL_RCC_OscConfig+0x240>)
 8004534:	681b      	ldr	r3, [r3, #0]
 8004536:	f003 0302 	and.w	r3, r3, #2
 800453a:	2b00      	cmp	r3, #0
 800453c:	d1f0      	bne.n	8004520 <HAL_RCC_OscConfig+0x1c0>
 800453e:	687b      	ldr	r3, [r7, #4]
 8004540:	681b      	ldr	r3, [r3, #0]
 8004542:	f003 0308 	and.w	r3, r3, #8
 8004546:	2b00      	cmp	r3, #0
 8004548:	d036      	beq.n	80045b8 <HAL_RCC_OscConfig+0x258>
 800454a:	687b      	ldr	r3, [r7, #4]
 800454c:	695b      	ldr	r3, [r3, #20]
 800454e:	2b00      	cmp	r3, #0
 8004550:	d016      	beq.n	8004580 <HAL_RCC_OscConfig+0x220>
 8004552:	4b15      	ldr	r3, [pc, #84]	; (80045a8 <HAL_RCC_OscConfig+0x248>)
 8004554:	2201      	movs	r2, #1
 8004556:	601a      	str	r2, [r3, #0]
 8004558:	f7fd ff00 	bl	800235c <HAL_GetTick>
 800455c:	6138      	str	r0, [r7, #16]
 800455e:	e008      	b.n	8004572 <HAL_RCC_OscConfig+0x212>
 8004560:	f7fd fefc 	bl	800235c <HAL_GetTick>
 8004564:	4602      	mov	r2, r0
 8004566:	693b      	ldr	r3, [r7, #16]
 8004568:	1ad3      	subs	r3, r2, r3
 800456a:	2b02      	cmp	r3, #2
 800456c:	d901      	bls.n	8004572 <HAL_RCC_OscConfig+0x212>
 800456e:	2303      	movs	r3, #3
 8004570:	e167      	b.n	8004842 <HAL_RCC_OscConfig+0x4e2>
 8004572:	4b0b      	ldr	r3, [pc, #44]	; (80045a0 <HAL_RCC_OscConfig+0x240>)
 8004574:	6f5b      	ldr	r3, [r3, #116]	; 0x74
 8004576:	f003 0302 	and.w	r3, r3, #2
 800457a:	2b00      	cmp	r3, #0
 800457c:	d0f0      	beq.n	8004560 <HAL_RCC_OscConfig+0x200>
 800457e:	e01b      	b.n	80045b8 <HAL_RCC_OscConfig+0x258>
 8004580:	4b09      	ldr	r3, [pc, #36]	; (80045a8 <HAL_RCC_OscConfig+0x248>)
 8004582:	2200      	movs	r2, #0
 8004584:	601a      	str	r2, [r3, #0]
 8004586:	f7fd fee9 	bl	800235c <HAL_GetTick>
 800458a:	6138      	str	r0, [r7, #16]
 800458c:	e00e      	b.n	80045ac <HAL_RCC_OscConfig+0x24c>
 800458e:	f7fd fee5 	bl	800235c <HAL_GetTick>
 8004592:	4602      	mov	r2, r0
 8004594:	693b      	ldr	r3, [r7, #16]
 8004596:	1ad3      	subs	r3, r2, r3
 8004598:	2b02      	cmp	r3, #2
 800459a:	d907      	bls.n	80045ac <HAL_RCC_OscConfig+0x24c>
 800459c:	2303      	movs	r3, #3
 800459e:	e150      	b.n	8004842 <HAL_RCC_OscConfig+0x4e2>
 80045a0:	40023800 	.word	0x40023800
 80045a4:	42470000 	.word	0x42470000
 80045a8:	42470e80 	.word	0x42470e80
 80045ac:	4b88      	ldr	r3, [pc, #544]	; (80047d0 <HAL_RCC_OscConfig+0x470>)
 80045ae:	6f5b      	ldr	r3, [r3, #116]	; 0x74
 80045b0:	f003 0302 	and.w	r3, r3, #2
 80045b4:	2b00      	cmp	r3, #0
 80045b6:	d1ea      	bne.n	800458e <HAL_RCC_OscConfig+0x22e>
 80045b8:	687b      	ldr	r3, [r7, #4]
 80045ba:	681b      	ldr	r3, [r3, #0]
 80045bc:	f003 0304 	and.w	r3, r3, #4
 80045c0:	2b00      	cmp	r3, #0
 80045c2:	f000 8097 	beq.w	80046f4 <HAL_RCC_OscConfig+0x394>
 80045c6:	2300      	movs	r3, #0
 80045c8:	75fb      	strb	r3, [r7, #23]
 80045ca:	4b81      	ldr	r3, [pc, #516]	; (80047d0 <HAL_RCC_OscConfig+0x470>)
 80045cc:	6c1b      	ldr	r3, [r3, #64]	; 0x40
 80045ce:	f003 5380 	and.w	r3, r3, #268435456	; 0x10000000
 80045d2:	2b00      	cmp	r3, #0
 80045d4:	d10f      	bne.n	80045f6 <HAL_RCC_OscConfig+0x296>
 80045d6:	2300      	movs	r3, #0
 80045d8:	60bb      	str	r3, [r7, #8]
 80045da:	4b7d      	ldr	r3, [pc, #500]	; (80047d0 <HAL_RCC_OscConfig+0x470>)
 80045dc:	6c1b      	ldr	r3, [r3, #64]	; 0x40
 80045de:	4a7c      	ldr	r2, [pc, #496]	; (80047d0 <HAL_RCC_OscConfig+0x470>)
 80045e0:	f043 5380 	orr.w	r3, r3, #268435456	; 0x10000000
 80045e4:	6413      	str	r3, [r2, #64]	; 0x40
 80045e6:	4b7a      	ldr	r3, [pc, #488]	; (80047d0 <HAL_RCC_OscConfig+0x470>)
 80045e8:	6c1b      	ldr	r3, [r3, #64]	; 0x40
 80045ea:	f003 5380 	and.w	r3, r3, #268435456	; 0x10000000
 80045ee:	60bb      	str	r3, [r7, #8]
 80045f0:	68bb      	ldr	r3, [r7, #8]
 80045f2:	2301      	movs	r3, #1
 80045f4:	75fb      	strb	r3, [r7, #23]
 80045f6:	4b77      	ldr	r3, [pc, #476]	; (80047d4 <HAL_RCC_OscConfig+0x474>)
 80045f8:	681b      	ldr	r3, [r3, #0]
 80045fa:	f403 7380 	and.w	r3, r3, #256	; 0x100
 80045fe:	2b00      	cmp	r3, #0
 8004600:	d118      	bne.n	8004634 <HAL_RCC_OscConfig+0x2d4>
 8004602:	4b74      	ldr	r3, [pc, #464]	; (80047d4 <HAL_RCC_OscConfig+0x474>)
 8004604:	681b      	ldr	r3, [r3, #0]
 8004606:	4a73      	ldr	r2, [pc, #460]	; (80047d4 <HAL_RCC_OscConfig+0x474>)
 8004608:	f443 7380 	orr.w	r3, r3, #256	; 0x100
 800460c:	6013      	str	r3, [r2, #0]
 800460e:	f7fd fea5 	bl	800235c <HAL_GetTick>
 8004612:	6138      	str	r0, [r7, #16]
 8004614:	e008      	b.n	8004628 <HAL_RCC_OscConfig+0x2c8>
 8004616:	f7fd fea1 	bl	800235c <HAL_GetTick>
 800461a:	4602      	mov	r2, r0
 800461c:	693b      	ldr	r3, [r7, #16]
 800461e:	1ad3      	subs	r3, r2, r3
 8004620:	2b02      	cmp	r3, #2
 8004622:	d901      	bls.n	8004628 <HAL_RCC_OscConfig+0x2c8>
 8004624:	2303      	movs	r3, #3
 8004626:	e10c      	b.n	8004842 <HAL_RCC_OscConfig+0x4e2>
 8004628:	4b6a      	ldr	r3, [pc, #424]	; (80047d4 <HAL_RCC_OscConfig+0x474>)
 800462a:	681b      	ldr	r3, [r3, #0]
 800462c:	f403 7380 	and.w	r3, r3, #256	; 0x100
 8004630:	2b00      	cmp	r3, #0
 8004632:	d0f0      	beq.n	8004616 <HAL_RCC_OscConfig+0x2b6>
 8004634:	687b      	ldr	r3, [r7, #4]
 8004636:	689b      	ldr	r3, [r3, #8]
 8004638:	2b01      	cmp	r3, #1
 800463a:	d106      	bne.n	800464a <HAL_RCC_OscConfig+0x2ea>
 800463c:	4b64      	ldr	r3, [pc, #400]	; (80047d0 <HAL_RCC_OscConfig+0x470>)
 800463e:	6f1b      	ldr	r3, [r3, #112]	; 0x70
 8004640:	4a63      	ldr	r2, [pc, #396]	; (80047d0 <HAL_RCC_OscConfig+0x470>)
 8004642:	f043 0301 	orr.w	r3, r3, #1
 8004646:	6713      	str	r3, [r2, #112]	; 0x70
 8004648:	e01c      	b.n	8004684 <HAL_RCC_OscConfig+0x324>
 800464a:	687b      	ldr	r3, [r7, #4]
 800464c:	689b      	ldr	r3, [r3, #8]
 800464e:	2b05      	cmp	r3, #5
 8004650:	d10c      	bne.n	800466c <HAL_RCC_OscConfig+0x30c>
 8004652:	4b5f      	ldr	r3, [pc, #380]	; (80047d0 <HAL_RCC_OscConfig+0x470>)
 8004654:	6f1b      	ldr	r3, [r3, #112]	; 0x70
 8004656:	4a5e      	ldr	r2, [pc, #376]	; (80047d0 <HAL_RCC_OscConfig+0x470>)
 8004658:	f043 0304 	orr.w	r3, r3, #4
 800465c:	6713      	str	r3, [r2, #112]	; 0x70
 800465e:	4b5c      	ldr	r3, [pc, #368]	; (80047d0 <HAL_RCC_OscConfig+0x470>)
 8004660:	6f1b      	ldr	r3, [r3, #112]	; 0x70
 8004662:	4a5b      	ldr	r2, [pc, #364]	; (80047d0 <HAL_RCC_OscConfig+0x470>)
 8004664:	f043 0301 	orr.w	r3, r3, #1
 8004668:	6713      	str	r3, [r2, #112]	; 0x70
 800466a:	e00b      	b.n	8004684 <HAL_RCC_OscConfig+0x324>
 800466c:	4b58      	ldr	r3, [pc, #352]	; (80047d0 <HAL_RCC_OscConfig+0x470>)
 800466e:	6f1b      	ldr	r3, [r3, #112]	; 0x70
 8004670:	4a57      	ldr	r2, [pc, #348]	; (80047d0 <HAL_RCC_OscConfig+0x470>)
 8004672:	f023 0301 	bic.w	r3, r3, #1
 8004676:	6713      	str	r3, [r2, #112]	; 0x70
 8004678:	4b55      	ldr	r3, [pc, #340]	; (80047d0 <HAL_RCC_OscConfig+0x470>)
 800467a:	6f1b      	ldr	r3, [r3, #112]	; 0x70
 800467c:	4a54      	ldr	r2, [pc, #336]	; (80047d0 <HAL_RCC_OscConfig+0x470>)
 800467e:	f023 0304 	bic.w	r3, r3, #4
 8004682:	6713      	str	r3, [r2, #112]	; 0x70
 8004684:	687b      	ldr	r3, [r7, #4]
 8004686:	689b      	ldr	r3, [r3, #8]
 8004688:	2b00      	cmp	r3, #0
 800468a:	d015      	beq.n	80046b8 <HAL_RCC_OscConfig+0x358>
 800468c:	f7fd fe66 	bl	800235c <HAL_GetTick>
 8004690:	6138      	str	r0, [r7, #16]
 8004692:	e00a      	b.n	80046aa <HAL_RCC_OscConfig+0x34a>
 8004694:	f7fd fe62 	bl	800235c <HAL_GetTick>
 8004698:	4602      	mov	r2, r0
 800469a:	693b      	ldr	r3, [r7, #16]
 800469c:	1ad3      	subs	r3, r2, r3
 800469e:	f241 3288 	movw	r2, #5000	; 0x1388
 80046a2:	4293      	cmp	r3, r2
 80046a4:	d901      	bls.n	80046aa <HAL_RCC_OscConfig+0x34a>
 80046a6:	2303      	movs	r3, #3
 80046a8:	e0cb      	b.n	8004842 <HAL_RCC_OscConfig+0x4e2>
 80046aa:	4b49      	ldr	r3, [pc, #292]	; (80047d0 <HAL_RCC_OscConfig+0x470>)
 80046ac:	6f1b      	ldr	r3, [r3, #112]	; 0x70
 80046ae:	f003 0302 	and.w	r3, r3, #2
 80046b2:	2b00      	cmp	r3, #0
 80046b4:	d0ee      	beq.n	8004694 <HAL_RCC_OscConfig+0x334>
 80046b6:	e014      	b.n	80046e2 <HAL_RCC_OscConfig+0x382>
 80046b8:	f7fd fe50 	bl	800235c <HAL_GetTick>
 80046bc:	6138      	str	r0, [r7, #16]
 80046be:	e00a      	b.n	80046d6 <HAL_RCC_OscConfig+0x376>
 80046c0:	f7fd fe4c 	bl	800235c <HAL_GetTick>
 80046c4:	4602      	mov	r2, r0
 80046c6:	693b      	ldr	r3, [r7, #16]
 80046c8:	1ad3      	subs	r3, r2, r3
 80046ca:	f241 3288 	movw	r2, #5000	; 0x1388
 80046ce:	4293      	cmp	r3, r2
 80046d0:	d901      	bls.n	80046d6 <HAL_RCC_OscConfig+0x376>
 80046d2:	2303      	movs	r3, #3
 80046d4:	e0b5      	b.n	8004842 <HAL_RCC_OscConfig+0x4e2>
 80046d6:	4b3e      	ldr	r3, [pc, #248]	; (80047d0 <HAL_RCC_OscConfig+0x470>)
 80046d8:	6f1b      	ldr	r3, [r3, #112]	; 0x70
 80046da:	f003 0302 	and.w	r3, r3, #2
 80046de:	2b00      	cmp	r3, #0
 80046e0:	d1ee      	bne.n	80046c0 <HAL_RCC_OscConfig+0x360>
 80046e2:	7dfb      	ldrb	r3, [r7, #23]
 80046e4:	2b01      	cmp	r3, #1
 80046e6:	d105      	bne.n	80046f4 <HAL_RCC_OscConfig+0x394>
 80046e8:	4b39      	ldr	r3, [pc, #228]	; (80047d0 <HAL_RCC_OscConfig+0x470>)
 80046ea:	6c1b      	ldr	r3, [r3, #64]	; 0x40
 80046ec:	4a38      	ldr	r2, [pc, #224]	; (80047d0 <HAL_RCC_OscConfig+0x470>)
 80046ee:	f023 5380 	bic.w	r3, r3, #268435456	; 0x10000000
 80046f2:	6413      	str	r3, [r2, #64]	; 0x40
 80046f4:	687b      	ldr	r3, [r7, #4]
 80046f6:	699b      	ldr	r3, [r3, #24]
 80046f8:	2b00      	cmp	r3, #0
 80046fa:	f000 80a1 	beq.w	8004840 <HAL_RCC_OscConfig+0x4e0>
 80046fe:	4b34      	ldr	r3, [pc, #208]	; (80047d0 <HAL_RCC_OscConfig+0x470>)
 8004700:	689b      	ldr	r3, [r3, #8]
 8004702:	f003 030c 	and.w	r3, r3, #12
 8004706:	2b08      	cmp	r3, #8
 8004708:	d05c      	beq.n	80047c4 <HAL_RCC_OscConfig+0x464>
 800470a:	687b      	ldr	r3, [r7, #4]
 800470c:	699b      	ldr	r3, [r3, #24]
 800470e:	2b02      	cmp	r3, #2
 8004710:	d141      	bne.n	8004796 <HAL_RCC_OscConfig+0x436>
 8004712:	4b31      	ldr	r3, [pc, #196]	; (80047d8 <HAL_RCC_OscConfig+0x478>)
 8004714:	2200      	movs	r2, #0
 8004716:	601a      	str	r2, [r3, #0]
 8004718:	f7fd fe20 	bl	800235c <HAL_GetTick>
 800471c:	6138      	str	r0, [r7, #16]
 800471e:	e008      	b.n	8004732 <HAL_RCC_OscConfig+0x3d2>
 8004720:	f7fd fe1c 	bl	800235c <HAL_GetTick>
 8004724:	4602      	mov	r2, r0
 8004726:	693b      	ldr	r3, [r7, #16]
 8004728:	1ad3      	subs	r3, r2, r3
 800472a:	2b02      	cmp	r3, #2
 800472c:	d901      	bls.n	8004732 <HAL_RCC_OscConfig+0x3d2>
 800472e:	2303      	movs	r3, #3
 8004730:	e087      	b.n	8004842 <HAL_RCC_OscConfig+0x4e2>
 8004732:	4b27      	ldr	r3, [pc, #156]	; (80047d0 <HAL_RCC_OscConfig+0x470>)
 8004734:	681b      	ldr	r3, [r3, #0]
 8004736:	f003 7300 	and.w	r3, r3, #33554432	; 0x2000000
 800473a:	2b00      	cmp	r3, #0
 800473c:	d1f0      	bne.n	8004720 <HAL_RCC_OscConfig+0x3c0>
 800473e:	687b      	ldr	r3, [r7, #4]
 8004740:	69da      	ldr	r2, [r3, #28]
 8004742:	687b      	ldr	r3, [r7, #4]
 8004744:	6a1b      	ldr	r3, [r3, #32]
 8004746:	431a      	orrs	r2, r3
 8004748:	687b      	ldr	r3, [r7, #4]
 800474a:	6a5b      	ldr	r3, [r3, #36]	; 0x24
 800474c:	019b      	lsls	r3, r3, #6
 800474e:	431a      	orrs	r2, r3
 8004750:	687b      	ldr	r3, [r7, #4]
 8004752:	6a9b      	ldr	r3, [r3, #40]	; 0x28
 8004754:	085b      	lsrs	r3, r3, #1
 8004756:	3b01      	subs	r3, #1
 8004758:	041b      	lsls	r3, r3, #16
 800475a:	431a      	orrs	r2, r3
 800475c:	687b      	ldr	r3, [r7, #4]
 800475e:	6adb      	ldr	r3, [r3, #44]	; 0x2c
 8004760:	061b      	lsls	r3, r3, #24
 8004762:	491b      	ldr	r1, [pc, #108]	; (80047d0 <HAL_RCC_OscConfig+0x470>)
 8004764:	4313      	orrs	r3, r2
 8004766:	604b      	str	r3, [r1, #4]
 8004768:	4b1b      	ldr	r3, [pc, #108]	; (80047d8 <HAL_RCC_OscConfig+0x478>)
 800476a:	2201      	movs	r2, #1
 800476c:	601a      	str	r2, [r3, #0]
 800476e:	f7fd fdf5 	bl	800235c <HAL_GetTick>
 8004772:	6138      	str	r0, [r7, #16]
 8004774:	e008      	b.n	8004788 <HAL_RCC_OscConfig+0x428>
 8004776:	f7fd fdf1 	bl	800235c <HAL_GetTick>
 800477a:	4602      	mov	r2, r0
 800477c:	693b      	ldr	r3, [r7, #16]
 800477e:	1ad3      	subs	r3, r2, r3
 8004780:	2b02      	cmp	r3, #2
 8004782:	d901      	bls.n	8004788 <HAL_RCC_OscConfig+0x428>
 8004784:	2303      	movs	r3, #3
 8004786:	e05c      	b.n	8004842 <HAL_RCC_OscConfig+0x4e2>
 8004788:	4b11      	ldr	r3, [pc, #68]	; (80047d0 <HAL_RCC_OscConfig+0x470>)
 800478a:	681b      	ldr	r3, [r3, #0]
 800478c:	f003 7300 	and.w	r3, r3, #33554432	; 0x2000000
 8004790:	2b00      	cmp	r3, #0
 8004792:	d0f0      	beq.n	8004776 <HAL_RCC_OscConfig+0x416>
 8004794:	e054      	b.n	8004840 <HAL_RCC_OscConfig+0x4e0>
 8004796:	4b10      	ldr	r3, [pc, #64]	; (80047d8 <HAL_RCC_OscConfig+0x478>)
 8004798:	2200      	movs	r2, #0
 800479a:	601a      	str	r2, [r3, #0]
 800479c:	f7fd fdde 	bl	800235c <HAL_GetTick>
 80047a0:	6138      	str	r0, [r7, #16]
 80047a2:	e008      	b.n	80047b6 <HAL_RCC_OscConfig+0x456>
 80047a4:	f7fd fdda 	bl	800235c <HAL_GetTick>
 80047a8:	4602      	mov	r2, r0
 80047aa:	693b      	ldr	r3, [r7, #16]
 80047ac:	1ad3      	subs	r3, r2, r3
 80047ae:	2b02      	cmp	r3, #2
 80047b0:	d901      	bls.n	80047b6 <HAL_RCC_OscConfig+0x456>
 80047b2:	2303      	movs	r3, #3
 80047b4:	e045      	b.n	8004842 <HAL_RCC_OscConfig+0x4e2>
 80047b6:	4b06      	ldr	r3, [pc, #24]	; (80047d0 <HAL_RCC_OscConfig+0x470>)
 80047b8:	681b      	ldr	r3, [r3, #0]
 80047ba:	f003 7300 	and.w	r3, r3, #33554432	; 0x2000000
 80047be:	2b00      	cmp	r3, #0
 80047c0:	d1f0      	bne.n	80047a4 <HAL_RCC_OscConfig+0x444>
 80047c2:	e03d      	b.n	8004840 <HAL_RCC_OscConfig+0x4e0>
 80047c4:	687b      	ldr	r3, [r7, #4]
 80047c6:	699b      	ldr	r3, [r3, #24]
 80047c8:	2b01      	cmp	r3, #1
 80047ca:	d107      	bne.n	80047dc <HAL_RCC_OscConfig+0x47c>
 80047cc:	2301      	movs	r3, #1
 80047ce:	e038      	b.n	8004842 <HAL_RCC_OscConfig+0x4e2>
 80047d0:	40023800 	.word	0x40023800
 80047d4:	40007000 	.word	0x40007000
 80047d8:	42470060 	.word	0x42470060
 80047dc:	4b1b      	ldr	r3, [pc, #108]	; (800484c <HAL_RCC_OscConfig+0x4ec>)
 80047de:	685b      	ldr	r3, [r3, #4]
 80047e0:	60fb      	str	r3, [r7, #12]
 80047e2:	687b      	ldr	r3, [r7, #4]
 80047e4:	699b      	ldr	r3, [r3, #24]
 80047e6:	2b01      	cmp	r3, #1
 80047e8:	d028      	beq.n	800483c <HAL_RCC_OscConfig+0x4dc>
 80047ea:	68fb      	ldr	r3, [r7, #12]
 80047ec:	f403 0280 	and.w	r2, r3, #4194304	; 0x400000
 80047f0:	687b      	ldr	r3, [r7, #4]
 80047f2:	69db      	ldr	r3, [r3, #28]
 80047f4:	429a      	cmp	r2, r3
 80047f6:	d121      	bne.n	800483c <HAL_RCC_OscConfig+0x4dc>
 80047f8:	68fb      	ldr	r3, [r7, #12]
 80047fa:	f003 023f 	and.w	r2, r3, #63	; 0x3f
 80047fe:	687b      	ldr	r3, [r7, #4]
 8004800:	6a1b      	ldr	r3, [r3, #32]
 8004802:	429a      	cmp	r2, r3
 8004804:	d11a      	bne.n	800483c <HAL_RCC_OscConfig+0x4dc>
 8004806:	68fa      	ldr	r2, [r7, #12]
 8004808:	f647 73c0 	movw	r3, #32704	; 0x7fc0
 800480c:	4013      	ands	r3, r2
 800480e:	687a      	ldr	r2, [r7, #4]
 8004810:	6a52      	ldr	r2, [r2, #36]	; 0x24
 8004812:	0192      	lsls	r2, r2, #6
 8004814:	4293      	cmp	r3, r2
 8004816:	d111      	bne.n	800483c <HAL_RCC_OscConfig+0x4dc>
 8004818:	68fb      	ldr	r3, [r7, #12]
 800481a:	f403 3240 	and.w	r2, r3, #196608	; 0x30000
 800481e:	687b      	ldr	r3, [r7, #4]
 8004820:	6a9b      	ldr	r3, [r3, #40]	; 0x28
 8004822:	085b      	lsrs	r3, r3, #1
 8004824:	3b01      	subs	r3, #1
 8004826:	041b      	lsls	r3, r3, #16
 8004828:	429a      	cmp	r2, r3
 800482a:	d107      	bne.n	800483c <HAL_RCC_OscConfig+0x4dc>
 800482c:	68fb      	ldr	r3, [r7, #12]
 800482e:	f003 6270 	and.w	r2, r3, #251658240	; 0xf000000
 8004832:	687b      	ldr	r3, [r7, #4]
 8004834:	6adb      	ldr	r3, [r3, #44]	; 0x2c
 8004836:	061b      	lsls	r3, r3, #24
 8004838:	429a      	cmp	r2, r3
 800483a:	d001      	beq.n	8004840 <HAL_RCC_OscConfig+0x4e0>
 800483c:	2301      	movs	r3, #1
 800483e:	e000      	b.n	8004842 <HAL_RCC_OscConfig+0x4e2>
 8004840:	2300      	movs	r3, #0
 8004842:	4618      	mov	r0, r3
 8004844:	3718      	adds	r7, #24
 8004846:	46bd      	mov	sp, r7
 8004848:	bd80      	pop	{r7, pc}
 800484a:	bf00      	nop
 800484c:	40023800 	.word	0x40023800

08004850 <HAL_RCC_ClockConfig>:
 8004850:	b580      	push	{r7, lr}
 8004852:	b084      	sub	sp, #16
 8004854:	af00      	add	r7, sp, #0
 8004856:	6078      	str	r0, [r7, #4]
 8004858:	6039      	str	r1, [r7, #0]
 800485a:	687b      	ldr	r3, [r7, #4]
 800485c:	2b00      	cmp	r3, #0
 800485e:	d101      	bne.n	8004864 <HAL_RCC_ClockConfig+0x14>
 8004860:	2301      	movs	r3, #1
 8004862:	e0cc      	b.n	80049fe <HAL_RCC_ClockConfig+0x1ae>
 8004864:	4b68      	ldr	r3, [pc, #416]	; (8004a08 <HAL_RCC_ClockConfig+0x1b8>)
 8004866:	681b      	ldr	r3, [r3, #0]
 8004868:	f003 0307 	and.w	r3, r3, #7
 800486c:	683a      	ldr	r2, [r7, #0]
 800486e:	429a      	cmp	r2, r3
 8004870:	d90c      	bls.n	800488c <HAL_RCC_ClockConfig+0x3c>
 8004872:	4b65      	ldr	r3, [pc, #404]	; (8004a08 <HAL_RCC_ClockConfig+0x1b8>)
 8004874:	683a      	ldr	r2, [r7, #0]
 8004876:	b2d2      	uxtb	r2, r2
 8004878:	701a      	strb	r2, [r3, #0]
 800487a:	4b63      	ldr	r3, [pc, #396]	; (8004a08 <HAL_RCC_ClockConfig+0x1b8>)
 800487c:	681b      	ldr	r3, [r3, #0]
 800487e:	f003 0307 	and.w	r3, r3, #7
 8004882:	683a      	ldr	r2, [r7, #0]
 8004884:	429a      	cmp	r2, r3
 8004886:	d001      	beq.n	800488c <HAL_RCC_ClockConfig+0x3c>
 8004888:	2301      	movs	r3, #1
 800488a:	e0b8      	b.n	80049fe <HAL_RCC_ClockConfig+0x1ae>
 800488c:	687b      	ldr	r3, [r7, #4]
 800488e:	681b      	ldr	r3, [r3, #0]
 8004890:	f003 0302 	and.w	r3, r3, #2
 8004894:	2b00      	cmp	r3, #0
 8004896:	d020      	beq.n	80048da <HAL_RCC_ClockConfig+0x8a>
 8004898:	687b      	ldr	r3, [r7, #4]
 800489a:	681b      	ldr	r3, [r3, #0]
 800489c:	f003 0304 	and.w	r3, r3, #4
 80048a0:	2b00      	cmp	r3, #0
 80048a2:	d005      	beq.n	80048b0 <HAL_RCC_ClockConfig+0x60>
 80048a4:	4b59      	ldr	r3, [pc, #356]	; (8004a0c <HAL_RCC_ClockConfig+0x1bc>)
 80048a6:	689b      	ldr	r3, [r3, #8]
 80048a8:	4a58      	ldr	r2, [pc, #352]	; (8004a0c <HAL_RCC_ClockConfig+0x1bc>)
 80048aa:	f443 53e0 	orr.w	r3, r3, #7168	; 0x1c00
 80048ae:	6093      	str	r3, [r2, #8]
 80048b0:	687b      	ldr	r3, [r7, #4]
 80048b2:	681b      	ldr	r3, [r3, #0]
 80048b4:	f003 0308 	and.w	r3, r3, #8
 80048b8:	2b00      	cmp	r3, #0
 80048ba:	d005      	beq.n	80048c8 <HAL_RCC_ClockConfig+0x78>
 80048bc:	4b53      	ldr	r3, [pc, #332]	; (8004a0c <HAL_RCC_ClockConfig+0x1bc>)
 80048be:	689b      	ldr	r3, [r3, #8]
 80048c0:	4a52      	ldr	r2, [pc, #328]	; (8004a0c <HAL_RCC_ClockConfig+0x1bc>)
 80048c2:	f443 4360 	orr.w	r3, r3, #57344	; 0xe000
 80048c6:	6093      	str	r3, [r2, #8]
 80048c8:	4b50      	ldr	r3, [pc, #320]	; (8004a0c <HAL_RCC_ClockConfig+0x1bc>)
 80048ca:	689b      	ldr	r3, [r3, #8]
 80048cc:	f023 02f0 	bic.w	r2, r3, #240	; 0xf0
 80048d0:	687b      	ldr	r3, [r7, #4]
 80048d2:	689b      	ldr	r3, [r3, #8]
 80048d4:	494d      	ldr	r1, [pc, #308]	; (8004a0c <HAL_RCC_ClockConfig+0x1bc>)
 80048d6:	4313      	orrs	r3, r2
 80048d8:	608b      	str	r3, [r1, #8]
 80048da:	687b      	ldr	r3, [r7, #4]
 80048dc:	681b      	ldr	r3, [r3, #0]
 80048de:	f003 0301 	and.w	r3, r3, #1
 80048e2:	2b00      	cmp	r3, #0
 80048e4:	d044      	beq.n	8004970 <HAL_RCC_ClockConfig+0x120>
 80048e6:	687b      	ldr	r3, [r7, #4]
 80048e8:	685b      	ldr	r3, [r3, #4]
 80048ea:	2b01      	cmp	r3, #1
 80048ec:	d107      	bne.n	80048fe <HAL_RCC_ClockConfig+0xae>
 80048ee:	4b47      	ldr	r3, [pc, #284]	; (8004a0c <HAL_RCC_ClockConfig+0x1bc>)
 80048f0:	681b      	ldr	r3, [r3, #0]
 80048f2:	f403 3300 	and.w	r3, r3, #131072	; 0x20000
 80048f6:	2b00      	cmp	r3, #0
 80048f8:	d119      	bne.n	800492e <HAL_RCC_ClockConfig+0xde>
 80048fa:	2301      	movs	r3, #1
 80048fc:	e07f      	b.n	80049fe <HAL_RCC_ClockConfig+0x1ae>
 80048fe:	687b      	ldr	r3, [r7, #4]
 8004900:	685b      	ldr	r3, [r3, #4]
 8004902:	2b02      	cmp	r3, #2
 8004904:	d003      	beq.n	800490e <HAL_RCC_ClockConfig+0xbe>
 8004906:	687b      	ldr	r3, [r7, #4]
 8004908:	685b      	ldr	r3, [r3, #4]
 800490a:	2b03      	cmp	r3, #3
 800490c:	d107      	bne.n	800491e <HAL_RCC_ClockConfig+0xce>
 800490e:	4b3f      	ldr	r3, [pc, #252]	; (8004a0c <HAL_RCC_ClockConfig+0x1bc>)
 8004910:	681b      	ldr	r3, [r3, #0]
 8004912:	f003 7300 	and.w	r3, r3, #33554432	; 0x2000000
 8004916:	2b00      	cmp	r3, #0
 8004918:	d109      	bne.n	800492e <HAL_RCC_ClockConfig+0xde>
 800491a:	2301      	movs	r3, #1
 800491c:	e06f      	b.n	80049fe <HAL_RCC_ClockConfig+0x1ae>
 800491e:	4b3b      	ldr	r3, [pc, #236]	; (8004a0c <HAL_RCC_ClockConfig+0x1bc>)
 8004920:	681b      	ldr	r3, [r3, #0]
 8004922:	f003 0302 	and.w	r3, r3, #2
 8004926:	2b00      	cmp	r3, #0
 8004928:	d101      	bne.n	800492e <HAL_RCC_ClockConfig+0xde>
 800492a:	2301      	movs	r3, #1
 800492c:	e067      	b.n	80049fe <HAL_RCC_ClockConfig+0x1ae>
 800492e:	4b37      	ldr	r3, [pc, #220]	; (8004a0c <HAL_RCC_ClockConfig+0x1bc>)
 8004930:	689b      	ldr	r3, [r3, #8]
 8004932:	f023 0203 	bic.w	r2, r3, #3
 8004936:	687b      	ldr	r3, [r7, #4]
 8004938:	685b      	ldr	r3, [r3, #4]
 800493a:	4934      	ldr	r1, [pc, #208]	; (8004a0c <HAL_RCC_ClockConfig+0x1bc>)
 800493c:	4313      	orrs	r3, r2
 800493e:	608b      	str	r3, [r1, #8]
 8004940:	f7fd fd0c 	bl	800235c <HAL_GetTick>
 8004944:	60f8      	str	r0, [r7, #12]
 8004946:	e00a      	b.n	800495e <HAL_RCC_ClockConfig+0x10e>
 8004948:	f7fd fd08 	bl	800235c <HAL_GetTick>
 800494c:	4602      	mov	r2, r0
 800494e:	68fb      	ldr	r3, [r7, #12]
 8004950:	1ad3      	subs	r3, r2, r3
 8004952:	f241 3288 	movw	r2, #5000	; 0x1388
 8004956:	4293      	cmp	r3, r2
 8004958:	d901      	bls.n	800495e <HAL_RCC_ClockConfig+0x10e>
 800495a:	2303      	movs	r3, #3
 800495c:	e04f      	b.n	80049fe <HAL_RCC_ClockConfig+0x1ae>
 800495e:	4b2b      	ldr	r3, [pc, #172]	; (8004a0c <HAL_RCC_ClockConfig+0x1bc>)
 8004960:	689b      	ldr	r3, [r3, #8]
 8004962:	f003 020c 	and.w	r2, r3, #12
 8004966:	687b      	ldr	r3, [r7, #4]
 8004968:	685b      	ldr	r3, [r3, #4]
 800496a:	009b      	lsls	r3, r3, #2
 800496c:	429a      	cmp	r2, r3
 800496e:	d1eb      	bne.n	8004948 <HAL_RCC_ClockConfig+0xf8>
 8004970:	4b25      	ldr	r3, [pc, #148]	; (8004a08 <HAL_RCC_ClockConfig+0x1b8>)
 8004972:	681b      	ldr	r3, [r3, #0]
 8004974:	f003 0307 	and.w	r3, r3, #7
 8004978:	683a      	ldr	r2, [r7, #0]
 800497a:	429a      	cmp	r2, r3
 800497c:	d20c      	bcs.n	8004998 <HAL_RCC_ClockConfig+0x148>
 800497e:	4b22      	ldr	r3, [pc, #136]	; (8004a08 <HAL_RCC_ClockConfig+0x1b8>)
 8004980:	683a      	ldr	r2, [r7, #0]
 8004982:	b2d2      	uxtb	r2, r2
 8004984:	701a      	strb	r2, [r3, #0]
 8004986:	4b20      	ldr	r3, [pc, #128]	; (8004a08 <HAL_RCC_ClockConfig+0x1b8>)
 8004988:	681b      	ldr	r3, [r3, #0]
 800498a:	f003 0307 	and.w	r3, r3, #7
 800498e:	683a      	ldr	r2, [r7, #0]
 8004990:	429a      	cmp	r2, r3
 8004992:	d001      	beq.n	8004998 <HAL_RCC_ClockConfig+0x148>
 8004994:	2301      	movs	r3, #1
 8004996:	e032      	b.n	80049fe <HAL_RCC_ClockConfig+0x1ae>
 8004998:	687b      	ldr	r3, [r7, #4]
 800499a:	681b      	ldr	r3, [r3, #0]
 800499c:	f003 0304 	and.w	r3, r3, #4
 80049a0:	2b00      	cmp	r3, #0
 80049a2:	d008      	beq.n	80049b6 <HAL_RCC_ClockConfig+0x166>
 80049a4:	4b19      	ldr	r3, [pc, #100]	; (8004a0c <HAL_RCC_ClockConfig+0x1bc>)
 80049a6:	689b      	ldr	r3, [r3, #8]
 80049a8:	f423 52e0 	bic.w	r2, r3, #7168	; 0x1c00
 80049ac:	687b      	ldr	r3, [r7, #4]
 80049ae:	68db      	ldr	r3, [r3, #12]
 80049b0:	4916      	ldr	r1, [pc, #88]	; (8004a0c <HAL_RCC_ClockConfig+0x1bc>)
 80049b2:	4313      	orrs	r3, r2
 80049b4:	608b      	str	r3, [r1, #8]
 80049b6:	687b      	ldr	r3, [r7, #4]
 80049b8:	681b      	ldr	r3, [r3, #0]
 80049ba:	f003 0308 	and.w	r3, r3, #8
 80049be:	2b00      	cmp	r3, #0
 80049c0:	d009      	beq.n	80049d6 <HAL_RCC_ClockConfig+0x186>
 80049c2:	4b12      	ldr	r3, [pc, #72]	; (8004a0c <HAL_RCC_ClockConfig+0x1bc>)
 80049c4:	689b      	ldr	r3, [r3, #8]
 80049c6:	f423 4260 	bic.w	r2, r3, #57344	; 0xe000
 80049ca:	687b      	ldr	r3, [r7, #4]
 80049cc:	691b      	ldr	r3, [r3, #16]
 80049ce:	00db      	lsls	r3, r3, #3
 80049d0:	490e      	ldr	r1, [pc, #56]	; (8004a0c <HAL_RCC_ClockConfig+0x1bc>)
 80049d2:	4313      	orrs	r3, r2
 80049d4:	608b      	str	r3, [r1, #8]
 80049d6:	f000 f821 	bl	8004a1c <HAL_RCC_GetSysClockFreq>
 80049da:	4602      	mov	r2, r0
 80049dc:	4b0b      	ldr	r3, [pc, #44]	; (8004a0c <HAL_RCC_ClockConfig+0x1bc>)
 80049de:	689b      	ldr	r3, [r3, #8]
 80049e0:	091b      	lsrs	r3, r3, #4
 80049e2:	f003 030f 	and.w	r3, r3, #15
 80049e6:	490a      	ldr	r1, [pc, #40]	; (8004a10 <HAL_RCC_ClockConfig+0x1c0>)
 80049e8:	5ccb      	ldrb	r3, [r1, r3]
 80049ea:	fa22 f303 	lsr.w	r3, r2, r3
 80049ee:	4a09      	ldr	r2, [pc, #36]	; (8004a14 <HAL_RCC_ClockConfig+0x1c4>)
 80049f0:	6013      	str	r3, [r2, #0]
 80049f2:	4b09      	ldr	r3, [pc, #36]	; (8004a18 <HAL_RCC_ClockConfig+0x1c8>)
 80049f4:	681b      	ldr	r3, [r3, #0]
 80049f6:	4618      	mov	r0, r3
 80049f8:	f7fd fc6c 	bl	80022d4 <HAL_InitTick>
 80049fc:	2300      	movs	r3, #0
 80049fe:	4618      	mov	r0, r3
 8004a00:	3710      	adds	r7, #16
 8004a02:	46bd      	mov	sp, r7
 8004a04:	bd80      	pop	{r7, pc}
 8004a06:	bf00      	nop
 8004a08:	40023c00 	.word	0x40023c00
 8004a0c:	40023800 	.word	0x40023800
 8004a10:	080068cc 	.word	0x080068cc
 8004a14:	2000002c 	.word	0x2000002c
 8004a18:	20000030 	.word	0x20000030

08004a1c <HAL_RCC_GetSysClockFreq>:
 8004a1c:	e92d 4fb0 	stmdb	sp!, {r4, r5, r7, r8, r9, sl, fp, lr}
 8004a20:	b094      	sub	sp, #80	; 0x50
 8004a22:	af00      	add	r7, sp, #0
 8004a24:	2300      	movs	r3, #0
 8004a26:	647b      	str	r3, [r7, #68]	; 0x44
 8004a28:	2300      	movs	r3, #0
 8004a2a:	64fb      	str	r3, [r7, #76]	; 0x4c
 8004a2c:	2300      	movs	r3, #0
 8004a2e:	643b      	str	r3, [r7, #64]	; 0x40
 8004a30:	2300      	movs	r3, #0
 8004a32:	64bb      	str	r3, [r7, #72]	; 0x48
 8004a34:	4b79      	ldr	r3, [pc, #484]	; (8004c1c <HAL_RCC_GetSysClockFreq+0x200>)
 8004a36:	689b      	ldr	r3, [r3, #8]
 8004a38:	f003 030c 	and.w	r3, r3, #12
 8004a3c:	2b08      	cmp	r3, #8
 8004a3e:	d00d      	beq.n	8004a5c <HAL_RCC_GetSysClockFreq+0x40>
 8004a40:	2b08      	cmp	r3, #8
 8004a42:	f200 80e1 	bhi.w	8004c08 <HAL_RCC_GetSysClockFreq+0x1ec>
 8004a46:	2b00      	cmp	r3, #0
 8004a48:	d002      	beq.n	8004a50 <HAL_RCC_GetSysClockFreq+0x34>
 8004a4a:	2b04      	cmp	r3, #4
 8004a4c:	d003      	beq.n	8004a56 <HAL_RCC_GetSysClockFreq+0x3a>
 8004a4e:	e0db      	b.n	8004c08 <HAL_RCC_GetSysClockFreq+0x1ec>
 8004a50:	4b73      	ldr	r3, [pc, #460]	; (8004c20 <HAL_RCC_GetSysClockFreq+0x204>)
 8004a52:	64bb      	str	r3, [r7, #72]	; 0x48
 8004a54:	e0db      	b.n	8004c0e <HAL_RCC_GetSysClockFreq+0x1f2>
 8004a56:	4b73      	ldr	r3, [pc, #460]	; (8004c24 <HAL_RCC_GetSysClockFreq+0x208>)
 8004a58:	64bb      	str	r3, [r7, #72]	; 0x48
 8004a5a:	e0d8      	b.n	8004c0e <HAL_RCC_GetSysClockFreq+0x1f2>
 8004a5c:	4b6f      	ldr	r3, [pc, #444]	; (8004c1c <HAL_RCC_GetSysClockFreq+0x200>)
 8004a5e:	685b      	ldr	r3, [r3, #4]
 8004a60:	f003 033f 	and.w	r3, r3, #63	; 0x3f
 8004a64:	647b      	str	r3, [r7, #68]	; 0x44
 8004a66:	4b6d      	ldr	r3, [pc, #436]	; (8004c1c <HAL_RCC_GetSysClockFreq+0x200>)
 8004a68:	685b      	ldr	r3, [r3, #4]
 8004a6a:	f403 0380 	and.w	r3, r3, #4194304	; 0x400000
 8004a6e:	2b00      	cmp	r3, #0
 8004a70:	d063      	beq.n	8004b3a <HAL_RCC_GetSysClockFreq+0x11e>
 8004a72:	4b6a      	ldr	r3, [pc, #424]	; (8004c1c <HAL_RCC_GetSysClockFreq+0x200>)
 8004a74:	685b      	ldr	r3, [r3, #4]
 8004a76:	099b      	lsrs	r3, r3, #6
 8004a78:	2200      	movs	r2, #0
 8004a7a:	63bb      	str	r3, [r7, #56]	; 0x38
 8004a7c:	63fa      	str	r2, [r7, #60]	; 0x3c
 8004a7e:	6bbb      	ldr	r3, [r7, #56]	; 0x38
 8004a80:	f3c3 0308 	ubfx	r3, r3, #0, #9
 8004a84:	633b      	str	r3, [r7, #48]	; 0x30
 8004a86:	2300      	movs	r3, #0
 8004a88:	637b      	str	r3, [r7, #52]	; 0x34
 8004a8a:	e9d7 450c 	ldrd	r4, r5, [r7, #48]	; 0x30
 8004a8e:	4622      	mov	r2, r4
 8004a90:	462b      	mov	r3, r5
 8004a92:	f04f 0000 	mov.w	r0, #0
 8004a96:	f04f 0100 	mov.w	r1, #0
 8004a9a:	0159      	lsls	r1, r3, #5
 8004a9c:	ea41 61d2 	orr.w	r1, r1, r2, lsr #27
 8004aa0:	0150      	lsls	r0, r2, #5
 8004aa2:	4602      	mov	r2, r0
 8004aa4:	460b      	mov	r3, r1
 8004aa6:	4621      	mov	r1, r4
 8004aa8:	1a51      	subs	r1, r2, r1
 8004aaa:	6139      	str	r1, [r7, #16]
 8004aac:	4629      	mov	r1, r5
 8004aae:	eb63 0301 	sbc.w	r3, r3, r1
 8004ab2:	617b      	str	r3, [r7, #20]
 8004ab4:	f04f 0200 	mov.w	r2, #0
 8004ab8:	f04f 0300 	mov.w	r3, #0
 8004abc:	e9d7 ab04 	ldrd	sl, fp, [r7, #16]
 8004ac0:	4659      	mov	r1, fp
 8004ac2:	018b      	lsls	r3, r1, #6
 8004ac4:	4651      	mov	r1, sl
 8004ac6:	ea43 6391 	orr.w	r3, r3, r1, lsr #26
 8004aca:	4651      	mov	r1, sl
 8004acc:	018a      	lsls	r2, r1, #6
 8004ace:	4651      	mov	r1, sl
 8004ad0:	ebb2 0801 	subs.w	r8, r2, r1
 8004ad4:	4659      	mov	r1, fp
 8004ad6:	eb63 0901 	sbc.w	r9, r3, r1
 8004ada:	f04f 0200 	mov.w	r2, #0
 8004ade:	f04f 0300 	mov.w	r3, #0
 8004ae2:	ea4f 03c9 	mov.w	r3, r9, lsl #3
 8004ae6:	ea43 7358 	orr.w	r3, r3, r8, lsr #29
 8004aea:	ea4f 02c8 	mov.w	r2, r8, lsl #3
 8004aee:	4690      	mov	r8, r2
 8004af0:	4699      	mov	r9, r3
 8004af2:	4623      	mov	r3, r4
 8004af4:	eb18 0303 	adds.w	r3, r8, r3
 8004af8:	60bb      	str	r3, [r7, #8]
 8004afa:	462b      	mov	r3, r5
 8004afc:	eb49 0303 	adc.w	r3, r9, r3
 8004b00:	60fb      	str	r3, [r7, #12]
 8004b02:	f04f 0200 	mov.w	r2, #0
 8004b06:	f04f 0300 	mov.w	r3, #0
 8004b0a:	e9d7 4502 	ldrd	r4, r5, [r7, #8]
 8004b0e:	4629      	mov	r1, r5
 8004b10:	024b      	lsls	r3, r1, #9
 8004b12:	4621      	mov	r1, r4
 8004b14:	ea43 53d1 	orr.w	r3, r3, r1, lsr #23
 8004b18:	4621      	mov	r1, r4
 8004b1a:	024a      	lsls	r2, r1, #9
 8004b1c:	4610      	mov	r0, r2
 8004b1e:	4619      	mov	r1, r3
 8004b20:	6c7b      	ldr	r3, [r7, #68]	; 0x44
 8004b22:	2200      	movs	r2, #0
 8004b24:	62bb      	str	r3, [r7, #40]	; 0x28
 8004b26:	62fa      	str	r2, [r7, #44]	; 0x2c
 8004b28:	e9d7 230a 	ldrd	r2, r3, [r7, #40]	; 0x28
 8004b2c:	f7fb feb6 	bl	800089c <__aeabi_uldivmod>
 8004b30:	4602      	mov	r2, r0
 8004b32:	460b      	mov	r3, r1
 8004b34:	4613      	mov	r3, r2
 8004b36:	64fb      	str	r3, [r7, #76]	; 0x4c
 8004b38:	e058      	b.n	8004bec <HAL_RCC_GetSysClockFreq+0x1d0>
 8004b3a:	4b38      	ldr	r3, [pc, #224]	; (8004c1c <HAL_RCC_GetSysClockFreq+0x200>)
 8004b3c:	685b      	ldr	r3, [r3, #4]
 8004b3e:	099b      	lsrs	r3, r3, #6
 8004b40:	2200      	movs	r2, #0
 8004b42:	4618      	mov	r0, r3
 8004b44:	4611      	mov	r1, r2
 8004b46:	f3c0 0308 	ubfx	r3, r0, #0, #9
 8004b4a:	623b      	str	r3, [r7, #32]
 8004b4c:	2300      	movs	r3, #0
 8004b4e:	627b      	str	r3, [r7, #36]	; 0x24
 8004b50:	e9d7 8908 	ldrd	r8, r9, [r7, #32]
 8004b54:	4642      	mov	r2, r8
 8004b56:	464b      	mov	r3, r9
 8004b58:	f04f 0000 	mov.w	r0, #0
 8004b5c:	f04f 0100 	mov.w	r1, #0
 8004b60:	0159      	lsls	r1, r3, #5
 8004b62:	ea41 61d2 	orr.w	r1, r1, r2, lsr #27
 8004b66:	0150      	lsls	r0, r2, #5
 8004b68:	4602      	mov	r2, r0
 8004b6a:	460b      	mov	r3, r1
 8004b6c:	4641      	mov	r1, r8
 8004b6e:	ebb2 0a01 	subs.w	sl, r2, r1
 8004b72:	4649      	mov	r1, r9
 8004b74:	eb63 0b01 	sbc.w	fp, r3, r1
 8004b78:	f04f 0200 	mov.w	r2, #0
 8004b7c:	f04f 0300 	mov.w	r3, #0
 8004b80:	ea4f 138b 	mov.w	r3, fp, lsl #6
 8004b84:	ea43 639a 	orr.w	r3, r3, sl, lsr #26
 8004b88:	ea4f 128a 	mov.w	r2, sl, lsl #6
 8004b8c:	ebb2 040a 	subs.w	r4, r2, sl
 8004b90:	eb63 050b 	sbc.w	r5, r3, fp
 8004b94:	f04f 0200 	mov.w	r2, #0
 8004b98:	f04f 0300 	mov.w	r3, #0
 8004b9c:	00eb      	lsls	r3, r5, #3
 8004b9e:	ea43 7354 	orr.w	r3, r3, r4, lsr #29
 8004ba2:	00e2      	lsls	r2, r4, #3
 8004ba4:	4614      	mov	r4, r2
 8004ba6:	461d      	mov	r5, r3
 8004ba8:	4643      	mov	r3, r8
 8004baa:	18e3      	adds	r3, r4, r3
 8004bac:	603b      	str	r3, [r7, #0]
 8004bae:	464b      	mov	r3, r9
 8004bb0:	eb45 0303 	adc.w	r3, r5, r3
 8004bb4:	607b      	str	r3, [r7, #4]
 8004bb6:	f04f 0200 	mov.w	r2, #0
 8004bba:	f04f 0300 	mov.w	r3, #0
 8004bbe:	e9d7 4500 	ldrd	r4, r5, [r7]
 8004bc2:	4629      	mov	r1, r5
 8004bc4:	028b      	lsls	r3, r1, #10
 8004bc6:	4621      	mov	r1, r4
 8004bc8:	ea43 5391 	orr.w	r3, r3, r1, lsr #22
 8004bcc:	4621      	mov	r1, r4
 8004bce:	028a      	lsls	r2, r1, #10
 8004bd0:	4610      	mov	r0, r2
 8004bd2:	4619      	mov	r1, r3
 8004bd4:	6c7b      	ldr	r3, [r7, #68]	; 0x44
 8004bd6:	2200      	movs	r2, #0
 8004bd8:	61bb      	str	r3, [r7, #24]
 8004bda:	61fa      	str	r2, [r7, #28]
 8004bdc:	e9d7 2306 	ldrd	r2, r3, [r7, #24]
 8004be0:	f7fb fe5c 	bl	800089c <__aeabi_uldivmod>
 8004be4:	4602      	mov	r2, r0
 8004be6:	460b      	mov	r3, r1
 8004be8:	4613      	mov	r3, r2
 8004bea:	64fb      	str	r3, [r7, #76]	; 0x4c
 8004bec:	4b0b      	ldr	r3, [pc, #44]	; (8004c1c <HAL_RCC_GetSysClockFreq+0x200>)
 8004bee:	685b      	ldr	r3, [r3, #4]
 8004bf0:	0c1b      	lsrs	r3, r3, #16
 8004bf2:	f003 0303 	and.w	r3, r3, #3
 8004bf6:	3301      	adds	r3, #1
 8004bf8:	005b      	lsls	r3, r3, #1
 8004bfa:	643b      	str	r3, [r7, #64]	; 0x40
 8004bfc:	6cfa      	ldr	r2, [r7, #76]	; 0x4c
 8004bfe:	6c3b      	ldr	r3, [r7, #64]	; 0x40
 8004c00:	fbb2 f3f3 	udiv	r3, r2, r3
 8004c04:	64bb      	str	r3, [r7, #72]	; 0x48
 8004c06:	e002      	b.n	8004c0e <HAL_RCC_GetSysClockFreq+0x1f2>
 8004c08:	4b05      	ldr	r3, [pc, #20]	; (8004c20 <HAL_RCC_GetSysClockFreq+0x204>)
 8004c0a:	64bb      	str	r3, [r7, #72]	; 0x48
 8004c0c:	bf00      	nop
 8004c0e:	6cbb      	ldr	r3, [r7, #72]	; 0x48
 8004c10:	4618      	mov	r0, r3
 8004c12:	3750      	adds	r7, #80	; 0x50
 8004c14:	46bd      	mov	sp, r7
 8004c16:	e8bd 8fb0 	ldmia.w	sp!, {r4, r5, r7, r8, r9, sl, fp, pc}
 8004c1a:	bf00      	nop
 8004c1c:	40023800 	.word	0x40023800
 8004c20:	00f42400 	.word	0x00f42400
 8004c24:	007a1200 	.word	0x007a1200

08004c28 <HAL_RCC_GetHCLKFreq>:
 8004c28:	b480      	push	{r7}
 8004c2a:	af00      	add	r7, sp, #0
 8004c2c:	4b03      	ldr	r3, [pc, #12]	; (8004c3c <HAL_RCC_GetHCLKFreq+0x14>)
 8004c2e:	681b      	ldr	r3, [r3, #0]
 8004c30:	4618      	mov	r0, r3
 8004c32:	46bd      	mov	sp, r7
 8004c34:	f85d 7b04 	ldr.w	r7, [sp], #4
 8004c38:	4770      	bx	lr
 8004c3a:	bf00      	nop
 8004c3c:	2000002c 	.word	0x2000002c

08004c40 <HAL_RCC_GetPCLK1Freq>:
 8004c40:	b580      	push	{r7, lr}
 8004c42:	af00      	add	r7, sp, #0
 8004c44:	f7ff fff0 	bl	8004c28 <HAL_RCC_GetHCLKFreq>
 8004c48:	4602      	mov	r2, r0
 8004c4a:	4b05      	ldr	r3, [pc, #20]	; (8004c60 <HAL_RCC_GetPCLK1Freq+0x20>)
 8004c4c:	689b      	ldr	r3, [r3, #8]
 8004c4e:	0a9b      	lsrs	r3, r3, #10
 8004c50:	f003 0307 	and.w	r3, r3, #7
 8004c54:	4903      	ldr	r1, [pc, #12]	; (8004c64 <HAL_RCC_GetPCLK1Freq+0x24>)
 8004c56:	5ccb      	ldrb	r3, [r1, r3]
 8004c58:	fa22 f303 	lsr.w	r3, r2, r3
 8004c5c:	4618      	mov	r0, r3
 8004c5e:	bd80      	pop	{r7, pc}
 8004c60:	40023800 	.word	0x40023800
 8004c64:	080068dc 	.word	0x080068dc

08004c68 <HAL_TIM_Base_Init>:
 8004c68:	b580      	push	{r7, lr}
 8004c6a:	b082      	sub	sp, #8
 8004c6c:	af00      	add	r7, sp, #0
 8004c6e:	6078      	str	r0, [r7, #4]
 8004c70:	687b      	ldr	r3, [r7, #4]
 8004c72:	2b00      	cmp	r3, #0
 8004c74:	d101      	bne.n	8004c7a <HAL_TIM_Base_Init+0x12>
 8004c76:	2301      	movs	r3, #1
 8004c78:	e041      	b.n	8004cfe <HAL_TIM_Base_Init+0x96>
 8004c7a:	687b      	ldr	r3, [r7, #4]
 8004c7c:	f893 303d 	ldrb.w	r3, [r3, #61]	; 0x3d
 8004c80:	b2db      	uxtb	r3, r3
 8004c82:	2b00      	cmp	r3, #0
 8004c84:	d106      	bne.n	8004c94 <HAL_TIM_Base_Init+0x2c>
 8004c86:	687b      	ldr	r3, [r7, #4]
 8004c88:	2200      	movs	r2, #0
 8004c8a:	f883 203c 	strb.w	r2, [r3, #60]	; 0x3c
 8004c8e:	6878      	ldr	r0, [r7, #4]
 8004c90:	f7fd f9b4 	bl	8001ffc <HAL_TIM_Base_MspInit>
 8004c94:	687b      	ldr	r3, [r7, #4]
 8004c96:	2202      	movs	r2, #2
 8004c98:	f883 203d 	strb.w	r2, [r3, #61]	; 0x3d
 8004c9c:	687b      	ldr	r3, [r7, #4]
 8004c9e:	681a      	ldr	r2, [r3, #0]
 8004ca0:	687b      	ldr	r3, [r7, #4]
 8004ca2:	3304      	adds	r3, #4
 8004ca4:	4619      	mov	r1, r3
 8004ca6:	4610      	mov	r0, r2
 8004ca8:	f000 fce4 	bl	8005674 <TIM_Base_SetConfig>
 8004cac:	687b      	ldr	r3, [r7, #4]
 8004cae:	2201      	movs	r2, #1
 8004cb0:	f883 2046 	strb.w	r2, [r3, #70]	; 0x46
 8004cb4:	687b      	ldr	r3, [r7, #4]
 8004cb6:	2201      	movs	r2, #1
 8004cb8:	f883 203e 	strb.w	r2, [r3, #62]	; 0x3e
 8004cbc:	687b      	ldr	r3, [r7, #4]
 8004cbe:	2201      	movs	r2, #1
 8004cc0:	f883 203f 	strb.w	r2, [r3, #63]	; 0x3f
 8004cc4:	687b      	ldr	r3, [r7, #4]
 8004cc6:	2201      	movs	r2, #1
 8004cc8:	f883 2040 	strb.w	r2, [r3, #64]	; 0x40
 8004ccc:	687b      	ldr	r3, [r7, #4]
 8004cce:	2201      	movs	r2, #1
 8004cd0:	f883 2041 	strb.w	r2, [r3, #65]	; 0x41
 8004cd4:	687b      	ldr	r3, [r7, #4]
 8004cd6:	2201      	movs	r2, #1
 8004cd8:	f883 2042 	strb.w	r2, [r3, #66]	; 0x42
 8004cdc:	687b      	ldr	r3, [r7, #4]
 8004cde:	2201      	movs	r2, #1
 8004ce0:	f883 2043 	strb.w	r2, [r3, #67]	; 0x43
 8004ce4:	687b      	ldr	r3, [r7, #4]
 8004ce6:	2201      	movs	r2, #1
 8004ce8:	f883 2044 	strb.w	r2, [r3, #68]	; 0x44
 8004cec:	687b      	ldr	r3, [r7, #4]
 8004cee:	2201      	movs	r2, #1
 8004cf0:	f883 2045 	strb.w	r2, [r3, #69]	; 0x45
 8004cf4:	687b      	ldr	r3, [r7, #4]
 8004cf6:	2201      	movs	r2, #1
 8004cf8:	f883 203d 	strb.w	r2, [r3, #61]	; 0x3d
 8004cfc:	2300      	movs	r3, #0
 8004cfe:	4618      	mov	r0, r3
 8004d00:	3708      	adds	r7, #8
 8004d02:	46bd      	mov	sp, r7
 8004d04:	bd80      	pop	{r7, pc}
	...

08004d08 <HAL_TIM_Base_Start_IT>:
 8004d08:	b480      	push	{r7}
 8004d0a:	b085      	sub	sp, #20
 8004d0c:	af00      	add	r7, sp, #0
 8004d0e:	6078      	str	r0, [r7, #4]
 8004d10:	687b      	ldr	r3, [r7, #4]
 8004d12:	f893 303d 	ldrb.w	r3, [r3, #61]	; 0x3d
 8004d16:	b2db      	uxtb	r3, r3
 8004d18:	2b01      	cmp	r3, #1
 8004d1a:	d001      	beq.n	8004d20 <HAL_TIM_Base_Start_IT+0x18>
 8004d1c:	2301      	movs	r3, #1
 8004d1e:	e044      	b.n	8004daa <HAL_TIM_Base_Start_IT+0xa2>
 8004d20:	687b      	ldr	r3, [r7, #4]
 8004d22:	2202      	movs	r2, #2
 8004d24:	f883 203d 	strb.w	r2, [r3, #61]	; 0x3d
 8004d28:	687b      	ldr	r3, [r7, #4]
 8004d2a:	681b      	ldr	r3, [r3, #0]
 8004d2c:	68da      	ldr	r2, [r3, #12]
 8004d2e:	687b      	ldr	r3, [r7, #4]
 8004d30:	681b      	ldr	r3, [r3, #0]
 8004d32:	f042 0201 	orr.w	r2, r2, #1
 8004d36:	60da      	str	r2, [r3, #12]
 8004d38:	687b      	ldr	r3, [r7, #4]
 8004d3a:	681b      	ldr	r3, [r3, #0]
 8004d3c:	4a1e      	ldr	r2, [pc, #120]	; (8004db8 <HAL_TIM_Base_Start_IT+0xb0>)
 8004d3e:	4293      	cmp	r3, r2
 8004d40:	d018      	beq.n	8004d74 <HAL_TIM_Base_Start_IT+0x6c>
 8004d42:	687b      	ldr	r3, [r7, #4]
 8004d44:	681b      	ldr	r3, [r3, #0]
 8004d46:	f1b3 4f80 	cmp.w	r3, #1073741824	; 0x40000000
 8004d4a:	d013      	beq.n	8004d74 <HAL_TIM_Base_Start_IT+0x6c>
 8004d4c:	687b      	ldr	r3, [r7, #4]
 8004d4e:	681b      	ldr	r3, [r3, #0]
 8004d50:	4a1a      	ldr	r2, [pc, #104]	; (8004dbc <HAL_TIM_Base_Start_IT+0xb4>)
 8004d52:	4293      	cmp	r3, r2
 8004d54:	d00e      	beq.n	8004d74 <HAL_TIM_Base_Start_IT+0x6c>
 8004d56:	687b      	ldr	r3, [r7, #4]
 8004d58:	681b      	ldr	r3, [r3, #0]
 8004d5a:	4a19      	ldr	r2, [pc, #100]	; (8004dc0 <HAL_TIM_Base_Start_IT+0xb8>)
 8004d5c:	4293      	cmp	r3, r2
 8004d5e:	d009      	beq.n	8004d74 <HAL_TIM_Base_Start_IT+0x6c>
 8004d60:	687b      	ldr	r3, [r7, #4]
 8004d62:	681b      	ldr	r3, [r3, #0]
 8004d64:	4a17      	ldr	r2, [pc, #92]	; (8004dc4 <HAL_TIM_Base_Start_IT+0xbc>)
 8004d66:	4293      	cmp	r3, r2
 8004d68:	d004      	beq.n	8004d74 <HAL_TIM_Base_Start_IT+0x6c>
 8004d6a:	687b      	ldr	r3, [r7, #4]
 8004d6c:	681b      	ldr	r3, [r3, #0]
 8004d6e:	4a16      	ldr	r2, [pc, #88]	; (8004dc8 <HAL_TIM_Base_Start_IT+0xc0>)
 8004d70:	4293      	cmp	r3, r2
 8004d72:	d111      	bne.n	8004d98 <HAL_TIM_Base_Start_IT+0x90>
 8004d74:	687b      	ldr	r3, [r7, #4]
 8004d76:	681b      	ldr	r3, [r3, #0]
 8004d78:	689b      	ldr	r3, [r3, #8]
 8004d7a:	f003 0307 	and.w	r3, r3, #7
 8004d7e:	60fb      	str	r3, [r7, #12]
 8004d80:	68fb      	ldr	r3, [r7, #12]
 8004d82:	2b06      	cmp	r3, #6
 8004d84:	d010      	beq.n	8004da8 <HAL_TIM_Base_Start_IT+0xa0>
 8004d86:	687b      	ldr	r3, [r7, #4]
 8004d88:	681b      	ldr	r3, [r3, #0]
 8004d8a:	681a      	ldr	r2, [r3, #0]
 8004d8c:	687b      	ldr	r3, [r7, #4]
 8004d8e:	681b      	ldr	r3, [r3, #0]
 8004d90:	f042 0201 	orr.w	r2, r2, #1
 8004d94:	601a      	str	r2, [r3, #0]
 8004d96:	e007      	b.n	8004da8 <HAL_TIM_Base_Start_IT+0xa0>
 8004d98:	687b      	ldr	r3, [r7, #4]
 8004d9a:	681b      	ldr	r3, [r3, #0]
 8004d9c:	681a      	ldr	r2, [r3, #0]
 8004d9e:	687b      	ldr	r3, [r7, #4]
 8004da0:	681b      	ldr	r3, [r3, #0]
 8004da2:	f042 0201 	orr.w	r2, r2, #1
 8004da6:	601a      	str	r2, [r3, #0]
 8004da8:	2300      	movs	r3, #0
 8004daa:	4618      	mov	r0, r3
 8004dac:	3714      	adds	r7, #20
 8004dae:	46bd      	mov	sp, r7
 8004db0:	f85d 7b04 	ldr.w	r7, [sp], #4
 8004db4:	4770      	bx	lr
 8004db6:	bf00      	nop
 8004db8:	40010000 	.word	0x40010000
 8004dbc:	40000400 	.word	0x40000400
 8004dc0:	40000800 	.word	0x40000800
 8004dc4:	40000c00 	.word	0x40000c00
 8004dc8:	40014000 	.word	0x40014000

08004dcc <HAL_TIM_OC_Init>:
 8004dcc:	b580      	push	{r7, lr}
 8004dce:	b082      	sub	sp, #8
 8004dd0:	af00      	add	r7, sp, #0
 8004dd2:	6078      	str	r0, [r7, #4]
 8004dd4:	687b      	ldr	r3, [r7, #4]
 8004dd6:	2b00      	cmp	r3, #0
 8004dd8:	d101      	bne.n	8004dde <HAL_TIM_OC_Init+0x12>
 8004dda:	2301      	movs	r3, #1
 8004ddc:	e041      	b.n	8004e62 <HAL_TIM_OC_Init+0x96>
 8004dde:	687b      	ldr	r3, [r7, #4]
 8004de0:	f893 303d 	ldrb.w	r3, [r3, #61]	; 0x3d
 8004de4:	b2db      	uxtb	r3, r3
 8004de6:	2b00      	cmp	r3, #0
 8004de8:	d106      	bne.n	8004df8 <HAL_TIM_OC_Init+0x2c>
 8004dea:	687b      	ldr	r3, [r7, #4]
 8004dec:	2200      	movs	r2, #0
 8004dee:	f883 203c 	strb.w	r2, [r3, #60]	; 0x3c
 8004df2:	6878      	ldr	r0, [r7, #4]
 8004df4:	f000 f839 	bl	8004e6a <HAL_TIM_OC_MspInit>
 8004df8:	687b      	ldr	r3, [r7, #4]
 8004dfa:	2202      	movs	r2, #2
 8004dfc:	f883 203d 	strb.w	r2, [r3, #61]	; 0x3d
 8004e00:	687b      	ldr	r3, [r7, #4]
 8004e02:	681a      	ldr	r2, [r3, #0]
 8004e04:	687b      	ldr	r3, [r7, #4]
 8004e06:	3304      	adds	r3, #4
 8004e08:	4619      	mov	r1, r3
 8004e0a:	4610      	mov	r0, r2
 8004e0c:	f000 fc32 	bl	8005674 <TIM_Base_SetConfig>
 8004e10:	687b      	ldr	r3, [r7, #4]
 8004e12:	2201      	movs	r2, #1
 8004e14:	f883 2046 	strb.w	r2, [r3, #70]	; 0x46
 8004e18:	687b      	ldr	r3, [r7, #4]
 8004e1a:	2201      	movs	r2, #1
 8004e1c:	f883 203e 	strb.w	r2, [r3, #62]	; 0x3e
 8004e20:	687b      	ldr	r3, [r7, #4]
 8004e22:	2201      	movs	r2, #1
 8004e24:	f883 203f 	strb.w	r2, [r3, #63]	; 0x3f
 8004e28:	687b      	ldr	r3, [r7, #4]
 8004e2a:	2201      	movs	r2, #1
 8004e2c:	f883 2040 	strb.w	r2, [r3, #64]	; 0x40
 8004e30:	687b      	ldr	r3, [r7, #4]
 8004e32:	2201      	movs	r2, #1
 8004e34:	f883 2041 	strb.w	r2, [r3, #65]	; 0x41
 8004e38:	687b      	ldr	r3, [r7, #4]
 8004e3a:	2201      	movs	r2, #1
 8004e3c:	f883 2042 	strb.w	r2, [r3, #66]	; 0x42
 8004e40:	687b      	ldr	r3, [r7, #4]
 8004e42:	2201      	movs	r2, #1
 8004e44:	f883 2043 	strb.w	r2, [r3, #67]	; 0x43
 8004e48:	687b      	ldr	r3, [r7, #4]
 8004e4a:	2201      	movs	r2, #1
 8004e4c:	f883 2044 	strb.w	r2, [r3, #68]	; 0x44
 8004e50:	687b      	ldr	r3, [r7, #4]
 8004e52:	2201      	movs	r2, #1
 8004e54:	f883 2045 	strb.w	r2, [r3, #69]	; 0x45
 8004e58:	687b      	ldr	r3, [r7, #4]
 8004e5a:	2201      	movs	r2, #1
 8004e5c:	f883 203d 	strb.w	r2, [r3, #61]	; 0x3d
 8004e60:	2300      	movs	r3, #0
 8004e62:	4618      	mov	r0, r3
 8004e64:	3708      	adds	r7, #8
 8004e66:	46bd      	mov	sp, r7
 8004e68:	bd80      	pop	{r7, pc}

08004e6a <HAL_TIM_OC_MspInit>:
 8004e6a:	b480      	push	{r7}
 8004e6c:	b083      	sub	sp, #12
 8004e6e:	af00      	add	r7, sp, #0
 8004e70:	6078      	str	r0, [r7, #4]
 8004e72:	bf00      	nop
 8004e74:	370c      	adds	r7, #12
 8004e76:	46bd      	mov	sp, r7
 8004e78:	f85d 7b04 	ldr.w	r7, [sp], #4
 8004e7c:	4770      	bx	lr
	...

08004e80 <HAL_TIM_OC_Start_IT>:
 8004e80:	b580      	push	{r7, lr}
 8004e82:	b084      	sub	sp, #16
 8004e84:	af00      	add	r7, sp, #0
 8004e86:	6078      	str	r0, [r7, #4]
 8004e88:	6039      	str	r1, [r7, #0]
 8004e8a:	2300      	movs	r3, #0
 8004e8c:	73fb      	strb	r3, [r7, #15]
 8004e8e:	683b      	ldr	r3, [r7, #0]
 8004e90:	2b00      	cmp	r3, #0
 8004e92:	d109      	bne.n	8004ea8 <HAL_TIM_OC_Start_IT+0x28>
 8004e94:	687b      	ldr	r3, [r7, #4]
 8004e96:	f893 303e 	ldrb.w	r3, [r3, #62]	; 0x3e
 8004e9a:	b2db      	uxtb	r3, r3
 8004e9c:	2b01      	cmp	r3, #1
 8004e9e:	bf14      	ite	ne
 8004ea0:	2301      	movne	r3, #1
 8004ea2:	2300      	moveq	r3, #0
 8004ea4:	b2db      	uxtb	r3, r3
 8004ea6:	e022      	b.n	8004eee <HAL_TIM_OC_Start_IT+0x6e>
 8004ea8:	683b      	ldr	r3, [r7, #0]
 8004eaa:	2b04      	cmp	r3, #4
 8004eac:	d109      	bne.n	8004ec2 <HAL_TIM_OC_Start_IT+0x42>
 8004eae:	687b      	ldr	r3, [r7, #4]
 8004eb0:	f893 303f 	ldrb.w	r3, [r3, #63]	; 0x3f
 8004eb4:	b2db      	uxtb	r3, r3
 8004eb6:	2b01      	cmp	r3, #1
 8004eb8:	bf14      	ite	ne
 8004eba:	2301      	movne	r3, #1
 8004ebc:	2300      	moveq	r3, #0
 8004ebe:	b2db      	uxtb	r3, r3
 8004ec0:	e015      	b.n	8004eee <HAL_TIM_OC_Start_IT+0x6e>
 8004ec2:	683b      	ldr	r3, [r7, #0]
 8004ec4:	2b08      	cmp	r3, #8
 8004ec6:	d109      	bne.n	8004edc <HAL_TIM_OC_Start_IT+0x5c>
 8004ec8:	687b      	ldr	r3, [r7, #4]
 8004eca:	f893 3040 	ldrb.w	r3, [r3, #64]	; 0x40
 8004ece:	b2db      	uxtb	r3, r3
 8004ed0:	2b01      	cmp	r3, #1
 8004ed2:	bf14      	ite	ne
 8004ed4:	2301      	movne	r3, #1
 8004ed6:	2300      	moveq	r3, #0
 8004ed8:	b2db      	uxtb	r3, r3
 8004eda:	e008      	b.n	8004eee <HAL_TIM_OC_Start_IT+0x6e>
 8004edc:	687b      	ldr	r3, [r7, #4]
 8004ede:	f893 3041 	ldrb.w	r3, [r3, #65]	; 0x41
 8004ee2:	b2db      	uxtb	r3, r3
 8004ee4:	2b01      	cmp	r3, #1
 8004ee6:	bf14      	ite	ne
 8004ee8:	2301      	movne	r3, #1
 8004eea:	2300      	moveq	r3, #0
 8004eec:	b2db      	uxtb	r3, r3
 8004eee:	2b00      	cmp	r3, #0
 8004ef0:	d001      	beq.n	8004ef6 <HAL_TIM_OC_Start_IT+0x76>
 8004ef2:	2301      	movs	r3, #1
 8004ef4:	e0b3      	b.n	800505e <HAL_TIM_OC_Start_IT+0x1de>
 8004ef6:	683b      	ldr	r3, [r7, #0]
 8004ef8:	2b00      	cmp	r3, #0
 8004efa:	d104      	bne.n	8004f06 <HAL_TIM_OC_Start_IT+0x86>
 8004efc:	687b      	ldr	r3, [r7, #4]
 8004efe:	2202      	movs	r2, #2
 8004f00:	f883 203e 	strb.w	r2, [r3, #62]	; 0x3e
 8004f04:	e013      	b.n	8004f2e <HAL_TIM_OC_Start_IT+0xae>
 8004f06:	683b      	ldr	r3, [r7, #0]
 8004f08:	2b04      	cmp	r3, #4
 8004f0a:	d104      	bne.n	8004f16 <HAL_TIM_OC_Start_IT+0x96>
 8004f0c:	687b      	ldr	r3, [r7, #4]
 8004f0e:	2202      	movs	r2, #2
 8004f10:	f883 203f 	strb.w	r2, [r3, #63]	; 0x3f
 8004f14:	e00b      	b.n	8004f2e <HAL_TIM_OC_Start_IT+0xae>
 8004f16:	683b      	ldr	r3, [r7, #0]
 8004f18:	2b08      	cmp	r3, #8
 8004f1a:	d104      	bne.n	8004f26 <HAL_TIM_OC_Start_IT+0xa6>
 8004f1c:	687b      	ldr	r3, [r7, #4]
 8004f1e:	2202      	movs	r2, #2
 8004f20:	f883 2040 	strb.w	r2, [r3, #64]	; 0x40
 8004f24:	e003      	b.n	8004f2e <HAL_TIM_OC_Start_IT+0xae>
 8004f26:	687b      	ldr	r3, [r7, #4]
 8004f28:	2202      	movs	r2, #2
 8004f2a:	f883 2041 	strb.w	r2, [r3, #65]	; 0x41
 8004f2e:	683b      	ldr	r3, [r7, #0]
 8004f30:	2b0c      	cmp	r3, #12
 8004f32:	d841      	bhi.n	8004fb8 <HAL_TIM_OC_Start_IT+0x138>
 8004f34:	a201      	add	r2, pc, #4	; (adr r2, 8004f3c <HAL_TIM_OC_Start_IT+0xbc>)
 8004f36:	f852 f023 	ldr.w	pc, [r2, r3, lsl #2]
 8004f3a:	bf00      	nop
 8004f3c:	08004f71 	.word	0x08004f71
 8004f40:	08004fb9 	.word	0x08004fb9
 8004f44:	08004fb9 	.word	0x08004fb9
 8004f48:	08004fb9 	.word	0x08004fb9
 8004f4c:	08004f83 	.word	0x08004f83
 8004f50:	08004fb9 	.word	0x08004fb9
 8004f54:	08004fb9 	.word	0x08004fb9
 8004f58:	08004fb9 	.word	0x08004fb9
 8004f5c:	08004f95 	.word	0x08004f95
 8004f60:	08004fb9 	.word	0x08004fb9
 8004f64:	08004fb9 	.word	0x08004fb9
 8004f68:	08004fb9 	.word	0x08004fb9
 8004f6c:	08004fa7 	.word	0x08004fa7
 8004f70:	687b      	ldr	r3, [r7, #4]
 8004f72:	681b      	ldr	r3, [r3, #0]
 8004f74:	68da      	ldr	r2, [r3, #12]
 8004f76:	687b      	ldr	r3, [r7, #4]
 8004f78:	681b      	ldr	r3, [r3, #0]
 8004f7a:	f042 0202 	orr.w	r2, r2, #2
 8004f7e:	60da      	str	r2, [r3, #12]
 8004f80:	e01d      	b.n	8004fbe <HAL_TIM_OC_Start_IT+0x13e>
 8004f82:	687b      	ldr	r3, [r7, #4]
 8004f84:	681b      	ldr	r3, [r3, #0]
 8004f86:	68da      	ldr	r2, [r3, #12]
 8004f88:	687b      	ldr	r3, [r7, #4]
 8004f8a:	681b      	ldr	r3, [r3, #0]
 8004f8c:	f042 0204 	orr.w	r2, r2, #4
 8004f90:	60da      	str	r2, [r3, #12]
 8004f92:	e014      	b.n	8004fbe <HAL_TIM_OC_Start_IT+0x13e>
 8004f94:	687b      	ldr	r3, [r7, #4]
 8004f96:	681b      	ldr	r3, [r3, #0]
 8004f98:	68da      	ldr	r2, [r3, #12]
 8004f9a:	687b      	ldr	r3, [r7, #4]
 8004f9c:	681b      	ldr	r3, [r3, #0]
 8004f9e:	f042 0208 	orr.w	r2, r2, #8
 8004fa2:	60da      	str	r2, [r3, #12]
 8004fa4:	e00b      	b.n	8004fbe <HAL_TIM_OC_Start_IT+0x13e>
 8004fa6:	687b      	ldr	r3, [r7, #4]
 8004fa8:	681b      	ldr	r3, [r3, #0]
 8004faa:	68da      	ldr	r2, [r3, #12]
 8004fac:	687b      	ldr	r3, [r7, #4]
 8004fae:	681b      	ldr	r3, [r3, #0]
 8004fb0:	f042 0210 	orr.w	r2, r2, #16
 8004fb4:	60da      	str	r2, [r3, #12]
 8004fb6:	e002      	b.n	8004fbe <HAL_TIM_OC_Start_IT+0x13e>
 8004fb8:	2301      	movs	r3, #1
 8004fba:	73fb      	strb	r3, [r7, #15]
 8004fbc:	bf00      	nop
 8004fbe:	7bfb      	ldrb	r3, [r7, #15]
 8004fc0:	2b00      	cmp	r3, #0
 8004fc2:	d14b      	bne.n	800505c <HAL_TIM_OC_Start_IT+0x1dc>
 8004fc4:	687b      	ldr	r3, [r7, #4]
 8004fc6:	681b      	ldr	r3, [r3, #0]
 8004fc8:	2201      	movs	r2, #1
 8004fca:	6839      	ldr	r1, [r7, #0]
 8004fcc:	4618      	mov	r0, r3
 8004fce:	f000 fdf7 	bl	8005bc0 <TIM_CCxChannelCmd>
 8004fd2:	687b      	ldr	r3, [r7, #4]
 8004fd4:	681b      	ldr	r3, [r3, #0]
 8004fd6:	4a24      	ldr	r2, [pc, #144]	; (8005068 <HAL_TIM_OC_Start_IT+0x1e8>)
 8004fd8:	4293      	cmp	r3, r2
 8004fda:	d107      	bne.n	8004fec <HAL_TIM_OC_Start_IT+0x16c>
 8004fdc:	687b      	ldr	r3, [r7, #4]
 8004fde:	681b      	ldr	r3, [r3, #0]
 8004fe0:	6c5a      	ldr	r2, [r3, #68]	; 0x44
 8004fe2:	687b      	ldr	r3, [r7, #4]
 8004fe4:	681b      	ldr	r3, [r3, #0]
 8004fe6:	f442 4200 	orr.w	r2, r2, #32768	; 0x8000
 8004fea:	645a      	str	r2, [r3, #68]	; 0x44
 8004fec:	687b      	ldr	r3, [r7, #4]
 8004fee:	681b      	ldr	r3, [r3, #0]
 8004ff0:	4a1d      	ldr	r2, [pc, #116]	; (8005068 <HAL_TIM_OC_Start_IT+0x1e8>)
 8004ff2:	4293      	cmp	r3, r2
 8004ff4:	d018      	beq.n	8005028 <HAL_TIM_OC_Start_IT+0x1a8>
 8004ff6:	687b      	ldr	r3, [r7, #4]
 8004ff8:	681b      	ldr	r3, [r3, #0]
 8004ffa:	f1b3 4f80 	cmp.w	r3, #1073741824	; 0x40000000
 8004ffe:	d013      	beq.n	8005028 <HAL_TIM_OC_Start_IT+0x1a8>
 8005000:	687b      	ldr	r3, [r7, #4]
 8005002:	681b      	ldr	r3, [r3, #0]
 8005004:	4a19      	ldr	r2, [pc, #100]	; (800506c <HAL_TIM_OC_Start_IT+0x1ec>)
 8005006:	4293      	cmp	r3, r2
 8005008:	d00e      	beq.n	8005028 <HAL_TIM_OC_Start_IT+0x1a8>
 800500a:	687b      	ldr	r3, [r7, #4]
 800500c:	681b      	ldr	r3, [r3, #0]
 800500e:	4a18      	ldr	r2, [pc, #96]	; (8005070 <HAL_TIM_OC_Start_IT+0x1f0>)
 8005010:	4293      	cmp	r3, r2
 8005012:	d009      	beq.n	8005028 <HAL_TIM_OC_Start_IT+0x1a8>
 8005014:	687b      	ldr	r3, [r7, #4]
 8005016:	681b      	ldr	r3, [r3, #0]
 8005018:	4a16      	ldr	r2, [pc, #88]	; (8005074 <HAL_TIM_OC_Start_IT+0x1f4>)
 800501a:	4293      	cmp	r3, r2
 800501c:	d004      	beq.n	8005028 <HAL_TIM_OC_Start_IT+0x1a8>
 800501e:	687b      	ldr	r3, [r7, #4]
 8005020:	681b      	ldr	r3, [r3, #0]
 8005022:	4a15      	ldr	r2, [pc, #84]	; (8005078 <HAL_TIM_OC_Start_IT+0x1f8>)
 8005024:	4293      	cmp	r3, r2
 8005026:	d111      	bne.n	800504c <HAL_TIM_OC_Start_IT+0x1cc>
 8005028:	687b      	ldr	r3, [r7, #4]
 800502a:	681b      	ldr	r3, [r3, #0]
 800502c:	689b      	ldr	r3, [r3, #8]
 800502e:	f003 0307 	and.w	r3, r3, #7
 8005032:	60bb      	str	r3, [r7, #8]
 8005034:	68bb      	ldr	r3, [r7, #8]
 8005036:	2b06      	cmp	r3, #6
 8005038:	d010      	beq.n	800505c <HAL_TIM_OC_Start_IT+0x1dc>
 800503a:	687b      	ldr	r3, [r7, #4]
 800503c:	681b      	ldr	r3, [r3, #0]
 800503e:	681a      	ldr	r2, [r3, #0]
 8005040:	687b      	ldr	r3, [r7, #4]
 8005042:	681b      	ldr	r3, [r3, #0]
 8005044:	f042 0201 	orr.w	r2, r2, #1
 8005048:	601a      	str	r2, [r3, #0]
 800504a:	e007      	b.n	800505c <HAL_TIM_OC_Start_IT+0x1dc>
 800504c:	687b      	ldr	r3, [r7, #4]
 800504e:	681b      	ldr	r3, [r3, #0]
 8005050:	681a      	ldr	r2, [r3, #0]
 8005052:	687b      	ldr	r3, [r7, #4]
 8005054:	681b      	ldr	r3, [r3, #0]
 8005056:	f042 0201 	orr.w	r2, r2, #1
 800505a:	601a      	str	r2, [r3, #0]
 800505c:	7bfb      	ldrb	r3, [r7, #15]
 800505e:	4618      	mov	r0, r3
 8005060:	3710      	adds	r7, #16
 8005062:	46bd      	mov	sp, r7
 8005064:	bd80      	pop	{r7, pc}
 8005066:	bf00      	nop
 8005068:	40010000 	.word	0x40010000
 800506c:	40000400 	.word	0x40000400
 8005070:	40000800 	.word	0x40000800
 8005074:	40000c00 	.word	0x40000c00
 8005078:	40014000 	.word	0x40014000

0800507c <HAL_TIM_OC_Stop_IT>:
 800507c:	b580      	push	{r7, lr}
 800507e:	b084      	sub	sp, #16
 8005080:	af00      	add	r7, sp, #0
 8005082:	6078      	str	r0, [r7, #4]
 8005084:	6039      	str	r1, [r7, #0]
 8005086:	2300      	movs	r3, #0
 8005088:	73fb      	strb	r3, [r7, #15]
 800508a:	683b      	ldr	r3, [r7, #0]
 800508c:	2b0c      	cmp	r3, #12
 800508e:	d841      	bhi.n	8005114 <HAL_TIM_OC_Stop_IT+0x98>
 8005090:	a201      	add	r2, pc, #4	; (adr r2, 8005098 <HAL_TIM_OC_Stop_IT+0x1c>)
 8005092:	f852 f023 	ldr.w	pc, [r2, r3, lsl #2]
 8005096:	bf00      	nop
 8005098:	080050cd 	.word	0x080050cd
 800509c:	08005115 	.word	0x08005115
 80050a0:	08005115 	.word	0x08005115
 80050a4:	08005115 	.word	0x08005115
 80050a8:	080050df 	.word	0x080050df
 80050ac:	08005115 	.word	0x08005115
 80050b0:	08005115 	.word	0x08005115
 80050b4:	08005115 	.word	0x08005115
 80050b8:	080050f1 	.word	0x080050f1
 80050bc:	08005115 	.word	0x08005115
 80050c0:	08005115 	.word	0x08005115
 80050c4:	08005115 	.word	0x08005115
 80050c8:	08005103 	.word	0x08005103
 80050cc:	687b      	ldr	r3, [r7, #4]
 80050ce:	681b      	ldr	r3, [r3, #0]
 80050d0:	68da      	ldr	r2, [r3, #12]
 80050d2:	687b      	ldr	r3, [r7, #4]
 80050d4:	681b      	ldr	r3, [r3, #0]
 80050d6:	f022 0202 	bic.w	r2, r2, #2
 80050da:	60da      	str	r2, [r3, #12]
 80050dc:	e01d      	b.n	800511a <HAL_TIM_OC_Stop_IT+0x9e>
 80050de:	687b      	ldr	r3, [r7, #4]
 80050e0:	681b      	ldr	r3, [r3, #0]
 80050e2:	68da      	ldr	r2, [r3, #12]
 80050e4:	687b      	ldr	r3, [r7, #4]
 80050e6:	681b      	ldr	r3, [r3, #0]
 80050e8:	f022 0204 	bic.w	r2, r2, #4
 80050ec:	60da      	str	r2, [r3, #12]
 80050ee:	e014      	b.n	800511a <HAL_TIM_OC_Stop_IT+0x9e>
 80050f0:	687b      	ldr	r3, [r7, #4]
 80050f2:	681b      	ldr	r3, [r3, #0]
 80050f4:	68da      	ldr	r2, [r3, #12]
 80050f6:	687b      	ldr	r3, [r7, #4]
 80050f8:	681b      	ldr	r3, [r3, #0]
 80050fa:	f022 0208 	bic.w	r2, r2, #8
 80050fe:	60da      	str	r2, [r3, #12]
 8005100:	e00b      	b.n	800511a <HAL_TIM_OC_Stop_IT+0x9e>
 8005102:	687b      	ldr	r3, [r7, #4]
 8005104:	681b      	ldr	r3, [r3, #0]
 8005106:	68da      	ldr	r2, [r3, #12]
 8005108:	687b      	ldr	r3, [r7, #4]
 800510a:	681b      	ldr	r3, [r3, #0]
 800510c:	f022 0210 	bic.w	r2, r2, #16
 8005110:	60da      	str	r2, [r3, #12]
 8005112:	e002      	b.n	800511a <HAL_TIM_OC_Stop_IT+0x9e>
 8005114:	2301      	movs	r3, #1
 8005116:	73fb      	strb	r3, [r7, #15]
 8005118:	bf00      	nop
 800511a:	7bfb      	ldrb	r3, [r7, #15]
 800511c:	2b00      	cmp	r3, #0
 800511e:	d157      	bne.n	80051d0 <HAL_TIM_OC_Stop_IT+0x154>
 8005120:	687b      	ldr	r3, [r7, #4]
 8005122:	681b      	ldr	r3, [r3, #0]
 8005124:	2200      	movs	r2, #0
 8005126:	6839      	ldr	r1, [r7, #0]
 8005128:	4618      	mov	r0, r3
 800512a:	f000 fd49 	bl	8005bc0 <TIM_CCxChannelCmd>
 800512e:	687b      	ldr	r3, [r7, #4]
 8005130:	681b      	ldr	r3, [r3, #0]
 8005132:	4a2a      	ldr	r2, [pc, #168]	; (80051dc <HAL_TIM_OC_Stop_IT+0x160>)
 8005134:	4293      	cmp	r3, r2
 8005136:	d117      	bne.n	8005168 <HAL_TIM_OC_Stop_IT+0xec>
 8005138:	687b      	ldr	r3, [r7, #4]
 800513a:	681b      	ldr	r3, [r3, #0]
 800513c:	6a1a      	ldr	r2, [r3, #32]
 800513e:	f241 1311 	movw	r3, #4369	; 0x1111
 8005142:	4013      	ands	r3, r2
 8005144:	2b00      	cmp	r3, #0
 8005146:	d10f      	bne.n	8005168 <HAL_TIM_OC_Stop_IT+0xec>
 8005148:	687b      	ldr	r3, [r7, #4]
 800514a:	681b      	ldr	r3, [r3, #0]
 800514c:	6a1a      	ldr	r2, [r3, #32]
 800514e:	f240 4344 	movw	r3, #1092	; 0x444
 8005152:	4013      	ands	r3, r2
 8005154:	2b00      	cmp	r3, #0
 8005156:	d107      	bne.n	8005168 <HAL_TIM_OC_Stop_IT+0xec>
 8005158:	687b      	ldr	r3, [r7, #4]
 800515a:	681b      	ldr	r3, [r3, #0]
 800515c:	6c5a      	ldr	r2, [r3, #68]	; 0x44
 800515e:	687b      	ldr	r3, [r7, #4]
 8005160:	681b      	ldr	r3, [r3, #0]
 8005162:	f422 4200 	bic.w	r2, r2, #32768	; 0x8000
 8005166:	645a      	str	r2, [r3, #68]	; 0x44
 8005168:	687b      	ldr	r3, [r7, #4]
 800516a:	681b      	ldr	r3, [r3, #0]
 800516c:	6a1a      	ldr	r2, [r3, #32]
 800516e:	f241 1311 	movw	r3, #4369	; 0x1111
 8005172:	4013      	ands	r3, r2
 8005174:	2b00      	cmp	r3, #0
 8005176:	d10f      	bne.n	8005198 <HAL_TIM_OC_Stop_IT+0x11c>
 8005178:	687b      	ldr	r3, [r7, #4]
 800517a:	681b      	ldr	r3, [r3, #0]
 800517c:	6a1a      	ldr	r2, [r3, #32]
 800517e:	f240 4344 	movw	r3, #1092	; 0x444
 8005182:	4013      	ands	r3, r2
 8005184:	2b00      	cmp	r3, #0
 8005186:	d107      	bne.n	8005198 <HAL_TIM_OC_Stop_IT+0x11c>
 8005188:	687b      	ldr	r3, [r7, #4]
 800518a:	681b      	ldr	r3, [r3, #0]
 800518c:	681a      	ldr	r2, [r3, #0]
 800518e:	687b      	ldr	r3, [r7, #4]
 8005190:	681b      	ldr	r3, [r3, #0]
 8005192:	f022 0201 	bic.w	r2, r2, #1
 8005196:	601a      	str	r2, [r3, #0]
 8005198:	683b      	ldr	r3, [r7, #0]
 800519a:	2b00      	cmp	r3, #0
 800519c:	d104      	bne.n	80051a8 <HAL_TIM_OC_Stop_IT+0x12c>
 800519e:	687b      	ldr	r3, [r7, #4]
 80051a0:	2201      	movs	r2, #1
 80051a2:	f883 203e 	strb.w	r2, [r3, #62]	; 0x3e
 80051a6:	e013      	b.n	80051d0 <HAL_TIM_OC_Stop_IT+0x154>
 80051a8:	683b      	ldr	r3, [r7, #0]
 80051aa:	2b04      	cmp	r3, #4
 80051ac:	d104      	bne.n	80051b8 <HAL_TIM_OC_Stop_IT+0x13c>
 80051ae:	687b      	ldr	r3, [r7, #4]
 80051b0:	2201      	movs	r2, #1
 80051b2:	f883 203f 	strb.w	r2, [r3, #63]	; 0x3f
 80051b6:	e00b      	b.n	80051d0 <HAL_TIM_OC_Stop_IT+0x154>
 80051b8:	683b      	ldr	r3, [r7, #0]
 80051ba:	2b08      	cmp	r3, #8
 80051bc:	d104      	bne.n	80051c8 <HAL_TIM_OC_Stop_IT+0x14c>
 80051be:	687b      	ldr	r3, [r7, #4]
 80051c0:	2201      	movs	r2, #1
 80051c2:	f883 2040 	strb.w	r2, [r3, #64]	; 0x40
 80051c6:	e003      	b.n	80051d0 <HAL_TIM_OC_Stop_IT+0x154>
 80051c8:	687b      	ldr	r3, [r7, #4]
 80051ca:	2201      	movs	r2, #1
 80051cc:	f883 2041 	strb.w	r2, [r3, #65]	; 0x41
 80051d0:	7bfb      	ldrb	r3, [r7, #15]
 80051d2:	4618      	mov	r0, r3
 80051d4:	3710      	adds	r7, #16
 80051d6:	46bd      	mov	sp, r7
 80051d8:	bd80      	pop	{r7, pc}
 80051da:	bf00      	nop
 80051dc:	40010000 	.word	0x40010000

080051e0 <HAL_TIM_IRQHandler>:
 80051e0:	b580      	push	{r7, lr}
 80051e2:	b082      	sub	sp, #8
 80051e4:	af00      	add	r7, sp, #0
 80051e6:	6078      	str	r0, [r7, #4]
 80051e8:	687b      	ldr	r3, [r7, #4]
 80051ea:	681b      	ldr	r3, [r3, #0]
 80051ec:	691b      	ldr	r3, [r3, #16]
 80051ee:	f003 0302 	and.w	r3, r3, #2
 80051f2:	2b02      	cmp	r3, #2
 80051f4:	d122      	bne.n	800523c <HAL_TIM_IRQHandler+0x5c>
 80051f6:	687b      	ldr	r3, [r7, #4]
 80051f8:	681b      	ldr	r3, [r3, #0]
 80051fa:	68db      	ldr	r3, [r3, #12]
 80051fc:	f003 0302 	and.w	r3, r3, #2
 8005200:	2b02      	cmp	r3, #2
 8005202:	d11b      	bne.n	800523c <HAL_TIM_IRQHandler+0x5c>
 8005204:	687b      	ldr	r3, [r7, #4]
 8005206:	681b      	ldr	r3, [r3, #0]
 8005208:	f06f 0202 	mvn.w	r2, #2
 800520c:	611a      	str	r2, [r3, #16]
 800520e:	687b      	ldr	r3, [r7, #4]
 8005210:	2201      	movs	r2, #1
 8005212:	771a      	strb	r2, [r3, #28]
 8005214:	687b      	ldr	r3, [r7, #4]
 8005216:	681b      	ldr	r3, [r3, #0]
 8005218:	699b      	ldr	r3, [r3, #24]
 800521a:	f003 0303 	and.w	r3, r3, #3
 800521e:	2b00      	cmp	r3, #0
 8005220:	d003      	beq.n	800522a <HAL_TIM_IRQHandler+0x4a>
 8005222:	6878      	ldr	r0, [r7, #4]
 8005224:	f000 fa07 	bl	8005636 <HAL_TIM_IC_CaptureCallback>
 8005228:	e005      	b.n	8005236 <HAL_TIM_IRQHandler+0x56>
 800522a:	6878      	ldr	r0, [r7, #4]
 800522c:	f7fb fd6e 	bl	8000d0c <HAL_TIM_OC_DelayElapsedCallback>
 8005230:	6878      	ldr	r0, [r7, #4]
 8005232:	f000 fa0a 	bl	800564a <HAL_TIM_PWM_PulseFinishedCallback>
 8005236:	687b      	ldr	r3, [r7, #4]
 8005238:	2200      	movs	r2, #0
 800523a:	771a      	strb	r2, [r3, #28]
 800523c:	687b      	ldr	r3, [r7, #4]
 800523e:	681b      	ldr	r3, [r3, #0]
 8005240:	691b      	ldr	r3, [r3, #16]
 8005242:	f003 0304 	and.w	r3, r3, #4
 8005246:	2b04      	cmp	r3, #4
 8005248:	d122      	bne.n	8005290 <HAL_TIM_IRQHandler+0xb0>
 800524a:	687b      	ldr	r3, [r7, #4]
 800524c:	681b      	ldr	r3, [r3, #0]
 800524e:	68db      	ldr	r3, [r3, #12]
 8005250:	f003 0304 	and.w	r3, r3, #4
 8005254:	2b04      	cmp	r3, #4
 8005256:	d11b      	bne.n	8005290 <HAL_TIM_IRQHandler+0xb0>
 8005258:	687b      	ldr	r3, [r7, #4]
 800525a:	681b      	ldr	r3, [r3, #0]
 800525c:	f06f 0204 	mvn.w	r2, #4
 8005260:	611a      	str	r2, [r3, #16]
 8005262:	687b      	ldr	r3, [r7, #4]
 8005264:	2202      	movs	r2, #2
 8005266:	771a      	strb	r2, [r3, #28]
 8005268:	687b      	ldr	r3, [r7, #4]
 800526a:	681b      	ldr	r3, [r3, #0]
 800526c:	699b      	ldr	r3, [r3, #24]
 800526e:	f403 7340 	and.w	r3, r3, #768	; 0x300
 8005272:	2b00      	cmp	r3, #0
 8005274:	d003      	beq.n	800527e <HAL_TIM_IRQHandler+0x9e>
 8005276:	6878      	ldr	r0, [r7, #4]
 8005278:	f000 f9dd 	bl	8005636 <HAL_TIM_IC_CaptureCallback>
 800527c:	e005      	b.n	800528a <HAL_TIM_IRQHandler+0xaa>
 800527e:	6878      	ldr	r0, [r7, #4]
 8005280:	f7fb fd44 	bl	8000d0c <HAL_TIM_OC_DelayElapsedCallback>
 8005284:	6878      	ldr	r0, [r7, #4]
 8005286:	f000 f9e0 	bl	800564a <HAL_TIM_PWM_PulseFinishedCallback>
 800528a:	687b      	ldr	r3, [r7, #4]
 800528c:	2200      	movs	r2, #0
 800528e:	771a      	strb	r2, [r3, #28]
 8005290:	687b      	ldr	r3, [r7, #4]
 8005292:	681b      	ldr	r3, [r3, #0]
 8005294:	691b      	ldr	r3, [r3, #16]
 8005296:	f003 0308 	and.w	r3, r3, #8
 800529a:	2b08      	cmp	r3, #8
 800529c:	d122      	bne.n	80052e4 <HAL_TIM_IRQHandler+0x104>
 800529e:	687b      	ldr	r3, [r7, #4]
 80052a0:	681b      	ldr	r3, [r3, #0]
 80052a2:	68db      	ldr	r3, [r3, #12]
 80052a4:	f003 0308 	and.w	r3, r3, #8
 80052a8:	2b08      	cmp	r3, #8
 80052aa:	d11b      	bne.n	80052e4 <HAL_TIM_IRQHandler+0x104>
 80052ac:	687b      	ldr	r3, [r7, #4]
 80052ae:	681b      	ldr	r3, [r3, #0]
 80052b0:	f06f 0208 	mvn.w	r2, #8
 80052b4:	611a      	str	r2, [r3, #16]
 80052b6:	687b      	ldr	r3, [r7, #4]
 80052b8:	2204      	movs	r2, #4
 80052ba:	771a      	strb	r2, [r3, #28]
 80052bc:	687b      	ldr	r3, [r7, #4]
 80052be:	681b      	ldr	r3, [r3, #0]
 80052c0:	69db      	ldr	r3, [r3, #28]
 80052c2:	f003 0303 	and.w	r3, r3, #3
 80052c6:	2b00      	cmp	r3, #0
 80052c8:	d003      	beq.n	80052d2 <HAL_TIM_IRQHandler+0xf2>
 80052ca:	6878      	ldr	r0, [r7, #4]
 80052cc:	f000 f9b3 	bl	8005636 <HAL_TIM_IC_CaptureCallback>
 80052d0:	e005      	b.n	80052de <HAL_TIM_IRQHandler+0xfe>
 80052d2:	6878      	ldr	r0, [r7, #4]
 80052d4:	f7fb fd1a 	bl	8000d0c <HAL_TIM_OC_DelayElapsedCallback>
 80052d8:	6878      	ldr	r0, [r7, #4]
 80052da:	f000 f9b6 	bl	800564a <HAL_TIM_PWM_PulseFinishedCallback>
 80052de:	687b      	ldr	r3, [r7, #4]
 80052e0:	2200      	movs	r2, #0
 80052e2:	771a      	strb	r2, [r3, #28]
 80052e4:	687b      	ldr	r3, [r7, #4]
 80052e6:	681b      	ldr	r3, [r3, #0]
 80052e8:	691b      	ldr	r3, [r3, #16]
 80052ea:	f003 0310 	and.w	r3, r3, #16
 80052ee:	2b10      	cmp	r3, #16
 80052f0:	d122      	bne.n	8005338 <HAL_TIM_IRQHandler+0x158>
 80052f2:	687b      	ldr	r3, [r7, #4]
 80052f4:	681b      	ldr	r3, [r3, #0]
 80052f6:	68db      	ldr	r3, [r3, #12]
 80052f8:	f003 0310 	and.w	r3, r3, #16
 80052fc:	2b10      	cmp	r3, #16
 80052fe:	d11b      	bne.n	8005338 <HAL_TIM_IRQHandler+0x158>
 8005300:	687b      	ldr	r3, [r7, #4]
 8005302:	681b      	ldr	r3, [r3, #0]
 8005304:	f06f 0210 	mvn.w	r2, #16
 8005308:	611a      	str	r2, [r3, #16]
 800530a:	687b      	ldr	r3, [r7, #4]
 800530c:	2208      	movs	r2, #8
 800530e:	771a      	strb	r2, [r3, #28]
 8005310:	687b      	ldr	r3, [r7, #4]
 8005312:	681b      	ldr	r3, [r3, #0]
 8005314:	69db      	ldr	r3, [r3, #28]
 8005316:	f403 7340 	and.w	r3, r3, #768	; 0x300
 800531a:	2b00      	cmp	r3, #0
 800531c:	d003      	beq.n	8005326 <HAL_TIM_IRQHandler+0x146>
 800531e:	6878      	ldr	r0, [r7, #4]
 8005320:	f000 f989 	bl	8005636 <HAL_TIM_IC_CaptureCallback>
 8005324:	e005      	b.n	8005332 <HAL_TIM_IRQHandler+0x152>
 8005326:	6878      	ldr	r0, [r7, #4]
 8005328:	f7fb fcf0 	bl	8000d0c <HAL_TIM_OC_DelayElapsedCallback>
 800532c:	6878      	ldr	r0, [r7, #4]
 800532e:	f000 f98c 	bl	800564a <HAL_TIM_PWM_PulseFinishedCallback>
 8005332:	687b      	ldr	r3, [r7, #4]
 8005334:	2200      	movs	r2, #0
 8005336:	771a      	strb	r2, [r3, #28]
 8005338:	687b      	ldr	r3, [r7, #4]
 800533a:	681b      	ldr	r3, [r3, #0]
 800533c:	691b      	ldr	r3, [r3, #16]
 800533e:	f003 0301 	and.w	r3, r3, #1
 8005342:	2b01      	cmp	r3, #1
 8005344:	d10e      	bne.n	8005364 <HAL_TIM_IRQHandler+0x184>
 8005346:	687b      	ldr	r3, [r7, #4]
 8005348:	681b      	ldr	r3, [r3, #0]
 800534a:	68db      	ldr	r3, [r3, #12]
 800534c:	f003 0301 	and.w	r3, r3, #1
 8005350:	2b01      	cmp	r3, #1
 8005352:	d107      	bne.n	8005364 <HAL_TIM_IRQHandler+0x184>
 8005354:	687b      	ldr	r3, [r7, #4]
 8005356:	681b      	ldr	r3, [r3, #0]
 8005358:	f06f 0201 	mvn.w	r2, #1
 800535c:	611a      	str	r2, [r3, #16]
 800535e:	6878      	ldr	r0, [r7, #4]
 8005360:	f7fb fd08 	bl	8000d74 <HAL_TIM_PeriodElapsedCallback>
 8005364:	687b      	ldr	r3, [r7, #4]
 8005366:	681b      	ldr	r3, [r3, #0]
 8005368:	691b      	ldr	r3, [r3, #16]
 800536a:	f003 0380 	and.w	r3, r3, #128	; 0x80
 800536e:	2b80      	cmp	r3, #128	; 0x80
 8005370:	d10e      	bne.n	8005390 <HAL_TIM_IRQHandler+0x1b0>
 8005372:	687b      	ldr	r3, [r7, #4]
 8005374:	681b      	ldr	r3, [r3, #0]
 8005376:	68db      	ldr	r3, [r3, #12]
 8005378:	f003 0380 	and.w	r3, r3, #128	; 0x80
 800537c:	2b80      	cmp	r3, #128	; 0x80
 800537e:	d107      	bne.n	8005390 <HAL_TIM_IRQHandler+0x1b0>
 8005380:	687b      	ldr	r3, [r7, #4]
 8005382:	681b      	ldr	r3, [r3, #0]
 8005384:	f06f 0280 	mvn.w	r2, #128	; 0x80
 8005388:	611a      	str	r2, [r3, #16]
 800538a:	6878      	ldr	r0, [r7, #4]
 800538c:	f000 fd08 	bl	8005da0 <HAL_TIMEx_BreakCallback>
 8005390:	687b      	ldr	r3, [r7, #4]
 8005392:	681b      	ldr	r3, [r3, #0]
 8005394:	691b      	ldr	r3, [r3, #16]
 8005396:	f003 0340 	and.w	r3, r3, #64	; 0x40
 800539a:	2b40      	cmp	r3, #64	; 0x40
 800539c:	d10e      	bne.n	80053bc <HAL_TIM_IRQHandler+0x1dc>
 800539e:	687b      	ldr	r3, [r7, #4]
 80053a0:	681b      	ldr	r3, [r3, #0]
 80053a2:	68db      	ldr	r3, [r3, #12]
 80053a4:	f003 0340 	and.w	r3, r3, #64	; 0x40
 80053a8:	2b40      	cmp	r3, #64	; 0x40
 80053aa:	d107      	bne.n	80053bc <HAL_TIM_IRQHandler+0x1dc>
 80053ac:	687b      	ldr	r3, [r7, #4]
 80053ae:	681b      	ldr	r3, [r3, #0]
 80053b0:	f06f 0240 	mvn.w	r2, #64	; 0x40
 80053b4:	611a      	str	r2, [r3, #16]
 80053b6:	6878      	ldr	r0, [r7, #4]
 80053b8:	f000 f951 	bl	800565e <HAL_TIM_TriggerCallback>
 80053bc:	687b      	ldr	r3, [r7, #4]
 80053be:	681b      	ldr	r3, [r3, #0]
 80053c0:	691b      	ldr	r3, [r3, #16]
 80053c2:	f003 0320 	and.w	r3, r3, #32
 80053c6:	2b20      	cmp	r3, #32
 80053c8:	d10e      	bne.n	80053e8 <HAL_TIM_IRQHandler+0x208>
 80053ca:	687b      	ldr	r3, [r7, #4]
 80053cc:	681b      	ldr	r3, [r3, #0]
 80053ce:	68db      	ldr	r3, [r3, #12]
 80053d0:	f003 0320 	and.w	r3, r3, #32
 80053d4:	2b20      	cmp	r3, #32
 80053d6:	d107      	bne.n	80053e8 <HAL_TIM_IRQHandler+0x208>
 80053d8:	687b      	ldr	r3, [r7, #4]
 80053da:	681b      	ldr	r3, [r3, #0]
 80053dc:	f06f 0220 	mvn.w	r2, #32
 80053e0:	611a      	str	r2, [r3, #16]
 80053e2:	6878      	ldr	r0, [r7, #4]
 80053e4:	f000 fcd2 	bl	8005d8c <HAL_TIMEx_CommutCallback>
 80053e8:	bf00      	nop
 80053ea:	3708      	adds	r7, #8
 80053ec:	46bd      	mov	sp, r7
 80053ee:	bd80      	pop	{r7, pc}

080053f0 <HAL_TIM_OC_ConfigChannel>:
 80053f0:	b580      	push	{r7, lr}
 80053f2:	b086      	sub	sp, #24
 80053f4:	af00      	add	r7, sp, #0
 80053f6:	60f8      	str	r0, [r7, #12]
 80053f8:	60b9      	str	r1, [r7, #8]
 80053fa:	607a      	str	r2, [r7, #4]
 80053fc:	2300      	movs	r3, #0
 80053fe:	75fb      	strb	r3, [r7, #23]
 8005400:	68fb      	ldr	r3, [r7, #12]
 8005402:	f893 303c 	ldrb.w	r3, [r3, #60]	; 0x3c
 8005406:	2b01      	cmp	r3, #1
 8005408:	d101      	bne.n	800540e <HAL_TIM_OC_ConfigChannel+0x1e>
 800540a:	2302      	movs	r3, #2
 800540c:	e048      	b.n	80054a0 <HAL_TIM_OC_ConfigChannel+0xb0>
 800540e:	68fb      	ldr	r3, [r7, #12]
 8005410:	2201      	movs	r2, #1
 8005412:	f883 203c 	strb.w	r2, [r3, #60]	; 0x3c
 8005416:	687b      	ldr	r3, [r7, #4]
 8005418:	2b0c      	cmp	r3, #12
 800541a:	d839      	bhi.n	8005490 <HAL_TIM_OC_ConfigChannel+0xa0>
 800541c:	a201      	add	r2, pc, #4	; (adr r2, 8005424 <HAL_TIM_OC_ConfigChannel+0x34>)
 800541e:	f852 f023 	ldr.w	pc, [r2, r3, lsl #2]
 8005422:	bf00      	nop
 8005424:	08005459 	.word	0x08005459
 8005428:	08005491 	.word	0x08005491
 800542c:	08005491 	.word	0x08005491
 8005430:	08005491 	.word	0x08005491
 8005434:	08005467 	.word	0x08005467
 8005438:	08005491 	.word	0x08005491
 800543c:	08005491 	.word	0x08005491
 8005440:	08005491 	.word	0x08005491
 8005444:	08005475 	.word	0x08005475
 8005448:	08005491 	.word	0x08005491
 800544c:	08005491 	.word	0x08005491
 8005450:	08005491 	.word	0x08005491
 8005454:	08005483 	.word	0x08005483
 8005458:	68fb      	ldr	r3, [r7, #12]
 800545a:	681b      	ldr	r3, [r3, #0]
 800545c:	68b9      	ldr	r1, [r7, #8]
 800545e:	4618      	mov	r0, r3
 8005460:	f000 f988 	bl	8005774 <TIM_OC1_SetConfig>
 8005464:	e017      	b.n	8005496 <HAL_TIM_OC_ConfigChannel+0xa6>
 8005466:	68fb      	ldr	r3, [r7, #12]
 8005468:	681b      	ldr	r3, [r3, #0]
 800546a:	68b9      	ldr	r1, [r7, #8]
 800546c:	4618      	mov	r0, r3
 800546e:	f000 f9e7 	bl	8005840 <TIM_OC2_SetConfig>
 8005472:	e010      	b.n	8005496 <HAL_TIM_OC_ConfigChannel+0xa6>
 8005474:	68fb      	ldr	r3, [r7, #12]
 8005476:	681b      	ldr	r3, [r3, #0]
 8005478:	68b9      	ldr	r1, [r7, #8]
 800547a:	4618      	mov	r0, r3
 800547c:	f000 fa4c 	bl	8005918 <TIM_OC3_SetConfig>
 8005480:	e009      	b.n	8005496 <HAL_TIM_OC_ConfigChannel+0xa6>
 8005482:	68fb      	ldr	r3, [r7, #12]
 8005484:	681b      	ldr	r3, [r3, #0]
 8005486:	68b9      	ldr	r1, [r7, #8]
 8005488:	4618      	mov	r0, r3
 800548a:	f000 faaf 	bl	80059ec <TIM_OC4_SetConfig>
 800548e:	e002      	b.n	8005496 <HAL_TIM_OC_ConfigChannel+0xa6>
 8005490:	2301      	movs	r3, #1
 8005492:	75fb      	strb	r3, [r7, #23]
 8005494:	bf00      	nop
 8005496:	68fb      	ldr	r3, [r7, #12]
 8005498:	2200      	movs	r2, #0
 800549a:	f883 203c 	strb.w	r2, [r3, #60]	; 0x3c
 800549e:	7dfb      	ldrb	r3, [r7, #23]
 80054a0:	4618      	mov	r0, r3
 80054a2:	3718      	adds	r7, #24
 80054a4:	46bd      	mov	sp, r7
 80054a6:	bd80      	pop	{r7, pc}

080054a8 <HAL_TIM_ConfigClockSource>:
 80054a8:	b580      	push	{r7, lr}
 80054aa:	b084      	sub	sp, #16
 80054ac:	af00      	add	r7, sp, #0
 80054ae:	6078      	str	r0, [r7, #4]
 80054b0:	6039      	str	r1, [r7, #0]
 80054b2:	2300      	movs	r3, #0
 80054b4:	73fb      	strb	r3, [r7, #15]
 80054b6:	687b      	ldr	r3, [r7, #4]
 80054b8:	f893 303c 	ldrb.w	r3, [r3, #60]	; 0x3c
 80054bc:	2b01      	cmp	r3, #1
 80054be:	d101      	bne.n	80054c4 <HAL_TIM_ConfigClockSource+0x1c>
 80054c0:	2302      	movs	r3, #2
 80054c2:	e0b4      	b.n	800562e <HAL_TIM_ConfigClockSource+0x186>
 80054c4:	687b      	ldr	r3, [r7, #4]
 80054c6:	2201      	movs	r2, #1
 80054c8:	f883 203c 	strb.w	r2, [r3, #60]	; 0x3c
 80054cc:	687b      	ldr	r3, [r7, #4]
 80054ce:	2202      	movs	r2, #2
 80054d0:	f883 203d 	strb.w	r2, [r3, #61]	; 0x3d
 80054d4:	687b      	ldr	r3, [r7, #4]
 80054d6:	681b      	ldr	r3, [r3, #0]
 80054d8:	689b      	ldr	r3, [r3, #8]
 80054da:	60bb      	str	r3, [r7, #8]
 80054dc:	68bb      	ldr	r3, [r7, #8]
 80054de:	f023 0377 	bic.w	r3, r3, #119	; 0x77
 80054e2:	60bb      	str	r3, [r7, #8]
 80054e4:	68bb      	ldr	r3, [r7, #8]
 80054e6:	f423 437f 	bic.w	r3, r3, #65280	; 0xff00
 80054ea:	60bb      	str	r3, [r7, #8]
 80054ec:	687b      	ldr	r3, [r7, #4]
 80054ee:	681b      	ldr	r3, [r3, #0]
 80054f0:	68ba      	ldr	r2, [r7, #8]
 80054f2:	609a      	str	r2, [r3, #8]
 80054f4:	683b      	ldr	r3, [r7, #0]
 80054f6:	681b      	ldr	r3, [r3, #0]
 80054f8:	f5b3 5f00 	cmp.w	r3, #8192	; 0x2000
 80054fc:	d03e      	beq.n	800557c <HAL_TIM_ConfigClockSource+0xd4>
 80054fe:	f5b3 5f00 	cmp.w	r3, #8192	; 0x2000
 8005502:	f200 8087 	bhi.w	8005614 <HAL_TIM_ConfigClockSource+0x16c>
 8005506:	f5b3 5f80 	cmp.w	r3, #4096	; 0x1000
 800550a:	f000 8086 	beq.w	800561a <HAL_TIM_ConfigClockSource+0x172>
 800550e:	f5b3 5f80 	cmp.w	r3, #4096	; 0x1000
 8005512:	d87f      	bhi.n	8005614 <HAL_TIM_ConfigClockSource+0x16c>
 8005514:	2b70      	cmp	r3, #112	; 0x70
 8005516:	d01a      	beq.n	800554e <HAL_TIM_ConfigClockSource+0xa6>
 8005518:	2b70      	cmp	r3, #112	; 0x70
 800551a:	d87b      	bhi.n	8005614 <HAL_TIM_ConfigClockSource+0x16c>
 800551c:	2b60      	cmp	r3, #96	; 0x60
 800551e:	d050      	beq.n	80055c2 <HAL_TIM_ConfigClockSource+0x11a>
 8005520:	2b60      	cmp	r3, #96	; 0x60
 8005522:	d877      	bhi.n	8005614 <HAL_TIM_ConfigClockSource+0x16c>
 8005524:	2b50      	cmp	r3, #80	; 0x50
 8005526:	d03c      	beq.n	80055a2 <HAL_TIM_ConfigClockSource+0xfa>
 8005528:	2b50      	cmp	r3, #80	; 0x50
 800552a:	d873      	bhi.n	8005614 <HAL_TIM_ConfigClockSource+0x16c>
 800552c:	2b40      	cmp	r3, #64	; 0x40
 800552e:	d058      	beq.n	80055e2 <HAL_TIM_ConfigClockSource+0x13a>
 8005530:	2b40      	cmp	r3, #64	; 0x40
 8005532:	d86f      	bhi.n	8005614 <HAL_TIM_ConfigClockSource+0x16c>
 8005534:	2b30      	cmp	r3, #48	; 0x30
 8005536:	d064      	beq.n	8005602 <HAL_TIM_ConfigClockSource+0x15a>
 8005538:	2b30      	cmp	r3, #48	; 0x30
 800553a:	d86b      	bhi.n	8005614 <HAL_TIM_ConfigClockSource+0x16c>
 800553c:	2b20      	cmp	r3, #32
 800553e:	d060      	beq.n	8005602 <HAL_TIM_ConfigClockSource+0x15a>
 8005540:	2b20      	cmp	r3, #32
 8005542:	d867      	bhi.n	8005614 <HAL_TIM_ConfigClockSource+0x16c>
 8005544:	2b00      	cmp	r3, #0
 8005546:	d05c      	beq.n	8005602 <HAL_TIM_ConfigClockSource+0x15a>
 8005548:	2b10      	cmp	r3, #16
 800554a:	d05a      	beq.n	8005602 <HAL_TIM_ConfigClockSource+0x15a>
 800554c:	e062      	b.n	8005614 <HAL_TIM_ConfigClockSource+0x16c>
 800554e:	687b      	ldr	r3, [r7, #4]
 8005550:	6818      	ldr	r0, [r3, #0]
 8005552:	683b      	ldr	r3, [r7, #0]
 8005554:	6899      	ldr	r1, [r3, #8]
 8005556:	683b      	ldr	r3, [r7, #0]
 8005558:	685a      	ldr	r2, [r3, #4]
 800555a:	683b      	ldr	r3, [r7, #0]
 800555c:	68db      	ldr	r3, [r3, #12]
 800555e:	f000 fb0f 	bl	8005b80 <TIM_ETR_SetConfig>
 8005562:	687b      	ldr	r3, [r7, #4]
 8005564:	681b      	ldr	r3, [r3, #0]
 8005566:	689b      	ldr	r3, [r3, #8]
 8005568:	60bb      	str	r3, [r7, #8]
 800556a:	68bb      	ldr	r3, [r7, #8]
 800556c:	f043 0377 	orr.w	r3, r3, #119	; 0x77
 8005570:	60bb      	str	r3, [r7, #8]
 8005572:	687b      	ldr	r3, [r7, #4]
 8005574:	681b      	ldr	r3, [r3, #0]
 8005576:	68ba      	ldr	r2, [r7, #8]
 8005578:	609a      	str	r2, [r3, #8]
 800557a:	e04f      	b.n	800561c <HAL_TIM_ConfigClockSource+0x174>
 800557c:	687b      	ldr	r3, [r7, #4]
 800557e:	6818      	ldr	r0, [r3, #0]
 8005580:	683b      	ldr	r3, [r7, #0]
 8005582:	6899      	ldr	r1, [r3, #8]
 8005584:	683b      	ldr	r3, [r7, #0]
 8005586:	685a      	ldr	r2, [r3, #4]
 8005588:	683b      	ldr	r3, [r7, #0]
 800558a:	68db      	ldr	r3, [r3, #12]
 800558c:	f000 faf8 	bl	8005b80 <TIM_ETR_SetConfig>
 8005590:	687b      	ldr	r3, [r7, #4]
 8005592:	681b      	ldr	r3, [r3, #0]
 8005594:	689a      	ldr	r2, [r3, #8]
 8005596:	687b      	ldr	r3, [r7, #4]
 8005598:	681b      	ldr	r3, [r3, #0]
 800559a:	f442 4280 	orr.w	r2, r2, #16384	; 0x4000
 800559e:	609a      	str	r2, [r3, #8]
 80055a0:	e03c      	b.n	800561c <HAL_TIM_ConfigClockSource+0x174>
 80055a2:	687b      	ldr	r3, [r7, #4]
 80055a4:	6818      	ldr	r0, [r3, #0]
 80055a6:	683b      	ldr	r3, [r7, #0]
 80055a8:	6859      	ldr	r1, [r3, #4]
 80055aa:	683b      	ldr	r3, [r7, #0]
 80055ac:	68db      	ldr	r3, [r3, #12]
 80055ae:	461a      	mov	r2, r3
 80055b0:	f000 fa6c 	bl	8005a8c <TIM_TI1_ConfigInputStage>
 80055b4:	687b      	ldr	r3, [r7, #4]
 80055b6:	681b      	ldr	r3, [r3, #0]
 80055b8:	2150      	movs	r1, #80	; 0x50
 80055ba:	4618      	mov	r0, r3
 80055bc:	f000 fac5 	bl	8005b4a <TIM_ITRx_SetConfig>
 80055c0:	e02c      	b.n	800561c <HAL_TIM_ConfigClockSource+0x174>
 80055c2:	687b      	ldr	r3, [r7, #4]
 80055c4:	6818      	ldr	r0, [r3, #0]
 80055c6:	683b      	ldr	r3, [r7, #0]
 80055c8:	6859      	ldr	r1, [r3, #4]
 80055ca:	683b      	ldr	r3, [r7, #0]
 80055cc:	68db      	ldr	r3, [r3, #12]
 80055ce:	461a      	mov	r2, r3
 80055d0:	f000 fa8b 	bl	8005aea <TIM_TI2_ConfigInputStage>
 80055d4:	687b      	ldr	r3, [r7, #4]
 80055d6:	681b      	ldr	r3, [r3, #0]
 80055d8:	2160      	movs	r1, #96	; 0x60
 80055da:	4618      	mov	r0, r3
 80055dc:	f000 fab5 	bl	8005b4a <TIM_ITRx_SetConfig>
 80055e0:	e01c      	b.n	800561c <HAL_TIM_ConfigClockSource+0x174>
 80055e2:	687b      	ldr	r3, [r7, #4]
 80055e4:	6818      	ldr	r0, [r3, #0]
 80055e6:	683b      	ldr	r3, [r7, #0]
 80055e8:	6859      	ldr	r1, [r3, #4]
 80055ea:	683b      	ldr	r3, [r7, #0]
 80055ec:	68db      	ldr	r3, [r3, #12]
 80055ee:	461a      	mov	r2, r3
 80055f0:	f000 fa4c 	bl	8005a8c <TIM_TI1_ConfigInputStage>
 80055f4:	687b      	ldr	r3, [r7, #4]
 80055f6:	681b      	ldr	r3, [r3, #0]
 80055f8:	2140      	movs	r1, #64	; 0x40
 80055fa:	4618      	mov	r0, r3
 80055fc:	f000 faa5 	bl	8005b4a <TIM_ITRx_SetConfig>
 8005600:	e00c      	b.n	800561c <HAL_TIM_ConfigClockSource+0x174>
 8005602:	687b      	ldr	r3, [r7, #4]
 8005604:	681a      	ldr	r2, [r3, #0]
 8005606:	683b      	ldr	r3, [r7, #0]
 8005608:	681b      	ldr	r3, [r3, #0]
 800560a:	4619      	mov	r1, r3
 800560c:	4610      	mov	r0, r2
 800560e:	f000 fa9c 	bl	8005b4a <TIM_ITRx_SetConfig>
 8005612:	e003      	b.n	800561c <HAL_TIM_ConfigClockSource+0x174>
 8005614:	2301      	movs	r3, #1
 8005616:	73fb      	strb	r3, [r7, #15]
 8005618:	e000      	b.n	800561c <HAL_TIM_ConfigClockSource+0x174>
 800561a:	bf00      	nop
 800561c:	687b      	ldr	r3, [r7, #4]
 800561e:	2201      	movs	r2, #1
 8005620:	f883 203d 	strb.w	r2, [r3, #61]	; 0x3d
 8005624:	687b      	ldr	r3, [r7, #4]
 8005626:	2200      	movs	r2, #0
 8005628:	f883 203c 	strb.w	r2, [r3, #60]	; 0x3c
 800562c:	7bfb      	ldrb	r3, [r7, #15]
 800562e:	4618      	mov	r0, r3
 8005630:	3710      	adds	r7, #16
 8005632:	46bd      	mov	sp, r7
 8005634:	bd80      	pop	{r7, pc}

08005636 <HAL_TIM_IC_CaptureCallback>:
 8005636:	b480      	push	{r7}
 8005638:	b083      	sub	sp, #12
 800563a:	af00      	add	r7, sp, #0
 800563c:	6078      	str	r0, [r7, #4]
 800563e:	bf00      	nop
 8005640:	370c      	adds	r7, #12
 8005642:	46bd      	mov	sp, r7
 8005644:	f85d 7b04 	ldr.w	r7, [sp], #4
 8005648:	4770      	bx	lr

0800564a <HAL_TIM_PWM_PulseFinishedCallback>:
 800564a:	b480      	push	{r7}
 800564c:	b083      	sub	sp, #12
 800564e:	af00      	add	r7, sp, #0
 8005650:	6078      	str	r0, [r7, #4]
 8005652:	bf00      	nop
 8005654:	370c      	adds	r7, #12
 8005656:	46bd      	mov	sp, r7
 8005658:	f85d 7b04 	ldr.w	r7, [sp], #4
 800565c:	4770      	bx	lr

0800565e <HAL_TIM_TriggerCallback>:
 800565e:	b480      	push	{r7}
 8005660:	b083      	sub	sp, #12
 8005662:	af00      	add	r7, sp, #0
 8005664:	6078      	str	r0, [r7, #4]
 8005666:	bf00      	nop
 8005668:	370c      	adds	r7, #12
 800566a:	46bd      	mov	sp, r7
 800566c:	f85d 7b04 	ldr.w	r7, [sp], #4
 8005670:	4770      	bx	lr
	...

08005674 <TIM_Base_SetConfig>:
 8005674:	b480      	push	{r7}
 8005676:	b085      	sub	sp, #20
 8005678:	af00      	add	r7, sp, #0
 800567a:	6078      	str	r0, [r7, #4]
 800567c:	6039      	str	r1, [r7, #0]
 800567e:	687b      	ldr	r3, [r7, #4]
 8005680:	681b      	ldr	r3, [r3, #0]
 8005682:	60fb      	str	r3, [r7, #12]
 8005684:	687b      	ldr	r3, [r7, #4]
 8005686:	4a34      	ldr	r2, [pc, #208]	; (8005758 <TIM_Base_SetConfig+0xe4>)
 8005688:	4293      	cmp	r3, r2
 800568a:	d00f      	beq.n	80056ac <TIM_Base_SetConfig+0x38>
 800568c:	687b      	ldr	r3, [r7, #4]
 800568e:	f1b3 4f80 	cmp.w	r3, #1073741824	; 0x40000000
 8005692:	d00b      	beq.n	80056ac <TIM_Base_SetConfig+0x38>
 8005694:	687b      	ldr	r3, [r7, #4]
 8005696:	4a31      	ldr	r2, [pc, #196]	; (800575c <TIM_Base_SetConfig+0xe8>)
 8005698:	4293      	cmp	r3, r2
 800569a:	d007      	beq.n	80056ac <TIM_Base_SetConfig+0x38>
 800569c:	687b      	ldr	r3, [r7, #4]
 800569e:	4a30      	ldr	r2, [pc, #192]	; (8005760 <TIM_Base_SetConfig+0xec>)
 80056a0:	4293      	cmp	r3, r2
 80056a2:	d003      	beq.n	80056ac <TIM_Base_SetConfig+0x38>
 80056a4:	687b      	ldr	r3, [r7, #4]
 80056a6:	4a2f      	ldr	r2, [pc, #188]	; (8005764 <TIM_Base_SetConfig+0xf0>)
 80056a8:	4293      	cmp	r3, r2
 80056aa:	d108      	bne.n	80056be <TIM_Base_SetConfig+0x4a>
 80056ac:	68fb      	ldr	r3, [r7, #12]
 80056ae:	f023 0370 	bic.w	r3, r3, #112	; 0x70
 80056b2:	60fb      	str	r3, [r7, #12]
 80056b4:	683b      	ldr	r3, [r7, #0]
 80056b6:	685b      	ldr	r3, [r3, #4]
 80056b8:	68fa      	ldr	r2, [r7, #12]
 80056ba:	4313      	orrs	r3, r2
 80056bc:	60fb      	str	r3, [r7, #12]
 80056be:	687b      	ldr	r3, [r7, #4]
 80056c0:	4a25      	ldr	r2, [pc, #148]	; (8005758 <TIM_Base_SetConfig+0xe4>)
 80056c2:	4293      	cmp	r3, r2
 80056c4:	d01b      	beq.n	80056fe <TIM_Base_SetConfig+0x8a>
 80056c6:	687b      	ldr	r3, [r7, #4]
 80056c8:	f1b3 4f80 	cmp.w	r3, #1073741824	; 0x40000000
 80056cc:	d017      	beq.n	80056fe <TIM_Base_SetConfig+0x8a>
 80056ce:	687b      	ldr	r3, [r7, #4]
 80056d0:	4a22      	ldr	r2, [pc, #136]	; (800575c <TIM_Base_SetConfig+0xe8>)
 80056d2:	4293      	cmp	r3, r2
 80056d4:	d013      	beq.n	80056fe <TIM_Base_SetConfig+0x8a>
 80056d6:	687b      	ldr	r3, [r7, #4]
 80056d8:	4a21      	ldr	r2, [pc, #132]	; (8005760 <TIM_Base_SetConfig+0xec>)
 80056da:	4293      	cmp	r3, r2
 80056dc:	d00f      	beq.n	80056fe <TIM_Base_SetConfig+0x8a>
 80056de:	687b      	ldr	r3, [r7, #4]
 80056e0:	4a20      	ldr	r2, [pc, #128]	; (8005764 <TIM_Base_SetConfig+0xf0>)
 80056e2:	4293      	cmp	r3, r2
 80056e4:	d00b      	beq.n	80056fe <TIM_Base_SetConfig+0x8a>
 80056e6:	687b      	ldr	r3, [r7, #4]
 80056e8:	4a1f      	ldr	r2, [pc, #124]	; (8005768 <TIM_Base_SetConfig+0xf4>)
 80056ea:	4293      	cmp	r3, r2
 80056ec:	d007      	beq.n	80056fe <TIM_Base_SetConfig+0x8a>
 80056ee:	687b      	ldr	r3, [r7, #4]
 80056f0:	4a1e      	ldr	r2, [pc, #120]	; (800576c <TIM_Base_SetConfig+0xf8>)
 80056f2:	4293      	cmp	r3, r2
 80056f4:	d003      	beq.n	80056fe <TIM_Base_SetConfig+0x8a>
 80056f6:	687b      	ldr	r3, [r7, #4]
 80056f8:	4a1d      	ldr	r2, [pc, #116]	; (8005770 <TIM_Base_SetConfig+0xfc>)
 80056fa:	4293      	cmp	r3, r2
 80056fc:	d108      	bne.n	8005710 <TIM_Base_SetConfig+0x9c>
 80056fe:	68fb      	ldr	r3, [r7, #12]
 8005700:	f423 7340 	bic.w	r3, r3, #768	; 0x300
 8005704:	60fb      	str	r3, [r7, #12]
 8005706:	683b      	ldr	r3, [r7, #0]
 8005708:	68db      	ldr	r3, [r3, #12]
 800570a:	68fa      	ldr	r2, [r7, #12]
 800570c:	4313      	orrs	r3, r2
 800570e:	60fb      	str	r3, [r7, #12]
 8005710:	68fb      	ldr	r3, [r7, #12]
 8005712:	f023 0280 	bic.w	r2, r3, #128	; 0x80
 8005716:	683b      	ldr	r3, [r7, #0]
 8005718:	695b      	ldr	r3, [r3, #20]
 800571a:	4313      	orrs	r3, r2
 800571c:	60fb      	str	r3, [r7, #12]
 800571e:	687b      	ldr	r3, [r7, #4]
 8005720:	68fa      	ldr	r2, [r7, #12]
 8005722:	601a      	str	r2, [r3, #0]
 8005724:	683b      	ldr	r3, [r7, #0]
 8005726:	689a      	ldr	r2, [r3, #8]
 8005728:	687b      	ldr	r3, [r7, #4]
 800572a:	62da      	str	r2, [r3, #44]	; 0x2c
 800572c:	683b      	ldr	r3, [r7, #0]
 800572e:	681a      	ldr	r2, [r3, #0]
 8005730:	687b      	ldr	r3, [r7, #4]
 8005732:	629a      	str	r2, [r3, #40]	; 0x28
 8005734:	687b      	ldr	r3, [r7, #4]
 8005736:	4a08      	ldr	r2, [pc, #32]	; (8005758 <TIM_Base_SetConfig+0xe4>)
 8005738:	4293      	cmp	r3, r2
 800573a:	d103      	bne.n	8005744 <TIM_Base_SetConfig+0xd0>
 800573c:	683b      	ldr	r3, [r7, #0]
 800573e:	691a      	ldr	r2, [r3, #16]
 8005740:	687b      	ldr	r3, [r7, #4]
 8005742:	631a      	str	r2, [r3, #48]	; 0x30
 8005744:	687b      	ldr	r3, [r7, #4]
 8005746:	2201      	movs	r2, #1
 8005748:	615a      	str	r2, [r3, #20]
 800574a:	bf00      	nop
 800574c:	3714      	adds	r7, #20
 800574e:	46bd      	mov	sp, r7
 8005750:	f85d 7b04 	ldr.w	r7, [sp], #4
 8005754:	4770      	bx	lr
 8005756:	bf00      	nop
 8005758:	40010000 	.word	0x40010000
 800575c:	40000400 	.word	0x40000400
 8005760:	40000800 	.word	0x40000800
 8005764:	40000c00 	.word	0x40000c00
 8005768:	40014000 	.word	0x40014000
 800576c:	40014400 	.word	0x40014400
 8005770:	40014800 	.word	0x40014800

08005774 <TIM_OC1_SetConfig>:
 8005774:	b480      	push	{r7}
 8005776:	b087      	sub	sp, #28
 8005778:	af00      	add	r7, sp, #0
 800577a:	6078      	str	r0, [r7, #4]
 800577c:	6039      	str	r1, [r7, #0]
 800577e:	687b      	ldr	r3, [r7, #4]
 8005780:	6a1b      	ldr	r3, [r3, #32]
 8005782:	f023 0201 	bic.w	r2, r3, #1
 8005786:	687b      	ldr	r3, [r7, #4]
 8005788:	621a      	str	r2, [r3, #32]
 800578a:	687b      	ldr	r3, [r7, #4]
 800578c:	6a1b      	ldr	r3, [r3, #32]
 800578e:	617b      	str	r3, [r7, #20]
 8005790:	687b      	ldr	r3, [r7, #4]
 8005792:	685b      	ldr	r3, [r3, #4]
 8005794:	613b      	str	r3, [r7, #16]
 8005796:	687b      	ldr	r3, [r7, #4]
 8005798:	699b      	ldr	r3, [r3, #24]
 800579a:	60fb      	str	r3, [r7, #12]
 800579c:	68fb      	ldr	r3, [r7, #12]
 800579e:	f023 0370 	bic.w	r3, r3, #112	; 0x70
 80057a2:	60fb      	str	r3, [r7, #12]
 80057a4:	68fb      	ldr	r3, [r7, #12]
 80057a6:	f023 0303 	bic.w	r3, r3, #3
 80057aa:	60fb      	str	r3, [r7, #12]
 80057ac:	683b      	ldr	r3, [r7, #0]
 80057ae:	681b      	ldr	r3, [r3, #0]
 80057b0:	68fa      	ldr	r2, [r7, #12]
 80057b2:	4313      	orrs	r3, r2
 80057b4:	60fb      	str	r3, [r7, #12]
 80057b6:	697b      	ldr	r3, [r7, #20]
 80057b8:	f023 0302 	bic.w	r3, r3, #2
 80057bc:	617b      	str	r3, [r7, #20]
 80057be:	683b      	ldr	r3, [r7, #0]
 80057c0:	689b      	ldr	r3, [r3, #8]
 80057c2:	697a      	ldr	r2, [r7, #20]
 80057c4:	4313      	orrs	r3, r2
 80057c6:	617b      	str	r3, [r7, #20]
 80057c8:	687b      	ldr	r3, [r7, #4]
 80057ca:	4a1c      	ldr	r2, [pc, #112]	; (800583c <TIM_OC1_SetConfig+0xc8>)
 80057cc:	4293      	cmp	r3, r2
 80057ce:	d10c      	bne.n	80057ea <TIM_OC1_SetConfig+0x76>
 80057d0:	697b      	ldr	r3, [r7, #20]
 80057d2:	f023 0308 	bic.w	r3, r3, #8
 80057d6:	617b      	str	r3, [r7, #20]
 80057d8:	683b      	ldr	r3, [r7, #0]
 80057da:	68db      	ldr	r3, [r3, #12]
 80057dc:	697a      	ldr	r2, [r7, #20]
 80057de:	4313      	orrs	r3, r2
 80057e0:	617b      	str	r3, [r7, #20]
 80057e2:	697b      	ldr	r3, [r7, #20]
 80057e4:	f023 0304 	bic.w	r3, r3, #4
 80057e8:	617b      	str	r3, [r7, #20]
 80057ea:	687b      	ldr	r3, [r7, #4]
 80057ec:	4a13      	ldr	r2, [pc, #76]	; (800583c <TIM_OC1_SetConfig+0xc8>)
 80057ee:	4293      	cmp	r3, r2
 80057f0:	d111      	bne.n	8005816 <TIM_OC1_SetConfig+0xa2>
 80057f2:	693b      	ldr	r3, [r7, #16]
 80057f4:	f423 7380 	bic.w	r3, r3, #256	; 0x100
 80057f8:	613b      	str	r3, [r7, #16]
 80057fa:	693b      	ldr	r3, [r7, #16]
 80057fc:	f423 7300 	bic.w	r3, r3, #512	; 0x200
 8005800:	613b      	str	r3, [r7, #16]
 8005802:	683b      	ldr	r3, [r7, #0]
 8005804:	695b      	ldr	r3, [r3, #20]
 8005806:	693a      	ldr	r2, [r7, #16]
 8005808:	4313      	orrs	r3, r2
 800580a:	613b      	str	r3, [r7, #16]
 800580c:	683b      	ldr	r3, [r7, #0]
 800580e:	699b      	ldr	r3, [r3, #24]
 8005810:	693a      	ldr	r2, [r7, #16]
 8005812:	4313      	orrs	r3, r2
 8005814:	613b      	str	r3, [r7, #16]
 8005816:	687b      	ldr	r3, [r7, #4]
 8005818:	693a      	ldr	r2, [r7, #16]
 800581a:	605a      	str	r2, [r3, #4]
 800581c:	687b      	ldr	r3, [r7, #4]
 800581e:	68fa      	ldr	r2, [r7, #12]
 8005820:	619a      	str	r2, [r3, #24]
 8005822:	683b      	ldr	r3, [r7, #0]
 8005824:	685a      	ldr	r2, [r3, #4]
 8005826:	687b      	ldr	r3, [r7, #4]
 8005828:	635a      	str	r2, [r3, #52]	; 0x34
 800582a:	687b      	ldr	r3, [r7, #4]
 800582c:	697a      	ldr	r2, [r7, #20]
 800582e:	621a      	str	r2, [r3, #32]
 8005830:	bf00      	nop
 8005832:	371c      	adds	r7, #28
 8005834:	46bd      	mov	sp, r7
 8005836:	f85d 7b04 	ldr.w	r7, [sp], #4
 800583a:	4770      	bx	lr
 800583c:	40010000 	.word	0x40010000

08005840 <TIM_OC2_SetConfig>:
 8005840:	b480      	push	{r7}
 8005842:	b087      	sub	sp, #28
 8005844:	af00      	add	r7, sp, #0
 8005846:	6078      	str	r0, [r7, #4]
 8005848:	6039      	str	r1, [r7, #0]
 800584a:	687b      	ldr	r3, [r7, #4]
 800584c:	6a1b      	ldr	r3, [r3, #32]
 800584e:	f023 0210 	bic.w	r2, r3, #16
 8005852:	687b      	ldr	r3, [r7, #4]
 8005854:	621a      	str	r2, [r3, #32]
 8005856:	687b      	ldr	r3, [r7, #4]
 8005858:	6a1b      	ldr	r3, [r3, #32]
 800585a:	617b      	str	r3, [r7, #20]
 800585c:	687b      	ldr	r3, [r7, #4]
 800585e:	685b      	ldr	r3, [r3, #4]
 8005860:	613b      	str	r3, [r7, #16]
 8005862:	687b      	ldr	r3, [r7, #4]
 8005864:	699b      	ldr	r3, [r3, #24]
 8005866:	60fb      	str	r3, [r7, #12]
 8005868:	68fb      	ldr	r3, [r7, #12]
 800586a:	f423 43e0 	bic.w	r3, r3, #28672	; 0x7000
 800586e:	60fb      	str	r3, [r7, #12]
 8005870:	68fb      	ldr	r3, [r7, #12]
 8005872:	f423 7340 	bic.w	r3, r3, #768	; 0x300
 8005876:	60fb      	str	r3, [r7, #12]
 8005878:	683b      	ldr	r3, [r7, #0]
 800587a:	681b      	ldr	r3, [r3, #0]
 800587c:	021b      	lsls	r3, r3, #8
 800587e:	68fa      	ldr	r2, [r7, #12]
 8005880:	4313      	orrs	r3, r2
 8005882:	60fb      	str	r3, [r7, #12]
 8005884:	697b      	ldr	r3, [r7, #20]
 8005886:	f023 0320 	bic.w	r3, r3, #32
 800588a:	617b      	str	r3, [r7, #20]
 800588c:	683b      	ldr	r3, [r7, #0]
 800588e:	689b      	ldr	r3, [r3, #8]
 8005890:	011b      	lsls	r3, r3, #4
 8005892:	697a      	ldr	r2, [r7, #20]
 8005894:	4313      	orrs	r3, r2
 8005896:	617b      	str	r3, [r7, #20]
 8005898:	687b      	ldr	r3, [r7, #4]
 800589a:	4a1e      	ldr	r2, [pc, #120]	; (8005914 <TIM_OC2_SetConfig+0xd4>)
 800589c:	4293      	cmp	r3, r2
 800589e:	d10d      	bne.n	80058bc <TIM_OC2_SetConfig+0x7c>
 80058a0:	697b      	ldr	r3, [r7, #20]
 80058a2:	f023 0380 	bic.w	r3, r3, #128	; 0x80
 80058a6:	617b      	str	r3, [r7, #20]
 80058a8:	683b      	ldr	r3, [r7, #0]
 80058aa:	68db      	ldr	r3, [r3, #12]
 80058ac:	011b      	lsls	r3, r3, #4
 80058ae:	697a      	ldr	r2, [r7, #20]
 80058b0:	4313      	orrs	r3, r2
 80058b2:	617b      	str	r3, [r7, #20]
 80058b4:	697b      	ldr	r3, [r7, #20]
 80058b6:	f023 0340 	bic.w	r3, r3, #64	; 0x40
 80058ba:	617b      	str	r3, [r7, #20]
 80058bc:	687b      	ldr	r3, [r7, #4]
 80058be:	4a15      	ldr	r2, [pc, #84]	; (8005914 <TIM_OC2_SetConfig+0xd4>)
 80058c0:	4293      	cmp	r3, r2
 80058c2:	d113      	bne.n	80058ec <TIM_OC2_SetConfig+0xac>
 80058c4:	693b      	ldr	r3, [r7, #16]
 80058c6:	f423 6380 	bic.w	r3, r3, #1024	; 0x400
 80058ca:	613b      	str	r3, [r7, #16]
 80058cc:	693b      	ldr	r3, [r7, #16]
 80058ce:	f423 6300 	bic.w	r3, r3, #2048	; 0x800
 80058d2:	613b      	str	r3, [r7, #16]
 80058d4:	683b      	ldr	r3, [r7, #0]
 80058d6:	695b      	ldr	r3, [r3, #20]
 80058d8:	009b      	lsls	r3, r3, #2
 80058da:	693a      	ldr	r2, [r7, #16]
 80058dc:	4313      	orrs	r3, r2
 80058de:	613b      	str	r3, [r7, #16]
 80058e0:	683b      	ldr	r3, [r7, #0]
 80058e2:	699b      	ldr	r3, [r3, #24]
 80058e4:	009b      	lsls	r3, r3, #2
 80058e6:	693a      	ldr	r2, [r7, #16]
 80058e8:	4313      	orrs	r3, r2
 80058ea:	613b      	str	r3, [r7, #16]
 80058ec:	687b      	ldr	r3, [r7, #4]
 80058ee:	693a      	ldr	r2, [r7, #16]
 80058f0:	605a      	str	r2, [r3, #4]
 80058f2:	687b      	ldr	r3, [r7, #4]
 80058f4:	68fa      	ldr	r2, [r7, #12]
 80058f6:	619a      	str	r2, [r3, #24]
 80058f8:	683b      	ldr	r3, [r7, #0]
 80058fa:	685a      	ldr	r2, [r3, #4]
 80058fc:	687b      	ldr	r3, [r7, #4]
 80058fe:	639a      	str	r2, [r3, #56]	; 0x38
 8005900:	687b      	ldr	r3, [r7, #4]
 8005902:	697a      	ldr	r2, [r7, #20]
 8005904:	621a      	str	r2, [r3, #32]
 8005906:	bf00      	nop
 8005908:	371c      	adds	r7, #28
 800590a:	46bd      	mov	sp, r7
 800590c:	f85d 7b04 	ldr.w	r7, [sp], #4
 8005910:	4770      	bx	lr
 8005912:	bf00      	nop
 8005914:	40010000 	.word	0x40010000

08005918 <TIM_OC3_SetConfig>:
 8005918:	b480      	push	{r7}
 800591a:	b087      	sub	sp, #28
 800591c:	af00      	add	r7, sp, #0
 800591e:	6078      	str	r0, [r7, #4]
 8005920:	6039      	str	r1, [r7, #0]
 8005922:	687b      	ldr	r3, [r7, #4]
 8005924:	6a1b      	ldr	r3, [r3, #32]
 8005926:	f423 7280 	bic.w	r2, r3, #256	; 0x100
 800592a:	687b      	ldr	r3, [r7, #4]
 800592c:	621a      	str	r2, [r3, #32]
 800592e:	687b      	ldr	r3, [r7, #4]
 8005930:	6a1b      	ldr	r3, [r3, #32]
 8005932:	617b      	str	r3, [r7, #20]
 8005934:	687b      	ldr	r3, [r7, #4]
 8005936:	685b      	ldr	r3, [r3, #4]
 8005938:	613b      	str	r3, [r7, #16]
 800593a:	687b      	ldr	r3, [r7, #4]
 800593c:	69db      	ldr	r3, [r3, #28]
 800593e:	60fb      	str	r3, [r7, #12]
 8005940:	68fb      	ldr	r3, [r7, #12]
 8005942:	f023 0370 	bic.w	r3, r3, #112	; 0x70
 8005946:	60fb      	str	r3, [r7, #12]
 8005948:	68fb      	ldr	r3, [r7, #12]
 800594a:	f023 0303 	bic.w	r3, r3, #3
 800594e:	60fb      	str	r3, [r7, #12]
 8005950:	683b      	ldr	r3, [r7, #0]
 8005952:	681b      	ldr	r3, [r3, #0]
 8005954:	68fa      	ldr	r2, [r7, #12]
 8005956:	4313      	orrs	r3, r2
 8005958:	60fb      	str	r3, [r7, #12]
 800595a:	697b      	ldr	r3, [r7, #20]
 800595c:	f423 7300 	bic.w	r3, r3, #512	; 0x200
 8005960:	617b      	str	r3, [r7, #20]
 8005962:	683b      	ldr	r3, [r7, #0]
 8005964:	689b      	ldr	r3, [r3, #8]
 8005966:	021b      	lsls	r3, r3, #8
 8005968:	697a      	ldr	r2, [r7, #20]
 800596a:	4313      	orrs	r3, r2
 800596c:	617b      	str	r3, [r7, #20]
 800596e:	687b      	ldr	r3, [r7, #4]
 8005970:	4a1d      	ldr	r2, [pc, #116]	; (80059e8 <TIM_OC3_SetConfig+0xd0>)
 8005972:	4293      	cmp	r3, r2
 8005974:	d10d      	bne.n	8005992 <TIM_OC3_SetConfig+0x7a>
 8005976:	697b      	ldr	r3, [r7, #20]
 8005978:	f423 6300 	bic.w	r3, r3, #2048	; 0x800
 800597c:	617b      	str	r3, [r7, #20]
 800597e:	683b      	ldr	r3, [r7, #0]
 8005980:	68db      	ldr	r3, [r3, #12]
 8005982:	021b      	lsls	r3, r3, #8
 8005984:	697a      	ldr	r2, [r7, #20]
 8005986:	4313      	orrs	r3, r2
 8005988:	617b      	str	r3, [r7, #20]
 800598a:	697b      	ldr	r3, [r7, #20]
 800598c:	f423 6380 	bic.w	r3, r3, #1024	; 0x400
 8005990:	617b      	str	r3, [r7, #20]
 8005992:	687b      	ldr	r3, [r7, #4]
 8005994:	4a14      	ldr	r2, [pc, #80]	; (80059e8 <TIM_OC3_SetConfig+0xd0>)
 8005996:	4293      	cmp	r3, r2
 8005998:	d113      	bne.n	80059c2 <TIM_OC3_SetConfig+0xaa>
 800599a:	693b      	ldr	r3, [r7, #16]
 800599c:	f423 5380 	bic.w	r3, r3, #4096	; 0x1000
 80059a0:	613b      	str	r3, [r7, #16]
 80059a2:	693b      	ldr	r3, [r7, #16]
 80059a4:	f423 5300 	bic.w	r3, r3, #8192	; 0x2000
 80059a8:	613b      	str	r3, [r7, #16]
 80059aa:	683b      	ldr	r3, [r7, #0]
 80059ac:	695b      	ldr	r3, [r3, #20]
 80059ae:	011b      	lsls	r3, r3, #4
 80059b0:	693a      	ldr	r2, [r7, #16]
 80059b2:	4313      	orrs	r3, r2
 80059b4:	613b      	str	r3, [r7, #16]
 80059b6:	683b      	ldr	r3, [r7, #0]
 80059b8:	699b      	ldr	r3, [r3, #24]
 80059ba:	011b      	lsls	r3, r3, #4
 80059bc:	693a      	ldr	r2, [r7, #16]
 80059be:	4313      	orrs	r3, r2
 80059c0:	613b      	str	r3, [r7, #16]
 80059c2:	687b      	ldr	r3, [r7, #4]
 80059c4:	693a      	ldr	r2, [r7, #16]
 80059c6:	605a      	str	r2, [r3, #4]
 80059c8:	687b      	ldr	r3, [r7, #4]
 80059ca:	68fa      	ldr	r2, [r7, #12]
 80059cc:	61da      	str	r2, [r3, #28]
 80059ce:	683b      	ldr	r3, [r7, #0]
 80059d0:	685a      	ldr	r2, [r3, #4]
 80059d2:	687b      	ldr	r3, [r7, #4]
 80059d4:	63da      	str	r2, [r3, #60]	; 0x3c
 80059d6:	687b      	ldr	r3, [r7, #4]
 80059d8:	697a      	ldr	r2, [r7, #20]
 80059da:	621a      	str	r2, [r3, #32]
 80059dc:	bf00      	nop
 80059de:	371c      	adds	r7, #28
 80059e0:	46bd      	mov	sp, r7
 80059e2:	f85d 7b04 	ldr.w	r7, [sp], #4
 80059e6:	4770      	bx	lr
 80059e8:	40010000 	.word	0x40010000

080059ec <TIM_OC4_SetConfig>:
 80059ec:	b480      	push	{r7}
 80059ee:	b087      	sub	sp, #28
 80059f0:	af00      	add	r7, sp, #0
 80059f2:	6078      	str	r0, [r7, #4]
 80059f4:	6039      	str	r1, [r7, #0]
 80059f6:	687b      	ldr	r3, [r7, #4]
 80059f8:	6a1b      	ldr	r3, [r3, #32]
 80059fa:	f423 5280 	bic.w	r2, r3, #4096	; 0x1000
 80059fe:	687b      	ldr	r3, [r7, #4]
 8005a00:	621a      	str	r2, [r3, #32]
 8005a02:	687b      	ldr	r3, [r7, #4]
 8005a04:	6a1b      	ldr	r3, [r3, #32]
 8005a06:	613b      	str	r3, [r7, #16]
 8005a08:	687b      	ldr	r3, [r7, #4]
 8005a0a:	685b      	ldr	r3, [r3, #4]
 8005a0c:	617b      	str	r3, [r7, #20]
 8005a0e:	687b      	ldr	r3, [r7, #4]
 8005a10:	69db      	ldr	r3, [r3, #28]
 8005a12:	60fb      	str	r3, [r7, #12]
 8005a14:	68fb      	ldr	r3, [r7, #12]
 8005a16:	f423 43e0 	bic.w	r3, r3, #28672	; 0x7000
 8005a1a:	60fb      	str	r3, [r7, #12]
 8005a1c:	68fb      	ldr	r3, [r7, #12]
 8005a1e:	f423 7340 	bic.w	r3, r3, #768	; 0x300
 8005a22:	60fb      	str	r3, [r7, #12]
 8005a24:	683b      	ldr	r3, [r7, #0]
 8005a26:	681b      	ldr	r3, [r3, #0]
 8005a28:	021b      	lsls	r3, r3, #8
 8005a2a:	68fa      	ldr	r2, [r7, #12]
 8005a2c:	4313      	orrs	r3, r2
 8005a2e:	60fb      	str	r3, [r7, #12]
 8005a30:	693b      	ldr	r3, [r7, #16]
 8005a32:	f423 5300 	bic.w	r3, r3, #8192	; 0x2000
 8005a36:	613b      	str	r3, [r7, #16]
 8005a38:	683b      	ldr	r3, [r7, #0]
 8005a3a:	689b      	ldr	r3, [r3, #8]
 8005a3c:	031b      	lsls	r3, r3, #12
 8005a3e:	693a      	ldr	r2, [r7, #16]
 8005a40:	4313      	orrs	r3, r2
 8005a42:	613b      	str	r3, [r7, #16]
 8005a44:	687b      	ldr	r3, [r7, #4]
 8005a46:	4a10      	ldr	r2, [pc, #64]	; (8005a88 <TIM_OC4_SetConfig+0x9c>)
 8005a48:	4293      	cmp	r3, r2
 8005a4a:	d109      	bne.n	8005a60 <TIM_OC4_SetConfig+0x74>
 8005a4c:	697b      	ldr	r3, [r7, #20]
 8005a4e:	f423 4380 	bic.w	r3, r3, #16384	; 0x4000
 8005a52:	617b      	str	r3, [r7, #20]
 8005a54:	683b      	ldr	r3, [r7, #0]
 8005a56:	695b      	ldr	r3, [r3, #20]
 8005a58:	019b      	lsls	r3, r3, #6
 8005a5a:	697a      	ldr	r2, [r7, #20]
 8005a5c:	4313      	orrs	r3, r2
 8005a5e:	617b      	str	r3, [r7, #20]
 8005a60:	687b      	ldr	r3, [r7, #4]
 8005a62:	697a      	ldr	r2, [r7, #20]
 8005a64:	605a      	str	r2, [r3, #4]
 8005a66:	687b      	ldr	r3, [r7, #4]
 8005a68:	68fa      	ldr	r2, [r7, #12]
 8005a6a:	61da      	str	r2, [r3, #28]
 8005a6c:	683b      	ldr	r3, [r7, #0]
 8005a6e:	685a      	ldr	r2, [r3, #4]
 8005a70:	687b      	ldr	r3, [r7, #4]
 8005a72:	641a      	str	r2, [r3, #64]	; 0x40
 8005a74:	687b      	ldr	r3, [r7, #4]
 8005a76:	693a      	ldr	r2, [r7, #16]
 8005a78:	621a      	str	r2, [r3, #32]
 8005a7a:	bf00      	nop
 8005a7c:	371c      	adds	r7, #28
 8005a7e:	46bd      	mov	sp, r7
 8005a80:	f85d 7b04 	ldr.w	r7, [sp], #4
 8005a84:	4770      	bx	lr
 8005a86:	bf00      	nop
 8005a88:	40010000 	.word	0x40010000

08005a8c <TIM_TI1_ConfigInputStage>:
 8005a8c:	b480      	push	{r7}
 8005a8e:	b087      	sub	sp, #28
 8005a90:	af00      	add	r7, sp, #0
 8005a92:	60f8      	str	r0, [r7, #12]
 8005a94:	60b9      	str	r1, [r7, #8]
 8005a96:	607a      	str	r2, [r7, #4]
 8005a98:	68fb      	ldr	r3, [r7, #12]
 8005a9a:	6a1b      	ldr	r3, [r3, #32]
 8005a9c:	617b      	str	r3, [r7, #20]
 8005a9e:	68fb      	ldr	r3, [r7, #12]
 8005aa0:	6a1b      	ldr	r3, [r3, #32]
 8005aa2:	f023 0201 	bic.w	r2, r3, #1
 8005aa6:	68fb      	ldr	r3, [r7, #12]
 8005aa8:	621a      	str	r2, [r3, #32]
 8005aaa:	68fb      	ldr	r3, [r7, #12]
 8005aac:	699b      	ldr	r3, [r3, #24]
 8005aae:	613b      	str	r3, [r7, #16]
 8005ab0:	693b      	ldr	r3, [r7, #16]
 8005ab2:	f023 03f0 	bic.w	r3, r3, #240	; 0xf0
 8005ab6:	613b      	str	r3, [r7, #16]
 8005ab8:	687b      	ldr	r3, [r7, #4]
 8005aba:	011b      	lsls	r3, r3, #4
 8005abc:	693a      	ldr	r2, [r7, #16]
 8005abe:	4313      	orrs	r3, r2
 8005ac0:	613b      	str	r3, [r7, #16]
 8005ac2:	697b      	ldr	r3, [r7, #20]
 8005ac4:	f023 030a 	bic.w	r3, r3, #10
 8005ac8:	617b      	str	r3, [r7, #20]
 8005aca:	697a      	ldr	r2, [r7, #20]
 8005acc:	68bb      	ldr	r3, [r7, #8]
 8005ace:	4313      	orrs	r3, r2
 8005ad0:	617b      	str	r3, [r7, #20]
 8005ad2:	68fb      	ldr	r3, [r7, #12]
 8005ad4:	693a      	ldr	r2, [r7, #16]
 8005ad6:	619a      	str	r2, [r3, #24]
 8005ad8:	68fb      	ldr	r3, [r7, #12]
 8005ada:	697a      	ldr	r2, [r7, #20]
 8005adc:	621a      	str	r2, [r3, #32]
 8005ade:	bf00      	nop
 8005ae0:	371c      	adds	r7, #28
 8005ae2:	46bd      	mov	sp, r7
 8005ae4:	f85d 7b04 	ldr.w	r7, [sp], #4
 8005ae8:	4770      	bx	lr

08005aea <TIM_TI2_ConfigInputStage>:
 8005aea:	b480      	push	{r7}
 8005aec:	b087      	sub	sp, #28
 8005aee:	af00      	add	r7, sp, #0
 8005af0:	60f8      	str	r0, [r7, #12]
 8005af2:	60b9      	str	r1, [r7, #8]
 8005af4:	607a      	str	r2, [r7, #4]
 8005af6:	68fb      	ldr	r3, [r7, #12]
 8005af8:	6a1b      	ldr	r3, [r3, #32]
 8005afa:	f023 0210 	bic.w	r2, r3, #16
 8005afe:	68fb      	ldr	r3, [r7, #12]
 8005b00:	621a      	str	r2, [r3, #32]
 8005b02:	68fb      	ldr	r3, [r7, #12]
 8005b04:	699b      	ldr	r3, [r3, #24]
 8005b06:	617b      	str	r3, [r7, #20]
 8005b08:	68fb      	ldr	r3, [r7, #12]
 8005b0a:	6a1b      	ldr	r3, [r3, #32]
 8005b0c:	613b      	str	r3, [r7, #16]
 8005b0e:	697b      	ldr	r3, [r7, #20]
 8005b10:	f423 4370 	bic.w	r3, r3, #61440	; 0xf000
 8005b14:	617b      	str	r3, [r7, #20]
 8005b16:	687b      	ldr	r3, [r7, #4]
 8005b18:	031b      	lsls	r3, r3, #12
 8005b1a:	697a      	ldr	r2, [r7, #20]
 8005b1c:	4313      	orrs	r3, r2
 8005b1e:	617b      	str	r3, [r7, #20]
 8005b20:	693b      	ldr	r3, [r7, #16]
 8005b22:	f023 03a0 	bic.w	r3, r3, #160	; 0xa0
 8005b26:	613b      	str	r3, [r7, #16]
 8005b28:	68bb      	ldr	r3, [r7, #8]
 8005b2a:	011b      	lsls	r3, r3, #4
 8005b2c:	693a      	ldr	r2, [r7, #16]
 8005b2e:	4313      	orrs	r3, r2
 8005b30:	613b      	str	r3, [r7, #16]
 8005b32:	68fb      	ldr	r3, [r7, #12]
 8005b34:	697a      	ldr	r2, [r7, #20]
 8005b36:	619a      	str	r2, [r3, #24]
 8005b38:	68fb      	ldr	r3, [r7, #12]
 8005b3a:	693a      	ldr	r2, [r7, #16]
 8005b3c:	621a      	str	r2, [r3, #32]
 8005b3e:	bf00      	nop
 8005b40:	371c      	adds	r7, #28
 8005b42:	46bd      	mov	sp, r7
 8005b44:	f85d 7b04 	ldr.w	r7, [sp], #4
 8005b48:	4770      	bx	lr

08005b4a <TIM_ITRx_SetConfig>:
 8005b4a:	b480      	push	{r7}
 8005b4c:	b085      	sub	sp, #20
 8005b4e:	af00      	add	r7, sp, #0
 8005b50:	6078      	str	r0, [r7, #4]
 8005b52:	6039      	str	r1, [r7, #0]
 8005b54:	687b      	ldr	r3, [r7, #4]
 8005b56:	689b      	ldr	r3, [r3, #8]
 8005b58:	60fb      	str	r3, [r7, #12]
 8005b5a:	68fb      	ldr	r3, [r7, #12]
 8005b5c:	f023 0370 	bic.w	r3, r3, #112	; 0x70
 8005b60:	60fb      	str	r3, [r7, #12]
 8005b62:	683a      	ldr	r2, [r7, #0]
 8005b64:	68fb      	ldr	r3, [r7, #12]
 8005b66:	4313      	orrs	r3, r2
 8005b68:	f043 0307 	orr.w	r3, r3, #7
 8005b6c:	60fb      	str	r3, [r7, #12]
 8005b6e:	687b      	ldr	r3, [r7, #4]
 8005b70:	68fa      	ldr	r2, [r7, #12]
 8005b72:	609a      	str	r2, [r3, #8]
 8005b74:	bf00      	nop
 8005b76:	3714      	adds	r7, #20
 8005b78:	46bd      	mov	sp, r7
 8005b7a:	f85d 7b04 	ldr.w	r7, [sp], #4
 8005b7e:	4770      	bx	lr

08005b80 <TIM_ETR_SetConfig>:
 8005b80:	b480      	push	{r7}
 8005b82:	b087      	sub	sp, #28
 8005b84:	af00      	add	r7, sp, #0
 8005b86:	60f8      	str	r0, [r7, #12]
 8005b88:	60b9      	str	r1, [r7, #8]
 8005b8a:	607a      	str	r2, [r7, #4]
 8005b8c:	603b      	str	r3, [r7, #0]
 8005b8e:	68fb      	ldr	r3, [r7, #12]
 8005b90:	689b      	ldr	r3, [r3, #8]
 8005b92:	617b      	str	r3, [r7, #20]
 8005b94:	697b      	ldr	r3, [r7, #20]
 8005b96:	f423 437f 	bic.w	r3, r3, #65280	; 0xff00
 8005b9a:	617b      	str	r3, [r7, #20]
 8005b9c:	683b      	ldr	r3, [r7, #0]
 8005b9e:	021a      	lsls	r2, r3, #8
 8005ba0:	687b      	ldr	r3, [r7, #4]
 8005ba2:	431a      	orrs	r2, r3
 8005ba4:	68bb      	ldr	r3, [r7, #8]
 8005ba6:	4313      	orrs	r3, r2
 8005ba8:	697a      	ldr	r2, [r7, #20]
 8005baa:	4313      	orrs	r3, r2
 8005bac:	617b      	str	r3, [r7, #20]
 8005bae:	68fb      	ldr	r3, [r7, #12]
 8005bb0:	697a      	ldr	r2, [r7, #20]
 8005bb2:	609a      	str	r2, [r3, #8]
 8005bb4:	bf00      	nop
 8005bb6:	371c      	adds	r7, #28
 8005bb8:	46bd      	mov	sp, r7
 8005bba:	f85d 7b04 	ldr.w	r7, [sp], #4
 8005bbe:	4770      	bx	lr

08005bc0 <TIM_CCxChannelCmd>:
 8005bc0:	b480      	push	{r7}
 8005bc2:	b087      	sub	sp, #28
 8005bc4:	af00      	add	r7, sp, #0
 8005bc6:	60f8      	str	r0, [r7, #12]
 8005bc8:	60b9      	str	r1, [r7, #8]
 8005bca:	607a      	str	r2, [r7, #4]
 8005bcc:	68bb      	ldr	r3, [r7, #8]
 8005bce:	f003 031f 	and.w	r3, r3, #31
 8005bd2:	2201      	movs	r2, #1
 8005bd4:	fa02 f303 	lsl.w	r3, r2, r3
 8005bd8:	617b      	str	r3, [r7, #20]
 8005bda:	68fb      	ldr	r3, [r7, #12]
 8005bdc:	6a1a      	ldr	r2, [r3, #32]
 8005bde:	697b      	ldr	r3, [r7, #20]
 8005be0:	43db      	mvns	r3, r3
 8005be2:	401a      	ands	r2, r3
 8005be4:	68fb      	ldr	r3, [r7, #12]
 8005be6:	621a      	str	r2, [r3, #32]
 8005be8:	68fb      	ldr	r3, [r7, #12]
 8005bea:	6a1a      	ldr	r2, [r3, #32]
 8005bec:	68bb      	ldr	r3, [r7, #8]
 8005bee:	f003 031f 	and.w	r3, r3, #31
 8005bf2:	6879      	ldr	r1, [r7, #4]
 8005bf4:	fa01 f303 	lsl.w	r3, r1, r3
 8005bf8:	431a      	orrs	r2, r3
 8005bfa:	68fb      	ldr	r3, [r7, #12]
 8005bfc:	621a      	str	r2, [r3, #32]
 8005bfe:	bf00      	nop
 8005c00:	371c      	adds	r7, #28
 8005c02:	46bd      	mov	sp, r7
 8005c04:	f85d 7b04 	ldr.w	r7, [sp], #4
 8005c08:	4770      	bx	lr
	...

08005c0c <HAL_TIMEx_MasterConfigSynchronization>:
 8005c0c:	b480      	push	{r7}
 8005c0e:	b085      	sub	sp, #20
 8005c10:	af00      	add	r7, sp, #0
 8005c12:	6078      	str	r0, [r7, #4]
 8005c14:	6039      	str	r1, [r7, #0]
 8005c16:	687b      	ldr	r3, [r7, #4]
 8005c18:	f893 303c 	ldrb.w	r3, [r3, #60]	; 0x3c
 8005c1c:	2b01      	cmp	r3, #1
 8005c1e:	d101      	bne.n	8005c24 <HAL_TIMEx_MasterConfigSynchronization+0x18>
 8005c20:	2302      	movs	r3, #2
 8005c22:	e050      	b.n	8005cc6 <HAL_TIMEx_MasterConfigSynchronization+0xba>
 8005c24:	687b      	ldr	r3, [r7, #4]
 8005c26:	2201      	movs	r2, #1
 8005c28:	f883 203c 	strb.w	r2, [r3, #60]	; 0x3c
 8005c2c:	687b      	ldr	r3, [r7, #4]
 8005c2e:	2202      	movs	r2, #2
 8005c30:	f883 203d 	strb.w	r2, [r3, #61]	; 0x3d
 8005c34:	687b      	ldr	r3, [r7, #4]
 8005c36:	681b      	ldr	r3, [r3, #0]
 8005c38:	685b      	ldr	r3, [r3, #4]
 8005c3a:	60fb      	str	r3, [r7, #12]
 8005c3c:	687b      	ldr	r3, [r7, #4]
 8005c3e:	681b      	ldr	r3, [r3, #0]
 8005c40:	689b      	ldr	r3, [r3, #8]
 8005c42:	60bb      	str	r3, [r7, #8]
 8005c44:	68fb      	ldr	r3, [r7, #12]
 8005c46:	f023 0370 	bic.w	r3, r3, #112	; 0x70
 8005c4a:	60fb      	str	r3, [r7, #12]
 8005c4c:	683b      	ldr	r3, [r7, #0]
 8005c4e:	681b      	ldr	r3, [r3, #0]
 8005c50:	68fa      	ldr	r2, [r7, #12]
 8005c52:	4313      	orrs	r3, r2
 8005c54:	60fb      	str	r3, [r7, #12]
 8005c56:	687b      	ldr	r3, [r7, #4]
 8005c58:	681b      	ldr	r3, [r3, #0]
 8005c5a:	68fa      	ldr	r2, [r7, #12]
 8005c5c:	605a      	str	r2, [r3, #4]
 8005c5e:	687b      	ldr	r3, [r7, #4]
 8005c60:	681b      	ldr	r3, [r3, #0]
 8005c62:	4a1c      	ldr	r2, [pc, #112]	; (8005cd4 <HAL_TIMEx_MasterConfigSynchronization+0xc8>)
 8005c64:	4293      	cmp	r3, r2
 8005c66:	d018      	beq.n	8005c9a <HAL_TIMEx_MasterConfigSynchronization+0x8e>
 8005c68:	687b      	ldr	r3, [r7, #4]
 8005c6a:	681b      	ldr	r3, [r3, #0]
 8005c6c:	f1b3 4f80 	cmp.w	r3, #1073741824	; 0x40000000
 8005c70:	d013      	beq.n	8005c9a <HAL_TIMEx_MasterConfigSynchronization+0x8e>
 8005c72:	687b      	ldr	r3, [r7, #4]
 8005c74:	681b      	ldr	r3, [r3, #0]
 8005c76:	4a18      	ldr	r2, [pc, #96]	; (8005cd8 <HAL_TIMEx_MasterConfigSynchronization+0xcc>)
 8005c78:	4293      	cmp	r3, r2
 8005c7a:	d00e      	beq.n	8005c9a <HAL_TIMEx_MasterConfigSynchronization+0x8e>
 8005c7c:	687b      	ldr	r3, [r7, #4]
 8005c7e:	681b      	ldr	r3, [r3, #0]
 8005c80:	4a16      	ldr	r2, [pc, #88]	; (8005cdc <HAL_TIMEx_MasterConfigSynchronization+0xd0>)
 8005c82:	4293      	cmp	r3, r2
 8005c84:	d009      	beq.n	8005c9a <HAL_TIMEx_MasterConfigSynchronization+0x8e>
 8005c86:	687b      	ldr	r3, [r7, #4]
 8005c88:	681b      	ldr	r3, [r3, #0]
 8005c8a:	4a15      	ldr	r2, [pc, #84]	; (8005ce0 <HAL_TIMEx_MasterConfigSynchronization+0xd4>)
 8005c8c:	4293      	cmp	r3, r2
 8005c8e:	d004      	beq.n	8005c9a <HAL_TIMEx_MasterConfigSynchronization+0x8e>
 8005c90:	687b      	ldr	r3, [r7, #4]
 8005c92:	681b      	ldr	r3, [r3, #0]
 8005c94:	4a13      	ldr	r2, [pc, #76]	; (8005ce4 <HAL_TIMEx_MasterConfigSynchronization+0xd8>)
 8005c96:	4293      	cmp	r3, r2
 8005c98:	d10c      	bne.n	8005cb4 <HAL_TIMEx_MasterConfigSynchronization+0xa8>
 8005c9a:	68bb      	ldr	r3, [r7, #8]
 8005c9c:	f023 0380 	bic.w	r3, r3, #128	; 0x80
 8005ca0:	60bb      	str	r3, [r7, #8]
 8005ca2:	683b      	ldr	r3, [r7, #0]
 8005ca4:	685b      	ldr	r3, [r3, #4]
 8005ca6:	68ba      	ldr	r2, [r7, #8]
 8005ca8:	4313      	orrs	r3, r2
 8005caa:	60bb      	str	r3, [r7, #8]
 8005cac:	687b      	ldr	r3, [r7, #4]
 8005cae:	681b      	ldr	r3, [r3, #0]
 8005cb0:	68ba      	ldr	r2, [r7, #8]
 8005cb2:	609a      	str	r2, [r3, #8]
 8005cb4:	687b      	ldr	r3, [r7, #4]
 8005cb6:	2201      	movs	r2, #1
 8005cb8:	f883 203d 	strb.w	r2, [r3, #61]	; 0x3d
 8005cbc:	687b      	ldr	r3, [r7, #4]
 8005cbe:	2200      	movs	r2, #0
 8005cc0:	f883 203c 	strb.w	r2, [r3, #60]	; 0x3c
 8005cc4:	2300      	movs	r3, #0
 8005cc6:	4618      	mov	r0, r3
 8005cc8:	3714      	adds	r7, #20
 8005cca:	46bd      	mov	sp, r7
 8005ccc:	f85d 7b04 	ldr.w	r7, [sp], #4
 8005cd0:	4770      	bx	lr
 8005cd2:	bf00      	nop
 8005cd4:	40010000 	.word	0x40010000
 8005cd8:	40000400 	.word	0x40000400
 8005cdc:	40000800 	.word	0x40000800
 8005ce0:	40000c00 	.word	0x40000c00
 8005ce4:	40014000 	.word	0x40014000

08005ce8 <HAL_TIMEx_ConfigBreakDeadTime>:
 8005ce8:	b480      	push	{r7}
 8005cea:	b085      	sub	sp, #20
 8005cec:	af00      	add	r7, sp, #0
 8005cee:	6078      	str	r0, [r7, #4]
 8005cf0:	6039      	str	r1, [r7, #0]
 8005cf2:	2300      	movs	r3, #0
 8005cf4:	60fb      	str	r3, [r7, #12]
 8005cf6:	687b      	ldr	r3, [r7, #4]
 8005cf8:	f893 303c 	ldrb.w	r3, [r3, #60]	; 0x3c
 8005cfc:	2b01      	cmp	r3, #1
 8005cfe:	d101      	bne.n	8005d04 <HAL_TIMEx_ConfigBreakDeadTime+0x1c>
 8005d00:	2302      	movs	r3, #2
 8005d02:	e03d      	b.n	8005d80 <HAL_TIMEx_ConfigBreakDeadTime+0x98>
 8005d04:	687b      	ldr	r3, [r7, #4]
 8005d06:	2201      	movs	r2, #1
 8005d08:	f883 203c 	strb.w	r2, [r3, #60]	; 0x3c
 8005d0c:	68fb      	ldr	r3, [r7, #12]
 8005d0e:	f023 02ff 	bic.w	r2, r3, #255	; 0xff
 8005d12:	683b      	ldr	r3, [r7, #0]
 8005d14:	68db      	ldr	r3, [r3, #12]
 8005d16:	4313      	orrs	r3, r2
 8005d18:	60fb      	str	r3, [r7, #12]
 8005d1a:	68fb      	ldr	r3, [r7, #12]
 8005d1c:	f423 7240 	bic.w	r2, r3, #768	; 0x300
 8005d20:	683b      	ldr	r3, [r7, #0]
 8005d22:	689b      	ldr	r3, [r3, #8]
 8005d24:	4313      	orrs	r3, r2
 8005d26:	60fb      	str	r3, [r7, #12]
 8005d28:	68fb      	ldr	r3, [r7, #12]
 8005d2a:	f423 6280 	bic.w	r2, r3, #1024	; 0x400
 8005d2e:	683b      	ldr	r3, [r7, #0]
 8005d30:	685b      	ldr	r3, [r3, #4]
 8005d32:	4313      	orrs	r3, r2
 8005d34:	60fb      	str	r3, [r7, #12]
 8005d36:	68fb      	ldr	r3, [r7, #12]
 8005d38:	f423 6200 	bic.w	r2, r3, #2048	; 0x800
 8005d3c:	683b      	ldr	r3, [r7, #0]
 8005d3e:	681b      	ldr	r3, [r3, #0]
 8005d40:	4313      	orrs	r3, r2
 8005d42:	60fb      	str	r3, [r7, #12]
 8005d44:	68fb      	ldr	r3, [r7, #12]
 8005d46:	f423 5280 	bic.w	r2, r3, #4096	; 0x1000
 8005d4a:	683b      	ldr	r3, [r7, #0]
 8005d4c:	691b      	ldr	r3, [r3, #16]
 8005d4e:	4313      	orrs	r3, r2
 8005d50:	60fb      	str	r3, [r7, #12]
 8005d52:	68fb      	ldr	r3, [r7, #12]
 8005d54:	f423 5200 	bic.w	r2, r3, #8192	; 0x2000
 8005d58:	683b      	ldr	r3, [r7, #0]
 8005d5a:	695b      	ldr	r3, [r3, #20]
 8005d5c:	4313      	orrs	r3, r2
 8005d5e:	60fb      	str	r3, [r7, #12]
 8005d60:	68fb      	ldr	r3, [r7, #12]
 8005d62:	f423 4280 	bic.w	r2, r3, #16384	; 0x4000
 8005d66:	683b      	ldr	r3, [r7, #0]
 8005d68:	69db      	ldr	r3, [r3, #28]
 8005d6a:	4313      	orrs	r3, r2
 8005d6c:	60fb      	str	r3, [r7, #12]
 8005d6e:	687b      	ldr	r3, [r7, #4]
 8005d70:	681b      	ldr	r3, [r3, #0]
 8005d72:	68fa      	ldr	r2, [r7, #12]
 8005d74:	645a      	str	r2, [r3, #68]	; 0x44
 8005d76:	687b      	ldr	r3, [r7, #4]
 8005d78:	2200      	movs	r2, #0
 8005d7a:	f883 203c 	strb.w	r2, [r3, #60]	; 0x3c
 8005d7e:	2300      	movs	r3, #0
 8005d80:	4618      	mov	r0, r3
 8005d82:	3714      	adds	r7, #20
 8005d84:	46bd      	mov	sp, r7
 8005d86:	f85d 7b04 	ldr.w	r7, [sp], #4
 8005d8a:	4770      	bx	lr

08005d8c <HAL_TIMEx_CommutCallback>:
 8005d8c:	b480      	push	{r7}
 8005d8e:	b083      	sub	sp, #12
 8005d90:	af00      	add	r7, sp, #0
 8005d92:	6078      	str	r0, [r7, #4]
 8005d94:	bf00      	nop
 8005d96:	370c      	adds	r7, #12
 8005d98:	46bd      	mov	sp, r7
 8005d9a:	f85d 7b04 	ldr.w	r7, [sp], #4
 8005d9e:	4770      	bx	lr

08005da0 <HAL_TIMEx_BreakCallback>:
 8005da0:	b480      	push	{r7}
 8005da2:	b083      	sub	sp, #12
 8005da4:	af00      	add	r7, sp, #0
 8005da6:	6078      	str	r0, [r7, #4]
 8005da8:	bf00      	nop
 8005daa:	370c      	adds	r7, #12
 8005dac:	46bd      	mov	sp, r7
 8005dae:	f85d 7b04 	ldr.w	r7, [sp], #4
 8005db2:	4770      	bx	lr

08005db4 <__errno>:
 8005db4:	4b01      	ldr	r3, [pc, #4]	; (8005dbc <__errno+0x8>)
 8005db6:	6818      	ldr	r0, [r3, #0]
 8005db8:	4770      	bx	lr
 8005dba:	bf00      	nop
 8005dbc:	20000038 	.word	0x20000038

08005dc0 <__libc_init_array>:
 8005dc0:	b570      	push	{r4, r5, r6, lr}
 8005dc2:	4d0d      	ldr	r5, [pc, #52]	; (8005df8 <__libc_init_array+0x38>)
 8005dc4:	4c0d      	ldr	r4, [pc, #52]	; (8005dfc <__libc_init_array+0x3c>)
 8005dc6:	1b64      	subs	r4, r4, r5
 8005dc8:	10a4      	asrs	r4, r4, #2
 8005dca:	2600      	movs	r6, #0
 8005dcc:	42a6      	cmp	r6, r4
 8005dce:	d109      	bne.n	8005de4 <__libc_init_array+0x24>
 8005dd0:	4d0b      	ldr	r5, [pc, #44]	; (8005e00 <__libc_init_array+0x40>)
 8005dd2:	4c0c      	ldr	r4, [pc, #48]	; (8005e04 <__libc_init_array+0x44>)
 8005dd4:	f000 fc9c 	bl	8006710 <_init>
 8005dd8:	1b64      	subs	r4, r4, r5
 8005dda:	10a4      	asrs	r4, r4, #2
 8005ddc:	2600      	movs	r6, #0
 8005dde:	42a6      	cmp	r6, r4
 8005de0:	d105      	bne.n	8005dee <__libc_init_array+0x2e>
 8005de2:	bd70      	pop	{r4, r5, r6, pc}
 8005de4:	f855 3b04 	ldr.w	r3, [r5], #4
 8005de8:	4798      	blx	r3
 8005dea:	3601      	adds	r6, #1
 8005dec:	e7ee      	b.n	8005dcc <__libc_init_array+0xc>
 8005dee:	f855 3b04 	ldr.w	r3, [r5], #4
 8005df2:	4798      	blx	r3
 8005df4:	3601      	adds	r6, #1
 8005df6:	e7f2      	b.n	8005dde <__libc_init_array+0x1e>
 8005df8:	08006928 	.word	0x08006928
 8005dfc:	08006928 	.word	0x08006928
 8005e00:	08006928 	.word	0x08006928
 8005e04:	0800692c 	.word	0x0800692c

08005e08 <memset>:
 8005e08:	4402      	add	r2, r0
 8005e0a:	4603      	mov	r3, r0
 8005e0c:	4293      	cmp	r3, r2
 8005e0e:	d100      	bne.n	8005e12 <memset+0xa>
 8005e10:	4770      	bx	lr
 8005e12:	f803 1b01 	strb.w	r1, [r3], #1
 8005e16:	e7f9      	b.n	8005e0c <memset+0x4>

08005e18 <siprintf>:
 8005e18:	b40e      	push	{r1, r2, r3}
 8005e1a:	b500      	push	{lr}
 8005e1c:	b09c      	sub	sp, #112	; 0x70
 8005e1e:	ab1d      	add	r3, sp, #116	; 0x74
 8005e20:	9002      	str	r0, [sp, #8]
 8005e22:	9006      	str	r0, [sp, #24]
 8005e24:	f06f 4100 	mvn.w	r1, #2147483648	; 0x80000000
 8005e28:	4809      	ldr	r0, [pc, #36]	; (8005e50 <siprintf+0x38>)
 8005e2a:	9107      	str	r1, [sp, #28]
 8005e2c:	9104      	str	r1, [sp, #16]
 8005e2e:	4909      	ldr	r1, [pc, #36]	; (8005e54 <siprintf+0x3c>)
 8005e30:	f853 2b04 	ldr.w	r2, [r3], #4
 8005e34:	9105      	str	r1, [sp, #20]
 8005e36:	6800      	ldr	r0, [r0, #0]
 8005e38:	9301      	str	r3, [sp, #4]
 8005e3a:	a902      	add	r1, sp, #8
 8005e3c:	f000 f876 	bl	8005f2c <_svfiprintf_r>
 8005e40:	9b02      	ldr	r3, [sp, #8]
 8005e42:	2200      	movs	r2, #0
 8005e44:	701a      	strb	r2, [r3, #0]
 8005e46:	b01c      	add	sp, #112	; 0x70
 8005e48:	f85d eb04 	ldr.w	lr, [sp], #4
 8005e4c:	b003      	add	sp, #12
 8005e4e:	4770      	bx	lr
 8005e50:	20000038 	.word	0x20000038
 8005e54:	ffff0208 	.word	0xffff0208

08005e58 <strcat>:
 8005e58:	b510      	push	{r4, lr}
 8005e5a:	4602      	mov	r2, r0
 8005e5c:	7814      	ldrb	r4, [r2, #0]
 8005e5e:	4613      	mov	r3, r2
 8005e60:	3201      	adds	r2, #1
 8005e62:	2c00      	cmp	r4, #0
 8005e64:	d1fa      	bne.n	8005e5c <strcat+0x4>
 8005e66:	3b01      	subs	r3, #1
 8005e68:	f811 2b01 	ldrb.w	r2, [r1], #1
 8005e6c:	f803 2f01 	strb.w	r2, [r3, #1]!
 8005e70:	2a00      	cmp	r2, #0
 8005e72:	d1f9      	bne.n	8005e68 <strcat+0x10>
 8005e74:	bd10      	pop	{r4, pc}

08005e76 <__ssputs_r>:
 8005e76:	e92d 47f0 	stmdb	sp!, {r4, r5, r6, r7, r8, r9, sl, lr}
 8005e7a:	688e      	ldr	r6, [r1, #8]
 8005e7c:	429e      	cmp	r6, r3
 8005e7e:	4682      	mov	sl, r0
 8005e80:	460c      	mov	r4, r1
 8005e82:	4690      	mov	r8, r2
 8005e84:	461f      	mov	r7, r3
 8005e86:	d838      	bhi.n	8005efa <__ssputs_r+0x84>
 8005e88:	898a      	ldrh	r2, [r1, #12]
 8005e8a:	f412 6f90 	tst.w	r2, #1152	; 0x480
 8005e8e:	d032      	beq.n	8005ef6 <__ssputs_r+0x80>
 8005e90:	6825      	ldr	r5, [r4, #0]
 8005e92:	6909      	ldr	r1, [r1, #16]
 8005e94:	eba5 0901 	sub.w	r9, r5, r1
 8005e98:	6965      	ldr	r5, [r4, #20]
 8005e9a:	eb05 0545 	add.w	r5, r5, r5, lsl #1
 8005e9e:	eb05 75d5 	add.w	r5, r5, r5, lsr #31
 8005ea2:	3301      	adds	r3, #1
 8005ea4:	444b      	add	r3, r9
 8005ea6:	106d      	asrs	r5, r5, #1
 8005ea8:	429d      	cmp	r5, r3
 8005eaa:	bf38      	it	cc
 8005eac:	461d      	movcc	r5, r3
 8005eae:	0553      	lsls	r3, r2, #21
 8005eb0:	d531      	bpl.n	8005f16 <__ssputs_r+0xa0>
 8005eb2:	4629      	mov	r1, r5
 8005eb4:	f000 fb62 	bl	800657c <_malloc_r>
 8005eb8:	4606      	mov	r6, r0
 8005eba:	b950      	cbnz	r0, 8005ed2 <__ssputs_r+0x5c>
 8005ebc:	230c      	movs	r3, #12
 8005ebe:	f8ca 3000 	str.w	r3, [sl]
 8005ec2:	89a3      	ldrh	r3, [r4, #12]
 8005ec4:	f043 0340 	orr.w	r3, r3, #64	; 0x40
 8005ec8:	81a3      	strh	r3, [r4, #12]
 8005eca:	f04f 30ff 	mov.w	r0, #4294967295
 8005ece:	e8bd 87f0 	ldmia.w	sp!, {r4, r5, r6, r7, r8, r9, sl, pc}
 8005ed2:	6921      	ldr	r1, [r4, #16]
 8005ed4:	464a      	mov	r2, r9
 8005ed6:	f000 fabd 	bl	8006454 <memcpy>
 8005eda:	89a3      	ldrh	r3, [r4, #12]
 8005edc:	f423 6390 	bic.w	r3, r3, #1152	; 0x480
 8005ee0:	f043 0380 	orr.w	r3, r3, #128	; 0x80
 8005ee4:	81a3      	strh	r3, [r4, #12]
 8005ee6:	6126      	str	r6, [r4, #16]
 8005ee8:	6165      	str	r5, [r4, #20]
 8005eea:	444e      	add	r6, r9
 8005eec:	eba5 0509 	sub.w	r5, r5, r9
 8005ef0:	6026      	str	r6, [r4, #0]
 8005ef2:	60a5      	str	r5, [r4, #8]
 8005ef4:	463e      	mov	r6, r7
 8005ef6:	42be      	cmp	r6, r7
 8005ef8:	d900      	bls.n	8005efc <__ssputs_r+0x86>
 8005efa:	463e      	mov	r6, r7
 8005efc:	6820      	ldr	r0, [r4, #0]
 8005efe:	4632      	mov	r2, r6
 8005f00:	4641      	mov	r1, r8
 8005f02:	f000 fab5 	bl	8006470 <memmove>
 8005f06:	68a3      	ldr	r3, [r4, #8]
 8005f08:	1b9b      	subs	r3, r3, r6
 8005f0a:	60a3      	str	r3, [r4, #8]
 8005f0c:	6823      	ldr	r3, [r4, #0]
 8005f0e:	4433      	add	r3, r6
 8005f10:	6023      	str	r3, [r4, #0]
 8005f12:	2000      	movs	r0, #0
 8005f14:	e7db      	b.n	8005ece <__ssputs_r+0x58>
 8005f16:	462a      	mov	r2, r5
 8005f18:	f000 fba4 	bl	8006664 <_realloc_r>
 8005f1c:	4606      	mov	r6, r0
 8005f1e:	2800      	cmp	r0, #0
 8005f20:	d1e1      	bne.n	8005ee6 <__ssputs_r+0x70>
 8005f22:	6921      	ldr	r1, [r4, #16]
 8005f24:	4650      	mov	r0, sl
 8005f26:	f000 fabd 	bl	80064a4 <_free_r>
 8005f2a:	e7c7      	b.n	8005ebc <__ssputs_r+0x46>

08005f2c <_svfiprintf_r>:
 8005f2c:	e92d 4ff0 	stmdb	sp!, {r4, r5, r6, r7, r8, r9, sl, fp, lr}
 8005f30:	4698      	mov	r8, r3
 8005f32:	898b      	ldrh	r3, [r1, #12]
 8005f34:	061b      	lsls	r3, r3, #24
 8005f36:	b09d      	sub	sp, #116	; 0x74
 8005f38:	4607      	mov	r7, r0
 8005f3a:	460d      	mov	r5, r1
 8005f3c:	4614      	mov	r4, r2
 8005f3e:	d50e      	bpl.n	8005f5e <_svfiprintf_r+0x32>
 8005f40:	690b      	ldr	r3, [r1, #16]
 8005f42:	b963      	cbnz	r3, 8005f5e <_svfiprintf_r+0x32>
 8005f44:	2140      	movs	r1, #64	; 0x40
 8005f46:	f000 fb19 	bl	800657c <_malloc_r>
 8005f4a:	6028      	str	r0, [r5, #0]
 8005f4c:	6128      	str	r0, [r5, #16]
 8005f4e:	b920      	cbnz	r0, 8005f5a <_svfiprintf_r+0x2e>
 8005f50:	230c      	movs	r3, #12
 8005f52:	603b      	str	r3, [r7, #0]
 8005f54:	f04f 30ff 	mov.w	r0, #4294967295
 8005f58:	e0d1      	b.n	80060fe <_svfiprintf_r+0x1d2>
 8005f5a:	2340      	movs	r3, #64	; 0x40
 8005f5c:	616b      	str	r3, [r5, #20]
 8005f5e:	2300      	movs	r3, #0
 8005f60:	9309      	str	r3, [sp, #36]	; 0x24
 8005f62:	2320      	movs	r3, #32
 8005f64:	f88d 3029 	strb.w	r3, [sp, #41]	; 0x29
 8005f68:	f8cd 800c 	str.w	r8, [sp, #12]
 8005f6c:	2330      	movs	r3, #48	; 0x30
 8005f6e:	f8df 81a8 	ldr.w	r8, [pc, #424]	; 8006118 <_svfiprintf_r+0x1ec>
 8005f72:	f88d 302a 	strb.w	r3, [sp, #42]	; 0x2a
 8005f76:	f04f 0901 	mov.w	r9, #1
 8005f7a:	4623      	mov	r3, r4
 8005f7c:	469a      	mov	sl, r3
 8005f7e:	f813 2b01 	ldrb.w	r2, [r3], #1
 8005f82:	b10a      	cbz	r2, 8005f88 <_svfiprintf_r+0x5c>
 8005f84:	2a25      	cmp	r2, #37	; 0x25
 8005f86:	d1f9      	bne.n	8005f7c <_svfiprintf_r+0x50>
 8005f88:	ebba 0b04 	subs.w	fp, sl, r4
 8005f8c:	d00b      	beq.n	8005fa6 <_svfiprintf_r+0x7a>
 8005f8e:	465b      	mov	r3, fp
 8005f90:	4622      	mov	r2, r4
 8005f92:	4629      	mov	r1, r5
 8005f94:	4638      	mov	r0, r7
 8005f96:	f7ff ff6e 	bl	8005e76 <__ssputs_r>
 8005f9a:	3001      	adds	r0, #1
 8005f9c:	f000 80aa 	beq.w	80060f4 <_svfiprintf_r+0x1c8>
 8005fa0:	9a09      	ldr	r2, [sp, #36]	; 0x24
 8005fa2:	445a      	add	r2, fp
 8005fa4:	9209      	str	r2, [sp, #36]	; 0x24
 8005fa6:	f89a 3000 	ldrb.w	r3, [sl]
 8005faa:	2b00      	cmp	r3, #0
 8005fac:	f000 80a2 	beq.w	80060f4 <_svfiprintf_r+0x1c8>
 8005fb0:	2300      	movs	r3, #0
 8005fb2:	f04f 32ff 	mov.w	r2, #4294967295
 8005fb6:	e9cd 2305 	strd	r2, r3, [sp, #20]
 8005fba:	f10a 0a01 	add.w	sl, sl, #1
 8005fbe:	9304      	str	r3, [sp, #16]
 8005fc0:	9307      	str	r3, [sp, #28]
 8005fc2:	f88d 3053 	strb.w	r3, [sp, #83]	; 0x53
 8005fc6:	931a      	str	r3, [sp, #104]	; 0x68
 8005fc8:	4654      	mov	r4, sl
 8005fca:	2205      	movs	r2, #5
 8005fcc:	f814 1b01 	ldrb.w	r1, [r4], #1
 8005fd0:	4851      	ldr	r0, [pc, #324]	; (8006118 <_svfiprintf_r+0x1ec>)
 8005fd2:	f7fa f90d 	bl	80001f0 <memchr>
 8005fd6:	9a04      	ldr	r2, [sp, #16]
 8005fd8:	b9d8      	cbnz	r0, 8006012 <_svfiprintf_r+0xe6>
 8005fda:	06d0      	lsls	r0, r2, #27
 8005fdc:	bf44      	itt	mi
 8005fde:	2320      	movmi	r3, #32
 8005fe0:	f88d 3053 	strbmi.w	r3, [sp, #83]	; 0x53
 8005fe4:	0711      	lsls	r1, r2, #28
 8005fe6:	bf44      	itt	mi
 8005fe8:	232b      	movmi	r3, #43	; 0x2b
 8005fea:	f88d 3053 	strbmi.w	r3, [sp, #83]	; 0x53
 8005fee:	f89a 3000 	ldrb.w	r3, [sl]
 8005ff2:	2b2a      	cmp	r3, #42	; 0x2a
 8005ff4:	d015      	beq.n	8006022 <_svfiprintf_r+0xf6>
 8005ff6:	9a07      	ldr	r2, [sp, #28]
 8005ff8:	4654      	mov	r4, sl
 8005ffa:	2000      	movs	r0, #0
 8005ffc:	f04f 0c0a 	mov.w	ip, #10
 8006000:	4621      	mov	r1, r4
 8006002:	f811 3b01 	ldrb.w	r3, [r1], #1
 8006006:	3b30      	subs	r3, #48	; 0x30
 8006008:	2b09      	cmp	r3, #9
 800600a:	d94e      	bls.n	80060aa <_svfiprintf_r+0x17e>
 800600c:	b1b0      	cbz	r0, 800603c <_svfiprintf_r+0x110>
 800600e:	9207      	str	r2, [sp, #28]
 8006010:	e014      	b.n	800603c <_svfiprintf_r+0x110>
 8006012:	eba0 0308 	sub.w	r3, r0, r8
 8006016:	fa09 f303 	lsl.w	r3, r9, r3
 800601a:	4313      	orrs	r3, r2
 800601c:	9304      	str	r3, [sp, #16]
 800601e:	46a2      	mov	sl, r4
 8006020:	e7d2      	b.n	8005fc8 <_svfiprintf_r+0x9c>
 8006022:	9b03      	ldr	r3, [sp, #12]
 8006024:	1d19      	adds	r1, r3, #4
 8006026:	681b      	ldr	r3, [r3, #0]
 8006028:	9103      	str	r1, [sp, #12]
 800602a:	2b00      	cmp	r3, #0
 800602c:	bfbb      	ittet	lt
 800602e:	425b      	neglt	r3, r3
 8006030:	f042 0202 	orrlt.w	r2, r2, #2
 8006034:	9307      	strge	r3, [sp, #28]
 8006036:	9307      	strlt	r3, [sp, #28]
 8006038:	bfb8      	it	lt
 800603a:	9204      	strlt	r2, [sp, #16]
 800603c:	7823      	ldrb	r3, [r4, #0]
 800603e:	2b2e      	cmp	r3, #46	; 0x2e
 8006040:	d10c      	bne.n	800605c <_svfiprintf_r+0x130>
 8006042:	7863      	ldrb	r3, [r4, #1]
 8006044:	2b2a      	cmp	r3, #42	; 0x2a
 8006046:	d135      	bne.n	80060b4 <_svfiprintf_r+0x188>
 8006048:	9b03      	ldr	r3, [sp, #12]
 800604a:	1d1a      	adds	r2, r3, #4
 800604c:	681b      	ldr	r3, [r3, #0]
 800604e:	9203      	str	r2, [sp, #12]
 8006050:	2b00      	cmp	r3, #0
 8006052:	bfb8      	it	lt
 8006054:	f04f 33ff 	movlt.w	r3, #4294967295
 8006058:	3402      	adds	r4, #2
 800605a:	9305      	str	r3, [sp, #20]
 800605c:	f8df a0c8 	ldr.w	sl, [pc, #200]	; 8006128 <_svfiprintf_r+0x1fc>
 8006060:	7821      	ldrb	r1, [r4, #0]
 8006062:	2203      	movs	r2, #3
 8006064:	4650      	mov	r0, sl
 8006066:	f7fa f8c3 	bl	80001f0 <memchr>
 800606a:	b140      	cbz	r0, 800607e <_svfiprintf_r+0x152>
 800606c:	2340      	movs	r3, #64	; 0x40
 800606e:	eba0 000a 	sub.w	r0, r0, sl
 8006072:	fa03 f000 	lsl.w	r0, r3, r0
 8006076:	9b04      	ldr	r3, [sp, #16]
 8006078:	4303      	orrs	r3, r0
 800607a:	3401      	adds	r4, #1
 800607c:	9304      	str	r3, [sp, #16]
 800607e:	f814 1b01 	ldrb.w	r1, [r4], #1
 8006082:	4826      	ldr	r0, [pc, #152]	; (800611c <_svfiprintf_r+0x1f0>)
 8006084:	f88d 1028 	strb.w	r1, [sp, #40]	; 0x28
 8006088:	2206      	movs	r2, #6
 800608a:	f7fa f8b1 	bl	80001f0 <memchr>
 800608e:	2800      	cmp	r0, #0
 8006090:	d038      	beq.n	8006104 <_svfiprintf_r+0x1d8>
 8006092:	4b23      	ldr	r3, [pc, #140]	; (8006120 <_svfiprintf_r+0x1f4>)
 8006094:	bb1b      	cbnz	r3, 80060de <_svfiprintf_r+0x1b2>
 8006096:	9b03      	ldr	r3, [sp, #12]
 8006098:	3307      	adds	r3, #7
 800609a:	f023 0307 	bic.w	r3, r3, #7
 800609e:	3308      	adds	r3, #8
 80060a0:	9303      	str	r3, [sp, #12]
 80060a2:	9b09      	ldr	r3, [sp, #36]	; 0x24
 80060a4:	4433      	add	r3, r6
 80060a6:	9309      	str	r3, [sp, #36]	; 0x24
 80060a8:	e767      	b.n	8005f7a <_svfiprintf_r+0x4e>
 80060aa:	fb0c 3202 	mla	r2, ip, r2, r3
 80060ae:	460c      	mov	r4, r1
 80060b0:	2001      	movs	r0, #1
 80060b2:	e7a5      	b.n	8006000 <_svfiprintf_r+0xd4>
 80060b4:	2300      	movs	r3, #0
 80060b6:	3401      	adds	r4, #1
 80060b8:	9305      	str	r3, [sp, #20]
 80060ba:	4619      	mov	r1, r3
 80060bc:	f04f 0c0a 	mov.w	ip, #10
 80060c0:	4620      	mov	r0, r4
 80060c2:	f810 2b01 	ldrb.w	r2, [r0], #1
 80060c6:	3a30      	subs	r2, #48	; 0x30
 80060c8:	2a09      	cmp	r2, #9
 80060ca:	d903      	bls.n	80060d4 <_svfiprintf_r+0x1a8>
 80060cc:	2b00      	cmp	r3, #0
 80060ce:	d0c5      	beq.n	800605c <_svfiprintf_r+0x130>
 80060d0:	9105      	str	r1, [sp, #20]
 80060d2:	e7c3      	b.n	800605c <_svfiprintf_r+0x130>
 80060d4:	fb0c 2101 	mla	r1, ip, r1, r2
 80060d8:	4604      	mov	r4, r0
 80060da:	2301      	movs	r3, #1
 80060dc:	e7f0      	b.n	80060c0 <_svfiprintf_r+0x194>
 80060de:	ab03      	add	r3, sp, #12
 80060e0:	9300      	str	r3, [sp, #0]
 80060e2:	462a      	mov	r2, r5
 80060e4:	4b0f      	ldr	r3, [pc, #60]	; (8006124 <_svfiprintf_r+0x1f8>)
 80060e6:	a904      	add	r1, sp, #16
 80060e8:	4638      	mov	r0, r7
 80060ea:	f3af 8000 	nop.w
 80060ee:	1c42      	adds	r2, r0, #1
 80060f0:	4606      	mov	r6, r0
 80060f2:	d1d6      	bne.n	80060a2 <_svfiprintf_r+0x176>
 80060f4:	89ab      	ldrh	r3, [r5, #12]
 80060f6:	065b      	lsls	r3, r3, #25
 80060f8:	f53f af2c 	bmi.w	8005f54 <_svfiprintf_r+0x28>
 80060fc:	9809      	ldr	r0, [sp, #36]	; 0x24
 80060fe:	b01d      	add	sp, #116	; 0x74
 8006100:	e8bd 8ff0 	ldmia.w	sp!, {r4, r5, r6, r7, r8, r9, sl, fp, pc}
 8006104:	ab03      	add	r3, sp, #12
 8006106:	9300      	str	r3, [sp, #0]
 8006108:	462a      	mov	r2, r5
 800610a:	4b06      	ldr	r3, [pc, #24]	; (8006124 <_svfiprintf_r+0x1f8>)
 800610c:	a904      	add	r1, sp, #16
 800610e:	4638      	mov	r0, r7
 8006110:	f000 f87a 	bl	8006208 <_printf_i>
 8006114:	e7eb      	b.n	80060ee <_svfiprintf_r+0x1c2>
 8006116:	bf00      	nop
 8006118:	080068ec 	.word	0x080068ec
 800611c:	080068f6 	.word	0x080068f6
 8006120:	00000000 	.word	0x00000000
 8006124:	08005e77 	.word	0x08005e77
 8006128:	080068f2 	.word	0x080068f2

0800612c <_printf_common>:
 800612c:	e92d 47f0 	stmdb	sp!, {r4, r5, r6, r7, r8, r9, sl, lr}
 8006130:	4616      	mov	r6, r2
 8006132:	4699      	mov	r9, r3
 8006134:	688a      	ldr	r2, [r1, #8]
 8006136:	690b      	ldr	r3, [r1, #16]
 8006138:	f8dd 8020 	ldr.w	r8, [sp, #32]
 800613c:	4293      	cmp	r3, r2
 800613e:	bfb8      	it	lt
 8006140:	4613      	movlt	r3, r2
 8006142:	6033      	str	r3, [r6, #0]
 8006144:	f891 2043 	ldrb.w	r2, [r1, #67]	; 0x43
 8006148:	4607      	mov	r7, r0
 800614a:	460c      	mov	r4, r1
 800614c:	b10a      	cbz	r2, 8006152 <_printf_common+0x26>
 800614e:	3301      	adds	r3, #1
 8006150:	6033      	str	r3, [r6, #0]
 8006152:	6823      	ldr	r3, [r4, #0]
 8006154:	0699      	lsls	r1, r3, #26
 8006156:	bf42      	ittt	mi
 8006158:	6833      	ldrmi	r3, [r6, #0]
 800615a:	3302      	addmi	r3, #2
 800615c:	6033      	strmi	r3, [r6, #0]
 800615e:	6825      	ldr	r5, [r4, #0]
 8006160:	f015 0506 	ands.w	r5, r5, #6
 8006164:	d106      	bne.n	8006174 <_printf_common+0x48>
 8006166:	f104 0a19 	add.w	sl, r4, #25
 800616a:	68e3      	ldr	r3, [r4, #12]
 800616c:	6832      	ldr	r2, [r6, #0]
 800616e:	1a9b      	subs	r3, r3, r2
 8006170:	42ab      	cmp	r3, r5
 8006172:	dc26      	bgt.n	80061c2 <_printf_common+0x96>
 8006174:	f894 2043 	ldrb.w	r2, [r4, #67]	; 0x43
 8006178:	1e13      	subs	r3, r2, #0
 800617a:	6822      	ldr	r2, [r4, #0]
 800617c:	bf18      	it	ne
 800617e:	2301      	movne	r3, #1
 8006180:	0692      	lsls	r2, r2, #26
 8006182:	d42b      	bmi.n	80061dc <_printf_common+0xb0>
 8006184:	f104 0243 	add.w	r2, r4, #67	; 0x43
 8006188:	4649      	mov	r1, r9
 800618a:	4638      	mov	r0, r7
 800618c:	47c0      	blx	r8
 800618e:	3001      	adds	r0, #1
 8006190:	d01e      	beq.n	80061d0 <_printf_common+0xa4>
 8006192:	6823      	ldr	r3, [r4, #0]
 8006194:	68e5      	ldr	r5, [r4, #12]
 8006196:	6832      	ldr	r2, [r6, #0]
 8006198:	f003 0306 	and.w	r3, r3, #6
 800619c:	2b04      	cmp	r3, #4
 800619e:	bf08      	it	eq
 80061a0:	1aad      	subeq	r5, r5, r2
 80061a2:	68a3      	ldr	r3, [r4, #8]
 80061a4:	6922      	ldr	r2, [r4, #16]
 80061a6:	bf0c      	ite	eq
 80061a8:	ea25 75e5 	biceq.w	r5, r5, r5, asr #31
 80061ac:	2500      	movne	r5, #0
 80061ae:	4293      	cmp	r3, r2
 80061b0:	bfc4      	itt	gt
 80061b2:	1a9b      	subgt	r3, r3, r2
 80061b4:	18ed      	addgt	r5, r5, r3
 80061b6:	2600      	movs	r6, #0
 80061b8:	341a      	adds	r4, #26
 80061ba:	42b5      	cmp	r5, r6
 80061bc:	d11a      	bne.n	80061f4 <_printf_common+0xc8>
 80061be:	2000      	movs	r0, #0
 80061c0:	e008      	b.n	80061d4 <_printf_common+0xa8>
 80061c2:	2301      	movs	r3, #1
 80061c4:	4652      	mov	r2, sl
 80061c6:	4649      	mov	r1, r9
 80061c8:	4638      	mov	r0, r7
 80061ca:	47c0      	blx	r8
 80061cc:	3001      	adds	r0, #1
 80061ce:	d103      	bne.n	80061d8 <_printf_common+0xac>
 80061d0:	f04f 30ff 	mov.w	r0, #4294967295
 80061d4:	e8bd 87f0 	ldmia.w	sp!, {r4, r5, r6, r7, r8, r9, sl, pc}
 80061d8:	3501      	adds	r5, #1
 80061da:	e7c6      	b.n	800616a <_printf_common+0x3e>
 80061dc:	18e1      	adds	r1, r4, r3
 80061de:	1c5a      	adds	r2, r3, #1
 80061e0:	2030      	movs	r0, #48	; 0x30
 80061e2:	f881 0043 	strb.w	r0, [r1, #67]	; 0x43
 80061e6:	4422      	add	r2, r4
 80061e8:	f894 1045 	ldrb.w	r1, [r4, #69]	; 0x45
 80061ec:	f882 1043 	strb.w	r1, [r2, #67]	; 0x43
 80061f0:	3302      	adds	r3, #2
 80061f2:	e7c7      	b.n	8006184 <_printf_common+0x58>
 80061f4:	2301      	movs	r3, #1
 80061f6:	4622      	mov	r2, r4
 80061f8:	4649      	mov	r1, r9
 80061fa:	4638      	mov	r0, r7
 80061fc:	47c0      	blx	r8
 80061fe:	3001      	adds	r0, #1
 8006200:	d0e6      	beq.n	80061d0 <_printf_common+0xa4>
 8006202:	3601      	adds	r6, #1
 8006204:	e7d9      	b.n	80061ba <_printf_common+0x8e>
	...

08006208 <_printf_i>:
 8006208:	e92d 47ff 	stmdb	sp!, {r0, r1, r2, r3, r4, r5, r6, r7, r8, r9, sl, lr}
 800620c:	7e0f      	ldrb	r7, [r1, #24]
 800620e:	9d0c      	ldr	r5, [sp, #48]	; 0x30
 8006210:	2f78      	cmp	r7, #120	; 0x78
 8006212:	4691      	mov	r9, r2
 8006214:	4680      	mov	r8, r0
 8006216:	460c      	mov	r4, r1
 8006218:	469a      	mov	sl, r3
 800621a:	f101 0243 	add.w	r2, r1, #67	; 0x43
 800621e:	d807      	bhi.n	8006230 <_printf_i+0x28>
 8006220:	2f62      	cmp	r7, #98	; 0x62
 8006222:	d80a      	bhi.n	800623a <_printf_i+0x32>
 8006224:	2f00      	cmp	r7, #0
 8006226:	f000 80d8 	beq.w	80063da <_printf_i+0x1d2>
 800622a:	2f58      	cmp	r7, #88	; 0x58
 800622c:	f000 80a3 	beq.w	8006376 <_printf_i+0x16e>
 8006230:	f104 0542 	add.w	r5, r4, #66	; 0x42
 8006234:	f884 7042 	strb.w	r7, [r4, #66]	; 0x42
 8006238:	e03a      	b.n	80062b0 <_printf_i+0xa8>
 800623a:	f1a7 0363 	sub.w	r3, r7, #99	; 0x63
 800623e:	2b15      	cmp	r3, #21
 8006240:	d8f6      	bhi.n	8006230 <_printf_i+0x28>
 8006242:	a101      	add	r1, pc, #4	; (adr r1, 8006248 <_printf_i+0x40>)
 8006244:	f851 f023 	ldr.w	pc, [r1, r3, lsl #2]
 8006248:	080062a1 	.word	0x080062a1
 800624c:	080062b5 	.word	0x080062b5
 8006250:	08006231 	.word	0x08006231
 8006254:	08006231 	.word	0x08006231
 8006258:	08006231 	.word	0x08006231
 800625c:	08006231 	.word	0x08006231
 8006260:	080062b5 	.word	0x080062b5
 8006264:	08006231 	.word	0x08006231
 8006268:	08006231 	.word	0x08006231
 800626c:	08006231 	.word	0x08006231
 8006270:	08006231 	.word	0x08006231
 8006274:	080063c1 	.word	0x080063c1
 8006278:	080062e5 	.word	0x080062e5
 800627c:	080063a3 	.word	0x080063a3
 8006280:	08006231 	.word	0x08006231
 8006284:	08006231 	.word	0x08006231
 8006288:	080063e3 	.word	0x080063e3
 800628c:	08006231 	.word	0x08006231
 8006290:	080062e5 	.word	0x080062e5
 8006294:	08006231 	.word	0x08006231
 8006298:	08006231 	.word	0x08006231
 800629c:	080063ab 	.word	0x080063ab
 80062a0:	682b      	ldr	r3, [r5, #0]
 80062a2:	1d1a      	adds	r2, r3, #4
 80062a4:	681b      	ldr	r3, [r3, #0]
 80062a6:	602a      	str	r2, [r5, #0]
 80062a8:	f104 0542 	add.w	r5, r4, #66	; 0x42
 80062ac:	f884 3042 	strb.w	r3, [r4, #66]	; 0x42
 80062b0:	2301      	movs	r3, #1
 80062b2:	e0a3      	b.n	80063fc <_printf_i+0x1f4>
 80062b4:	6820      	ldr	r0, [r4, #0]
 80062b6:	6829      	ldr	r1, [r5, #0]
 80062b8:	0606      	lsls	r6, r0, #24
 80062ba:	f101 0304 	add.w	r3, r1, #4
 80062be:	d50a      	bpl.n	80062d6 <_printf_i+0xce>
 80062c0:	680e      	ldr	r6, [r1, #0]
 80062c2:	602b      	str	r3, [r5, #0]
 80062c4:	2e00      	cmp	r6, #0
 80062c6:	da03      	bge.n	80062d0 <_printf_i+0xc8>
 80062c8:	232d      	movs	r3, #45	; 0x2d
 80062ca:	4276      	negs	r6, r6
 80062cc:	f884 3043 	strb.w	r3, [r4, #67]	; 0x43
 80062d0:	485e      	ldr	r0, [pc, #376]	; (800644c <_printf_i+0x244>)
 80062d2:	230a      	movs	r3, #10
 80062d4:	e019      	b.n	800630a <_printf_i+0x102>
 80062d6:	680e      	ldr	r6, [r1, #0]
 80062d8:	602b      	str	r3, [r5, #0]
 80062da:	f010 0f40 	tst.w	r0, #64	; 0x40
 80062de:	bf18      	it	ne
 80062e0:	b236      	sxthne	r6, r6
 80062e2:	e7ef      	b.n	80062c4 <_printf_i+0xbc>
 80062e4:	682b      	ldr	r3, [r5, #0]
 80062e6:	6820      	ldr	r0, [r4, #0]
 80062e8:	1d19      	adds	r1, r3, #4
 80062ea:	6029      	str	r1, [r5, #0]
 80062ec:	0601      	lsls	r1, r0, #24
 80062ee:	d501      	bpl.n	80062f4 <_printf_i+0xec>
 80062f0:	681e      	ldr	r6, [r3, #0]
 80062f2:	e002      	b.n	80062fa <_printf_i+0xf2>
 80062f4:	0646      	lsls	r6, r0, #25
 80062f6:	d5fb      	bpl.n	80062f0 <_printf_i+0xe8>
 80062f8:	881e      	ldrh	r6, [r3, #0]
 80062fa:	4854      	ldr	r0, [pc, #336]	; (800644c <_printf_i+0x244>)
 80062fc:	2f6f      	cmp	r7, #111	; 0x6f
 80062fe:	bf0c      	ite	eq
 8006300:	2308      	moveq	r3, #8
 8006302:	230a      	movne	r3, #10
 8006304:	2100      	movs	r1, #0
 8006306:	f884 1043 	strb.w	r1, [r4, #67]	; 0x43
 800630a:	6865      	ldr	r5, [r4, #4]
 800630c:	60a5      	str	r5, [r4, #8]
 800630e:	2d00      	cmp	r5, #0
 8006310:	bfa2      	ittt	ge
 8006312:	6821      	ldrge	r1, [r4, #0]
 8006314:	f021 0104 	bicge.w	r1, r1, #4
 8006318:	6021      	strge	r1, [r4, #0]
 800631a:	b90e      	cbnz	r6, 8006320 <_printf_i+0x118>
 800631c:	2d00      	cmp	r5, #0
 800631e:	d04d      	beq.n	80063bc <_printf_i+0x1b4>
 8006320:	4615      	mov	r5, r2
 8006322:	fbb6 f1f3 	udiv	r1, r6, r3
 8006326:	fb03 6711 	mls	r7, r3, r1, r6
 800632a:	5dc7      	ldrb	r7, [r0, r7]
 800632c:	f805 7d01 	strb.w	r7, [r5, #-1]!
 8006330:	4637      	mov	r7, r6
 8006332:	42bb      	cmp	r3, r7
 8006334:	460e      	mov	r6, r1
 8006336:	d9f4      	bls.n	8006322 <_printf_i+0x11a>
 8006338:	2b08      	cmp	r3, #8
 800633a:	d10b      	bne.n	8006354 <_printf_i+0x14c>
 800633c:	6823      	ldr	r3, [r4, #0]
 800633e:	07de      	lsls	r6, r3, #31
 8006340:	d508      	bpl.n	8006354 <_printf_i+0x14c>
 8006342:	6923      	ldr	r3, [r4, #16]
 8006344:	6861      	ldr	r1, [r4, #4]
 8006346:	4299      	cmp	r1, r3
 8006348:	bfde      	ittt	le
 800634a:	2330      	movle	r3, #48	; 0x30
 800634c:	f805 3c01 	strble.w	r3, [r5, #-1]
 8006350:	f105 35ff 	addle.w	r5, r5, #4294967295
 8006354:	1b52      	subs	r2, r2, r5
 8006356:	6122      	str	r2, [r4, #16]
 8006358:	f8cd a000 	str.w	sl, [sp]
 800635c:	464b      	mov	r3, r9
 800635e:	aa03      	add	r2, sp, #12
 8006360:	4621      	mov	r1, r4
 8006362:	4640      	mov	r0, r8
 8006364:	f7ff fee2 	bl	800612c <_printf_common>
 8006368:	3001      	adds	r0, #1
 800636a:	d14c      	bne.n	8006406 <_printf_i+0x1fe>
 800636c:	f04f 30ff 	mov.w	r0, #4294967295
 8006370:	b004      	add	sp, #16
 8006372:	e8bd 87f0 	ldmia.w	sp!, {r4, r5, r6, r7, r8, r9, sl, pc}
 8006376:	4835      	ldr	r0, [pc, #212]	; (800644c <_printf_i+0x244>)
 8006378:	f881 7045 	strb.w	r7, [r1, #69]	; 0x45
 800637c:	6829      	ldr	r1, [r5, #0]
 800637e:	6823      	ldr	r3, [r4, #0]
 8006380:	f851 6b04 	ldr.w	r6, [r1], #4
 8006384:	6029      	str	r1, [r5, #0]
 8006386:	061d      	lsls	r5, r3, #24
 8006388:	d514      	bpl.n	80063b4 <_printf_i+0x1ac>
 800638a:	07df      	lsls	r7, r3, #31
 800638c:	bf44      	itt	mi
 800638e:	f043 0320 	orrmi.w	r3, r3, #32
 8006392:	6023      	strmi	r3, [r4, #0]
 8006394:	b91e      	cbnz	r6, 800639e <_printf_i+0x196>
 8006396:	6823      	ldr	r3, [r4, #0]
 8006398:	f023 0320 	bic.w	r3, r3, #32
 800639c:	6023      	str	r3, [r4, #0]
 800639e:	2310      	movs	r3, #16
 80063a0:	e7b0      	b.n	8006304 <_printf_i+0xfc>
 80063a2:	6823      	ldr	r3, [r4, #0]
 80063a4:	f043 0320 	orr.w	r3, r3, #32
 80063a8:	6023      	str	r3, [r4, #0]
 80063aa:	2378      	movs	r3, #120	; 0x78
 80063ac:	4828      	ldr	r0, [pc, #160]	; (8006450 <_printf_i+0x248>)
 80063ae:	f884 3045 	strb.w	r3, [r4, #69]	; 0x45
 80063b2:	e7e3      	b.n	800637c <_printf_i+0x174>
 80063b4:	0659      	lsls	r1, r3, #25
 80063b6:	bf48      	it	mi
 80063b8:	b2b6      	uxthmi	r6, r6
 80063ba:	e7e6      	b.n	800638a <_printf_i+0x182>
 80063bc:	4615      	mov	r5, r2
 80063be:	e7bb      	b.n	8006338 <_printf_i+0x130>
 80063c0:	682b      	ldr	r3, [r5, #0]
 80063c2:	6826      	ldr	r6, [r4, #0]
 80063c4:	6961      	ldr	r1, [r4, #20]
 80063c6:	1d18      	adds	r0, r3, #4
 80063c8:	6028      	str	r0, [r5, #0]
 80063ca:	0635      	lsls	r5, r6, #24
 80063cc:	681b      	ldr	r3, [r3, #0]
 80063ce:	d501      	bpl.n	80063d4 <_printf_i+0x1cc>
 80063d0:	6019      	str	r1, [r3, #0]
 80063d2:	e002      	b.n	80063da <_printf_i+0x1d2>
 80063d4:	0670      	lsls	r0, r6, #25
 80063d6:	d5fb      	bpl.n	80063d0 <_printf_i+0x1c8>
 80063d8:	8019      	strh	r1, [r3, #0]
 80063da:	2300      	movs	r3, #0
 80063dc:	6123      	str	r3, [r4, #16]
 80063de:	4615      	mov	r5, r2
 80063e0:	e7ba      	b.n	8006358 <_printf_i+0x150>
 80063e2:	682b      	ldr	r3, [r5, #0]
 80063e4:	1d1a      	adds	r2, r3, #4
 80063e6:	602a      	str	r2, [r5, #0]
 80063e8:	681d      	ldr	r5, [r3, #0]
 80063ea:	6862      	ldr	r2, [r4, #4]
 80063ec:	2100      	movs	r1, #0
 80063ee:	4628      	mov	r0, r5
 80063f0:	f7f9 fefe 	bl	80001f0 <memchr>
 80063f4:	b108      	cbz	r0, 80063fa <_printf_i+0x1f2>
 80063f6:	1b40      	subs	r0, r0, r5
 80063f8:	6060      	str	r0, [r4, #4]
 80063fa:	6863      	ldr	r3, [r4, #4]
 80063fc:	6123      	str	r3, [r4, #16]
 80063fe:	2300      	movs	r3, #0
 8006400:	f884 3043 	strb.w	r3, [r4, #67]	; 0x43
 8006404:	e7a8      	b.n	8006358 <_printf_i+0x150>
 8006406:	6923      	ldr	r3, [r4, #16]
 8006408:	462a      	mov	r2, r5
 800640a:	4649      	mov	r1, r9
 800640c:	4640      	mov	r0, r8
 800640e:	47d0      	blx	sl
 8006410:	3001      	adds	r0, #1
 8006412:	d0ab      	beq.n	800636c <_printf_i+0x164>
 8006414:	6823      	ldr	r3, [r4, #0]
 8006416:	079b      	lsls	r3, r3, #30
 8006418:	d413      	bmi.n	8006442 <_printf_i+0x23a>
 800641a:	68e0      	ldr	r0, [r4, #12]
 800641c:	9b03      	ldr	r3, [sp, #12]
 800641e:	4298      	cmp	r0, r3
 8006420:	bfb8      	it	lt
 8006422:	4618      	movlt	r0, r3
 8006424:	e7a4      	b.n	8006370 <_printf_i+0x168>
 8006426:	2301      	movs	r3, #1
 8006428:	4632      	mov	r2, r6
 800642a:	4649      	mov	r1, r9
 800642c:	4640      	mov	r0, r8
 800642e:	47d0      	blx	sl
 8006430:	3001      	adds	r0, #1
 8006432:	d09b      	beq.n	800636c <_printf_i+0x164>
 8006434:	3501      	adds	r5, #1
 8006436:	68e3      	ldr	r3, [r4, #12]
 8006438:	9903      	ldr	r1, [sp, #12]
 800643a:	1a5b      	subs	r3, r3, r1
 800643c:	42ab      	cmp	r3, r5
 800643e:	dcf2      	bgt.n	8006426 <_printf_i+0x21e>
 8006440:	e7eb      	b.n	800641a <_printf_i+0x212>
 8006442:	2500      	movs	r5, #0
 8006444:	f104 0619 	add.w	r6, r4, #25
 8006448:	e7f5      	b.n	8006436 <_printf_i+0x22e>
 800644a:	bf00      	nop
 800644c:	080068fd 	.word	0x080068fd
 8006450:	0800690e 	.word	0x0800690e

08006454 <memcpy>:
 8006454:	440a      	add	r2, r1
 8006456:	4291      	cmp	r1, r2
 8006458:	f100 33ff 	add.w	r3, r0, #4294967295
 800645c:	d100      	bne.n	8006460 <memcpy+0xc>
 800645e:	4770      	bx	lr
 8006460:	b510      	push	{r4, lr}
 8006462:	f811 4b01 	ldrb.w	r4, [r1], #1
 8006466:	f803 4f01 	strb.w	r4, [r3, #1]!
 800646a:	4291      	cmp	r1, r2
 800646c:	d1f9      	bne.n	8006462 <memcpy+0xe>
 800646e:	bd10      	pop	{r4, pc}

08006470 <memmove>:
 8006470:	4288      	cmp	r0, r1
 8006472:	b510      	push	{r4, lr}
 8006474:	eb01 0402 	add.w	r4, r1, r2
 8006478:	d902      	bls.n	8006480 <memmove+0x10>
 800647a:	4284      	cmp	r4, r0
 800647c:	4623      	mov	r3, r4
 800647e:	d807      	bhi.n	8006490 <memmove+0x20>
 8006480:	1e43      	subs	r3, r0, #1
 8006482:	42a1      	cmp	r1, r4
 8006484:	d008      	beq.n	8006498 <memmove+0x28>
 8006486:	f811 2b01 	ldrb.w	r2, [r1], #1
 800648a:	f803 2f01 	strb.w	r2, [r3, #1]!
 800648e:	e7f8      	b.n	8006482 <memmove+0x12>
 8006490:	4402      	add	r2, r0
 8006492:	4601      	mov	r1, r0
 8006494:	428a      	cmp	r2, r1
 8006496:	d100      	bne.n	800649a <memmove+0x2a>
 8006498:	bd10      	pop	{r4, pc}
 800649a:	f813 4d01 	ldrb.w	r4, [r3, #-1]!
 800649e:	f802 4d01 	strb.w	r4, [r2, #-1]!
 80064a2:	e7f7      	b.n	8006494 <memmove+0x24>

080064a4 <_free_r>:
 80064a4:	b537      	push	{r0, r1, r2, r4, r5, lr}
 80064a6:	2900      	cmp	r1, #0
 80064a8:	d044      	beq.n	8006534 <_free_r+0x90>
 80064aa:	f851 3c04 	ldr.w	r3, [r1, #-4]
 80064ae:	9001      	str	r0, [sp, #4]
 80064b0:	2b00      	cmp	r3, #0
 80064b2:	f1a1 0404 	sub.w	r4, r1, #4
 80064b6:	bfb8      	it	lt
 80064b8:	18e4      	addlt	r4, r4, r3
 80064ba:	f000 f913 	bl	80066e4 <__malloc_lock>
 80064be:	4a1e      	ldr	r2, [pc, #120]	; (8006538 <_free_r+0x94>)
 80064c0:	9801      	ldr	r0, [sp, #4]
 80064c2:	6813      	ldr	r3, [r2, #0]
 80064c4:	b933      	cbnz	r3, 80064d4 <_free_r+0x30>
 80064c6:	6063      	str	r3, [r4, #4]
 80064c8:	6014      	str	r4, [r2, #0]
 80064ca:	b003      	add	sp, #12
 80064cc:	e8bd 4030 	ldmia.w	sp!, {r4, r5, lr}
 80064d0:	f000 b90e 	b.w	80066f0 <__malloc_unlock>
 80064d4:	42a3      	cmp	r3, r4
 80064d6:	d908      	bls.n	80064ea <_free_r+0x46>
 80064d8:	6825      	ldr	r5, [r4, #0]
 80064da:	1961      	adds	r1, r4, r5
 80064dc:	428b      	cmp	r3, r1
 80064de:	bf01      	itttt	eq
 80064e0:	6819      	ldreq	r1, [r3, #0]
 80064e2:	685b      	ldreq	r3, [r3, #4]
 80064e4:	1949      	addeq	r1, r1, r5
 80064e6:	6021      	streq	r1, [r4, #0]
 80064e8:	e7ed      	b.n	80064c6 <_free_r+0x22>
 80064ea:	461a      	mov	r2, r3
 80064ec:	685b      	ldr	r3, [r3, #4]
 80064ee:	b10b      	cbz	r3, 80064f4 <_free_r+0x50>
 80064f0:	42a3      	cmp	r3, r4
 80064f2:	d9fa      	bls.n	80064ea <_free_r+0x46>
 80064f4:	6811      	ldr	r1, [r2, #0]
 80064f6:	1855      	adds	r5, r2, r1
 80064f8:	42a5      	cmp	r5, r4
 80064fa:	d10b      	bne.n	8006514 <_free_r+0x70>
 80064fc:	6824      	ldr	r4, [r4, #0]
 80064fe:	4421      	add	r1, r4
 8006500:	1854      	adds	r4, r2, r1
 8006502:	42a3      	cmp	r3, r4
 8006504:	6011      	str	r1, [r2, #0]
 8006506:	d1e0      	bne.n	80064ca <_free_r+0x26>
 8006508:	681c      	ldr	r4, [r3, #0]
 800650a:	685b      	ldr	r3, [r3, #4]
 800650c:	6053      	str	r3, [r2, #4]
 800650e:	4421      	add	r1, r4
 8006510:	6011      	str	r1, [r2, #0]
 8006512:	e7da      	b.n	80064ca <_free_r+0x26>
 8006514:	d902      	bls.n	800651c <_free_r+0x78>
 8006516:	230c      	movs	r3, #12
 8006518:	6003      	str	r3, [r0, #0]
 800651a:	e7d6      	b.n	80064ca <_free_r+0x26>
 800651c:	6825      	ldr	r5, [r4, #0]
 800651e:	1961      	adds	r1, r4, r5
 8006520:	428b      	cmp	r3, r1
 8006522:	bf04      	itt	eq
 8006524:	6819      	ldreq	r1, [r3, #0]
 8006526:	685b      	ldreq	r3, [r3, #4]
 8006528:	6063      	str	r3, [r4, #4]
 800652a:	bf04      	itt	eq
 800652c:	1949      	addeq	r1, r1, r5
 800652e:	6021      	streq	r1, [r4, #0]
 8006530:	6054      	str	r4, [r2, #4]
 8006532:	e7ca      	b.n	80064ca <_free_r+0x26>
 8006534:	b003      	add	sp, #12
 8006536:	bd30      	pop	{r4, r5, pc}
 8006538:	200002d0 	.word	0x200002d0

0800653c <sbrk_aligned>:
 800653c:	b570      	push	{r4, r5, r6, lr}
 800653e:	4e0e      	ldr	r6, [pc, #56]	; (8006578 <sbrk_aligned+0x3c>)
 8006540:	460c      	mov	r4, r1
 8006542:	6831      	ldr	r1, [r6, #0]
 8006544:	4605      	mov	r5, r0
 8006546:	b911      	cbnz	r1, 800654e <sbrk_aligned+0x12>
 8006548:	f000 f8bc 	bl	80066c4 <_sbrk_r>
 800654c:	6030      	str	r0, [r6, #0]
 800654e:	4621      	mov	r1, r4
 8006550:	4628      	mov	r0, r5
 8006552:	f000 f8b7 	bl	80066c4 <_sbrk_r>
 8006556:	1c43      	adds	r3, r0, #1
 8006558:	d00a      	beq.n	8006570 <sbrk_aligned+0x34>
 800655a:	1cc4      	adds	r4, r0, #3
 800655c:	f024 0403 	bic.w	r4, r4, #3
 8006560:	42a0      	cmp	r0, r4
 8006562:	d007      	beq.n	8006574 <sbrk_aligned+0x38>
 8006564:	1a21      	subs	r1, r4, r0
 8006566:	4628      	mov	r0, r5
 8006568:	f000 f8ac 	bl	80066c4 <_sbrk_r>
 800656c:	3001      	adds	r0, #1
 800656e:	d101      	bne.n	8006574 <sbrk_aligned+0x38>
 8006570:	f04f 34ff 	mov.w	r4, #4294967295
 8006574:	4620      	mov	r0, r4
 8006576:	bd70      	pop	{r4, r5, r6, pc}
 8006578:	200002d4 	.word	0x200002d4

0800657c <_malloc_r>:
 800657c:	e92d 41f0 	stmdb	sp!, {r4, r5, r6, r7, r8, lr}
 8006580:	1ccd      	adds	r5, r1, #3
 8006582:	f025 0503 	bic.w	r5, r5, #3
 8006586:	3508      	adds	r5, #8
 8006588:	2d0c      	cmp	r5, #12
 800658a:	bf38      	it	cc
 800658c:	250c      	movcc	r5, #12
 800658e:	2d00      	cmp	r5, #0
 8006590:	4607      	mov	r7, r0
 8006592:	db01      	blt.n	8006598 <_malloc_r+0x1c>
 8006594:	42a9      	cmp	r1, r5
 8006596:	d905      	bls.n	80065a4 <_malloc_r+0x28>
 8006598:	230c      	movs	r3, #12
 800659a:	603b      	str	r3, [r7, #0]
 800659c:	2600      	movs	r6, #0
 800659e:	4630      	mov	r0, r6
 80065a0:	e8bd 81f0 	ldmia.w	sp!, {r4, r5, r6, r7, r8, pc}
 80065a4:	4e2e      	ldr	r6, [pc, #184]	; (8006660 <_malloc_r+0xe4>)
 80065a6:	f000 f89d 	bl	80066e4 <__malloc_lock>
 80065aa:	6833      	ldr	r3, [r6, #0]
 80065ac:	461c      	mov	r4, r3
 80065ae:	bb34      	cbnz	r4, 80065fe <_malloc_r+0x82>
 80065b0:	4629      	mov	r1, r5
 80065b2:	4638      	mov	r0, r7
 80065b4:	f7ff ffc2 	bl	800653c <sbrk_aligned>
 80065b8:	1c43      	adds	r3, r0, #1
 80065ba:	4604      	mov	r4, r0
 80065bc:	d14d      	bne.n	800665a <_malloc_r+0xde>
 80065be:	6834      	ldr	r4, [r6, #0]
 80065c0:	4626      	mov	r6, r4
 80065c2:	2e00      	cmp	r6, #0
 80065c4:	d140      	bne.n	8006648 <_malloc_r+0xcc>
 80065c6:	6823      	ldr	r3, [r4, #0]
 80065c8:	4631      	mov	r1, r6
 80065ca:	4638      	mov	r0, r7
 80065cc:	eb04 0803 	add.w	r8, r4, r3
 80065d0:	f000 f878 	bl	80066c4 <_sbrk_r>
 80065d4:	4580      	cmp	r8, r0
 80065d6:	d13a      	bne.n	800664e <_malloc_r+0xd2>
 80065d8:	6821      	ldr	r1, [r4, #0]
 80065da:	3503      	adds	r5, #3
 80065dc:	1a6d      	subs	r5, r5, r1
 80065de:	f025 0503 	bic.w	r5, r5, #3
 80065e2:	3508      	adds	r5, #8
 80065e4:	2d0c      	cmp	r5, #12
 80065e6:	bf38      	it	cc
 80065e8:	250c      	movcc	r5, #12
 80065ea:	4629      	mov	r1, r5
 80065ec:	4638      	mov	r0, r7
 80065ee:	f7ff ffa5 	bl	800653c <sbrk_aligned>
 80065f2:	3001      	adds	r0, #1
 80065f4:	d02b      	beq.n	800664e <_malloc_r+0xd2>
 80065f6:	6823      	ldr	r3, [r4, #0]
 80065f8:	442b      	add	r3, r5
 80065fa:	6023      	str	r3, [r4, #0]
 80065fc:	e00e      	b.n	800661c <_malloc_r+0xa0>
 80065fe:	6822      	ldr	r2, [r4, #0]
 8006600:	1b52      	subs	r2, r2, r5
 8006602:	d41e      	bmi.n	8006642 <_malloc_r+0xc6>
 8006604:	2a0b      	cmp	r2, #11
 8006606:	d916      	bls.n	8006636 <_malloc_r+0xba>
 8006608:	1961      	adds	r1, r4, r5
 800660a:	42a3      	cmp	r3, r4
 800660c:	6025      	str	r5, [r4, #0]
 800660e:	bf18      	it	ne
 8006610:	6059      	strne	r1, [r3, #4]
 8006612:	6863      	ldr	r3, [r4, #4]
 8006614:	bf08      	it	eq
 8006616:	6031      	streq	r1, [r6, #0]
 8006618:	5162      	str	r2, [r4, r5]
 800661a:	604b      	str	r3, [r1, #4]
 800661c:	4638      	mov	r0, r7
 800661e:	f104 060b 	add.w	r6, r4, #11
 8006622:	f000 f865 	bl	80066f0 <__malloc_unlock>
 8006626:	f026 0607 	bic.w	r6, r6, #7
 800662a:	1d23      	adds	r3, r4, #4
 800662c:	1af2      	subs	r2, r6, r3
 800662e:	d0b6      	beq.n	800659e <_malloc_r+0x22>
 8006630:	1b9b      	subs	r3, r3, r6
 8006632:	50a3      	str	r3, [r4, r2]
 8006634:	e7b3      	b.n	800659e <_malloc_r+0x22>
 8006636:	6862      	ldr	r2, [r4, #4]
 8006638:	42a3      	cmp	r3, r4
 800663a:	bf0c      	ite	eq
 800663c:	6032      	streq	r2, [r6, #0]
 800663e:	605a      	strne	r2, [r3, #4]
 8006640:	e7ec      	b.n	800661c <_malloc_r+0xa0>
 8006642:	4623      	mov	r3, r4
 8006644:	6864      	ldr	r4, [r4, #4]
 8006646:	e7b2      	b.n	80065ae <_malloc_r+0x32>
 8006648:	4634      	mov	r4, r6
 800664a:	6876      	ldr	r6, [r6, #4]
 800664c:	e7b9      	b.n	80065c2 <_malloc_r+0x46>
 800664e:	230c      	movs	r3, #12
 8006650:	603b      	str	r3, [r7, #0]
 8006652:	4638      	mov	r0, r7
 8006654:	f000 f84c 	bl	80066f0 <__malloc_unlock>
 8006658:	e7a1      	b.n	800659e <_malloc_r+0x22>
 800665a:	6025      	str	r5, [r4, #0]
 800665c:	e7de      	b.n	800661c <_malloc_r+0xa0>
 800665e:	bf00      	nop
 8006660:	200002d0 	.word	0x200002d0

08006664 <_realloc_r>:
 8006664:	e92d 41f0 	stmdb	sp!, {r4, r5, r6, r7, r8, lr}
 8006668:	4680      	mov	r8, r0
 800666a:	4614      	mov	r4, r2
 800666c:	460e      	mov	r6, r1
 800666e:	b921      	cbnz	r1, 800667a <_realloc_r+0x16>
 8006670:	e8bd 41f0 	ldmia.w	sp!, {r4, r5, r6, r7, r8, lr}
 8006674:	4611      	mov	r1, r2
 8006676:	f7ff bf81 	b.w	800657c <_malloc_r>
 800667a:	b92a      	cbnz	r2, 8006688 <_realloc_r+0x24>
 800667c:	f7ff ff12 	bl	80064a4 <_free_r>
 8006680:	4625      	mov	r5, r4
 8006682:	4628      	mov	r0, r5
 8006684:	e8bd 81f0 	ldmia.w	sp!, {r4, r5, r6, r7, r8, pc}
 8006688:	f000 f838 	bl	80066fc <_malloc_usable_size_r>
 800668c:	4284      	cmp	r4, r0
 800668e:	4607      	mov	r7, r0
 8006690:	d802      	bhi.n	8006698 <_realloc_r+0x34>
 8006692:	ebb4 0f50 	cmp.w	r4, r0, lsr #1
 8006696:	d812      	bhi.n	80066be <_realloc_r+0x5a>
 8006698:	4621      	mov	r1, r4
 800669a:	4640      	mov	r0, r8
 800669c:	f7ff ff6e 	bl	800657c <_malloc_r>
 80066a0:	4605      	mov	r5, r0
 80066a2:	2800      	cmp	r0, #0
 80066a4:	d0ed      	beq.n	8006682 <_realloc_r+0x1e>
 80066a6:	42bc      	cmp	r4, r7
 80066a8:	4622      	mov	r2, r4
 80066aa:	4631      	mov	r1, r6
 80066ac:	bf28      	it	cs
 80066ae:	463a      	movcs	r2, r7
 80066b0:	f7ff fed0 	bl	8006454 <memcpy>
 80066b4:	4631      	mov	r1, r6
 80066b6:	4640      	mov	r0, r8
 80066b8:	f7ff fef4 	bl	80064a4 <_free_r>
 80066bc:	e7e1      	b.n	8006682 <_realloc_r+0x1e>
 80066be:	4635      	mov	r5, r6
 80066c0:	e7df      	b.n	8006682 <_realloc_r+0x1e>
	...

080066c4 <_sbrk_r>:
 80066c4:	b538      	push	{r3, r4, r5, lr}
 80066c6:	4d06      	ldr	r5, [pc, #24]	; (80066e0 <_sbrk_r+0x1c>)
 80066c8:	2300      	movs	r3, #0
 80066ca:	4604      	mov	r4, r0
 80066cc:	4608      	mov	r0, r1
 80066ce:	602b      	str	r3, [r5, #0]
 80066d0:	f7fb fd6c 	bl	80021ac <_sbrk>
 80066d4:	1c43      	adds	r3, r0, #1
 80066d6:	d102      	bne.n	80066de <_sbrk_r+0x1a>
 80066d8:	682b      	ldr	r3, [r5, #0]
 80066da:	b103      	cbz	r3, 80066de <_sbrk_r+0x1a>
 80066dc:	6023      	str	r3, [r4, #0]
 80066de:	bd38      	pop	{r3, r4, r5, pc}
 80066e0:	200002d8 	.word	0x200002d8

080066e4 <__malloc_lock>:
 80066e4:	4801      	ldr	r0, [pc, #4]	; (80066ec <__malloc_lock+0x8>)
 80066e6:	f000 b811 	b.w	800670c <__retarget_lock_acquire_recursive>
 80066ea:	bf00      	nop
 80066ec:	200002dc 	.word	0x200002dc

080066f0 <__malloc_unlock>:
 80066f0:	4801      	ldr	r0, [pc, #4]	; (80066f8 <__malloc_unlock+0x8>)
 80066f2:	f000 b80c 	b.w	800670e <__retarget_lock_release_recursive>
 80066f6:	bf00      	nop
 80066f8:	200002dc 	.word	0x200002dc

080066fc <_malloc_usable_size_r>:
 80066fc:	f851 3c04 	ldr.w	r3, [r1, #-4]
 8006700:	1f18      	subs	r0, r3, #4
 8006702:	2b00      	cmp	r3, #0
 8006704:	bfbc      	itt	lt
 8006706:	580b      	ldrlt	r3, [r1, r0]
 8006708:	18c0      	addlt	r0, r0, r3
 800670a:	4770      	bx	lr

0800670c <__retarget_lock_acquire_recursive>:
 800670c:	4770      	bx	lr

0800670e <__retarget_lock_release_recursive>:
 800670e:	4770      	bx	lr

08006710 <_init>:
 8006710:	b5f8      	push	{r3, r4, r5, r6, r7, lr}
 8006712:	bf00      	nop
 8006714:	bcf8      	pop	{r3, r4, r5, r6, r7}
 8006716:	bc08      	pop	{r3}
 8006718:	469e      	mov	lr, r3
 800671a:	4770      	bx	lr

0800671c <_fini>:
 800671c:	b5f8      	push	{r3, r4, r5, r6, r7, lr}
 800671e:	bf00      	nop
 8006720:	bcf8      	pop	{r3, r4, r5, r6, r7}
 8006722:	bc08      	pop	{r3}
 8006724:	469e      	mov	lr, r3
 8006726:	4770      	bx	lr
